
 Start         Length     Name                   Class
 0001:00000000 00064068H .text                   CODE
 0002:00000000 00001B5CH .data                   DATA
 0002:00001B5C 00000E4DH .bss                    BSS


Detailed map of segments

 0001:00000000 00004CA8 C=CODE     S=.text    G=(none)   M=System   ACBP=A9
 0001:00004CA8 00000170 C=CODE     S=.text    G=(none)   M=SysInit  ACBP=A9
 0001:00004E18 00000AA4 C=CODE     S=.text    G=(none)   M=Windows  ACBP=A9
 0001:000058BC 00000038 C=CODE     S=.text    G=(none)   M=Messages ACBP=A9
 0001:000058F4 00006CD2 C=CODE     S=.text    G=(none)   M=SysUtils ACBP=A9
 0001:0000C5C8 00000050 C=CODE     S=.text    G=(none)   M=ActiveX  ACBP=A9
 0001:0000C618 000003B8 C=CODE     S=.text    G=(none)   M=Consts   ACBP=A9
 0001:0000C9D0 000004BC C=CODE     S=.text    G=(none)   M=TypInfo  ACBP=A9
 0001:0000CE8C 000074AF C=CODE     S=.text    G=(none)   M=Classes  ACBP=A9
 0001:0001433C 000080FA C=CODE     S=.text    G=(none)   M=Graphics ACBP=A9
 0001:0001C438 000000FC C=CODE     S=.text    G=(none)   M=Commctrl ACBP=A9
 0001:0001C534 00000038 C=CODE     S=.text    G=(none)   M=Imm      ACBP=A9
 0001:0001C56C 00000058 C=CODE     S=.text    G=(none)   M=WinSpool ACBP=A9
 0001:0001C5C4 00000E90 C=CODE     S=.text    G=(none)   M=Printers ACBP=A9
 0001:0001D454 00008EE7 C=CODE     S=.text    G=(none)   M=Controls ACBP=A9
 0001:0002633C 000021EA C=CODE     S=.text    G=(none)   M=Menus    ACBP=A9
 0001:00028528 0000864B C=CODE     S=.text    G=(none)   M=Forms    ACBP=A9
 0001:00030B74 00000040 C=CODE     S=.text    G=(none)   M=CommDlg  ACBP=A9
 0001:00030BB4 00003088 C=CODE     S=.text    G=(none)   M=StdCtrls ACBP=A9
 0001:00033C3C 000013B8 C=CODE     S=.text    G=(none)   M=ExtCtrls ACBP=A9
 0001:00034FF4 00000038 C=CODE     S=.text    G=(none)   M=Dlgs     ACBP=A9
 0001:0003502C 00000DCD C=CODE     S=.text    G=(none)   M=Dialogs  ACBP=A9
 0001:00035DFC 00000630 C=CODE     S=.text    G=(none)   M=Clipbrd  ACBP=A9
 0001:0003642C 000029D8 C=CODE     S=.text    G=(none)   M=Mask     ACBP=A9
 0001:00038E04 00008204 C=CODE     S=.text    G=(none)   M=Grids    ACBP=A9
 0001:00041008 000001B8 C=CODE     S=.text    G=(none)   M=DbConsts ACBP=A9
 0001:000411C0 00009D14 C=CODE     S=.text    G=(none)   M=Db       ACBP=A9
 0001:0004AED4 00003C2C C=CODE     S=.text    G=(none)   M=Bde      ACBP=A9
 0001:0004EB00 000019C0 C=CODE     S=.text    G=(none)   M=DBCommon ACBP=A9
 0001:000504C0 00000068 C=CODE     S=.text    G=(none)   M=SMIntf   ACBP=A9
 0001:00050528 00000068 C=CODE     S=.text    G=(none)   M=StdVCL   ACBP=A9
 0001:00050590 000004AC C=CODE     S=.text    G=(none)   M=DBPWDlg  ACBP=A9
 0001:00050A3C 00000338 C=CODE     S=.text    G=(none)   M=DBLogDlg ACBP=A9
 0001:00050D74 000000D8 C=CODE     S=.text    G=(none)   M=BdeConst ACBP=A9
 0001:00050E4C 0000AD98 C=CODE     S=.text    G=(none)   M=DBTables ACBP=A9
 0001:0005BBE4 00000068 C=CODE     S=.text    G=(none)   M=Registry ACBP=A9
 0001:0005BC4C 00000138 C=CODE     S=.text    G=(none)   M=DsgnIntf ACBP=A9
 0001:0005BD84 0000597D C=CODE     S=.text    G=(none)   M=Aligrid  ACBP=A9
 0001:00061704 00001DED C=CODE     S=.text    G=(none)   M=Buttons  ACBP=A9
 0001:000634F4 000009B4 C=CODE     S=.text    G=(none)   M=ml980726 ACBP=A9
 0001:00063EA8 000001BD C=CODE     S=.text    G=(none)   M=totbgt   ACBP=A9
 0002:00000000 000000F6 C=DATA     S=.data    G=DGROUP   M=System   ACBP=A9
 0002:000000F8 00000010 C=DATA     S=.data    G=DGROUP   M=SysInit  ACBP=A9
 0002:00000108 00000238 C=DATA     S=.data    G=DGROUP   M=SysUtils ACBP=A9
 0002:00000340 00000004 C=DATA     S=.data    G=DGROUP   M=TypInfo  ACBP=A9
 0002:00000344 00000018 C=DATA     S=.data    G=DGROUP   M=Classes  ACBP=A9
 0002:0000035C 000002B4 C=DATA     S=.data    G=DGROUP   M=Graphics ACBP=A9
 0002:00000610 00000004 C=DATA     S=.data    G=DGROUP   M=Printers ACBP=A9
 0002:00000614 000000CC C=DATA     S=.data    G=DGROUP   M=Controls ACBP=A9
 0002:000006E0 000000A6 C=DATA     S=.data    G=DGROUP   M=Menus    ACBP=A9
 0002:00000788 000000FC C=DATA     S=.data    G=DGROUP   M=Forms    ACBP=A9
 0002:00000884 0000004C C=DATA     S=.data    G=DGROUP   M=StdCtrls ACBP=A9
 0002:000008D0 0000000E C=DATA     S=.data    G=DGROUP   M=ExtCtrls ACBP=A9
 0002:000008E0 00000074 C=DATA     S=.data    G=DGROUP   M=Dialogs  ACBP=A9
 0002:00000954 00000009 C=DATA     S=.data    G=DGROUP   M=Mask     ACBP=A9
 0002:00000960 00000006 C=DATA     S=.data    G=DGROUP   M=Grids    ACBP=A9
 0002:00000968 00000077 C=DATA     S=.data    G=DGROUP   M=Db       ACBP=A9
 0002:000009E0 00000C20 C=DATA     S=.data    G=DGROUP   M=Bde      ACBP=A9
 0002:00001600 00000068 C=DATA     S=.data    G=DGROUP   M=DBCommon ACBP=A9
 0002:00001668 00000010 C=DATA     S=.data    G=DGROUP   M=SMIntf   ACBP=A9
 0002:00001678 00000050 C=DATA     S=.data    G=DGROUP   M=DBTables ACBP=A9
 0002:000016C8 00000008 C=DATA     S=.data    G=DGROUP   M=Registry ACBP=A9
 0002:000016D0 0000003C C=DATA     S=.data    G=DGROUP   M=DsgnIntf ACBP=A9
 0002:0000170C 00000064 C=DATA     S=.data    G=DGROUP   M=Aligrid  ACBP=A9
 0002:00001770 00000088 C=DATA     S=.data    G=DGROUP   M=Buttons  ACBP=A9
 0002:00002000 000004AC C=BSS      S=.bss     G=DGROUP   M=System   ACBP=A9
 0002:000024AC 00000018 C=BSS      S=.bss     G=DGROUP   M=SysInit  ACBP=A9
 0002:000024C4 00000004 C=BSS      S=.bss     G=DGROUP   M=Windows  ACBP=A9
 0002:000024C8 00000004 C=BSS      S=.bss     G=DGROUP   M=Messages ACBP=A9
 0002:000024CC 00000110 C=BSS      S=.bss     G=DGROUP   M=SysUtils ACBP=A9
 0002:000025DC 00000004 C=BSS      S=.bss     G=DGROUP   M=ActiveX  ACBP=A9
 0002:000025E0 00000004 C=BSS      S=.bss     G=DGROUP   M=Consts   ACBP=A9
 0002:000025E4 00000004 C=BSS      S=.bss     G=DGROUP   M=TypInfo  ACBP=A9
 0002:000025E8 00000018 C=BSS      S=.bss     G=DGROUP   M=Classes  ACBP=A9
 0002:00002600 0000005C C=BSS      S=.bss     G=DGROUP   M=Graphics ACBP=A9
 0002:0000265C 00000004 C=BSS      S=.bss     G=DGROUP   M=Commctrl ACBP=A9
 0002:00002660 00000004 C=BSS      S=.bss     G=DGROUP   M=Imm      ACBP=A9
 0002:00002664 00000004 C=BSS      S=.bss     G=DGROUP   M=WinSpool ACBP=A9
 0002:00002668 00000004 C=BSS      S=.bss     G=DGROUP   M=Printers ACBP=A9
 0002:0000266C 00000070 C=BSS      S=.bss     G=DGROUP   M=Controls ACBP=A9
 0002:000026DC 0000000C C=BSS      S=.bss     G=DGROUP   M=Menus    ACBP=A9
 0002:000026E8 00000040 C=BSS      S=.bss     G=DGROUP   M=Forms    ACBP=A9
 0002:00002728 00000004 C=BSS      S=.bss     G=DGROUP   M=CommDlg  ACBP=A9
 0002:0000272C 00000004 C=BSS      S=.bss     G=DGROUP   M=StdCtrls ACBP=A9
 0002:00002730 00000004 C=BSS      S=.bss     G=DGROUP   M=ExtCtrls ACBP=A9
 0002:00002734 00000004 C=BSS      S=.bss     G=DGROUP   M=Dlgs     ACBP=A9
 0002:00002738 0000000D C=BSS      S=.bss     G=DGROUP   M=Dialogs  ACBP=A9
 0002:00002748 0000000C C=BSS      S=.bss     G=DGROUP   M=Clipbrd  ACBP=A9
 0002:00002754 00000004 C=BSS      S=.bss     G=DGROUP   M=Mask     ACBP=A9
 0002:00002758 00000004 C=BSS      S=.bss     G=DGROUP   M=Grids    ACBP=A9
 0002:0000275C 00000004 C=BSS      S=.bss     G=DGROUP   M=DbConsts ACBP=A9
 0002:00002760 00000004 C=BSS      S=.bss     G=DGROUP   M=Db       ACBP=A9
 0002:00002764 0000001C C=BSS      S=.bss     G=DGROUP   M=Bde      ACBP=A9
 0002:00002780 00000004 C=BSS      S=.bss     G=DGROUP   M=DBCommon ACBP=A9
 0002:00002784 00000004 C=BSS      S=.bss     G=DGROUP   M=SMIntf   ACBP=A9
 0002:00002788 00000004 C=BSS      S=.bss     G=DGROUP   M=StdVCL   ACBP=A9
 0002:0000278C 00000004 C=BSS      S=.bss     G=DGROUP   M=DBPWDlg  ACBP=A9
 0002:00002790 00000004 C=BSS      S=.bss     G=DGROUP   M=DBLogDlg ACBP=A9
 0002:00002794 00000004 C=BSS      S=.bss     G=DGROUP   M=BdeConst ACBP=A9
 0002:00002798 0000002C C=BSS      S=.bss     G=DGROUP   M=DBTables ACBP=A9
 0002:000027C4 00000004 C=BSS      S=.bss     G=DGROUP   M=Registry ACBP=A9
 0002:000027C8 00000004 C=BSS      S=.bss     G=DGROUP   M=DsgnIntf ACBP=A9
 0002:000027CC 0000000C C=BSS      S=.bss     G=DGROUP   M=Aligrid  ACBP=A9
 0002:000027D8 00000030 C=BSS      S=.bss     G=DGROUP   M=Buttons  ACBP=A9
 0002:00002808 00000644 C=BSS      S=.bss     G=DGROUP   M=ml980726 ACBP=A9


  Address         Publics by Name

 0001:0000B934       .
 0002:000025D0       .1
 0002:000027CC       .1
 0002:00002E48       .1
 0002:000025E0       .1
 0001:00001904       @AbstractError
 0001:00004739       @Append
 0001:00001EB0       @AsClass
 0001:00004612       @Assign
 0001:00001A20       @AStrCmp
 0001:00001EFC       @CallDynaInst
 0001:00002004       @ClassCreate
 0001:00002040       @ClassDestroy
 0001:000046B4       @Close
 0001:0000184C       @Copy
 0001:000031B8       @Dispose
 0001:000023E8       @DoneExcept
 0001:00001A90       @FillChar
 0001:00003198       @Finalize
 0001:000030D8       @FinalizeArray
 0001:000030AC       @FinalizeRecord
 0001:00001F14       @FindDynaInst
 0001:0000468D       @Flush
 0001:00001770       @FreeMem
 0001:00001758       @GetMem
 0001:00004D24       @GetTls
 0001:00002884       @Halt
 0001:0000276C       @Halt0
 0001:00002144       @HandleAnyException
 0001:00002340       @HandleFinally
 0001:00002208       @HandleOnException
 0001:00004DBC       @InitExe
 0001:000030A0       @Initialize
 0001:00003010       @InitializeArray
 0001:00002FE4       @InitializeRecord
 0001:000026C8       @InitImports
 0001:000026AC       @InitResStringImports
 0001:00002690       @InitResStrings
 0001:000043A4       @IntfAddRef
 0001:00004370       @IntfClear
 0001:00004388       @IntfCopy
 0001:00001D0C       @IntOver
 0001:00001E98       @IsClass
 0001:00002CDC       @LStrAddRef
 0001:000028C0       @LStrArrayClr
 0001:000028F0       @LStrAsg
 0001:00002B30       @LStrCat
 0001:00002B74       @LStrCat3
 0001:00002BE8       @LStrCatN
 0001:0000289C       @LStrClr
 0001:00002C38       @LStrCmp
 0001:00002D2C       @LStrCopy
 0001:00002D6C       @LStrDelete
 0001:00002AD8       @LStrFromArray
 0001:00002A50       @LStrFromChar
 0001:00002A60       @LStrFromPChar
 0001:00002980       @LStrFromPCharLen
 0001:00002A90       @LStrFromPWChar
 0001:000029B0       @LStrFromPWCharLen
 0001:00002ACC       @LStrFromString
 0001:00002AF0       @LStrFromWStr
 0001:00002DB4       @LStrInsert
 0001:00002934       @LStrLAsg
 0001:00002B28       @LStrLen
 0001:00002E10       @LStrPos
 0001:00002E58       @LStrSetLength
 0001:00002CEC       @LStrToPChar
 0001:00002B04       @LStrToString
 0001:000031A4       @New
 0001:0000295C       @NewAnsiString
 0001:000048B8       @Pow10
 0001:0000199C       @PStrCmp
 0001:00001950       @PStrCpy
 0001:00001920       @PStrNCat
 0001:0000196C       @PStrNCpy
 0001:00002394       @RaiseAgain
 0001:00002378       @RaiseExcept
 0001:00001788       @ReallocMem
 0001:0000472B       @ResetText
 0001:00004732       @RewritText
 0001:000018E0       @ROUND
 0001:00002890       @RunError
 0001:00002660       @StartExe
 0001:00001B10       @Str0Long
 0001:00001AB0       @StrLong
 0001:000018E8       @TRUNC
 0001:00002418       @TryFinallyExit
 0001:00001B1C       @ValLong
 0001:00003A78       @VarAdd
 0001:00003C20       @VarAddRef
 0001:00003E44       @VarArrayGet
 0001:00003EC8       @VarArrayPut
 0001:0000348C       @VarCast
 0001:00003320       @VarClear
 0001:00003C18       @VarClr
 0001:00003B1C       @VarCmp
 0001:00003354       @VarCopy
 0001:0000372C       @VarFromBool
 0001:00003764       @VarFromCurr
 0001:00003714       @VarFromInt
 0001:0000377C       @VarFromLStr
 0001:0000374C       @VarFromReal
 0001:000035EC       @VarToBool
 0001:0000367C       @VarToCurr
 0001:00003580       @VarToInt
 0001:000036D8       @VarToLStr
 0001:00003620       @VarToReal
 0001:0000481F       @Write0Char
 0001:00004888       @Write0CString
 0001:000047E4       @Write0String
 0001:00004871       @WriteChar
 0001:0000488C       @WriteCString
 0001:0000480B       @WriteLn
 0001:000047EE       @WriteString
 0001:00002EDC       @WStrArrayClr
 0001:00002F00       @WStrAsg
 0001:00002EC4       @WStrClr
 0001:00002FD4       @WStrFromLStr
 0001:00002F24       @WStrFromPCharLen
 0001:00002FB8       @WStrFromPWCharLen
 0001:00001BDC       @_CLenToPasStr
 0001:00001BC4       @_CToPasStr
 0001:00004668       @_Flush
 0001:0000181C       @_IOTest
 0001:0000A3A4       Abort
 0001:0000A754       AbstractErrorHandler
 0002:00002018       AbstractErrorProc
 0002:00000178       AccessMode
 0001:000052C0       ActivateKeyboardLayout
 0001:0000C610       ActiveX
 0001:00006494       AddExitProc
 0001:000041C4       AddModuleUnloadProc
 0001:00061420       AddShowHintProc
 0001:000052C8       AdjustWindowRectEx
 0001:0000B6A4       AL1
 0002:00000328       AL1s
 0001:0000B6B4       AL2
 0002:00000334       AL2s
 0002:0000170C       Alignments
 0002:00001734       align_cap
 0002:00001718       align_str
 0001:00061660       Aligrid
 0001:00029D4C       AllocateHWnd
 0001:00006428       AllocMem
 0002:00002400       AllocMemCount
 0002:00002404       AllocMemSize
 0001:0000B720       ALR
 0001:0000B6CC       ALV
 0001:000066EC       AnsiCompareText
 0001:00006AA4       AnsiLastChar
 0001:000052D0       AnsiLower
 0001:000066AC       AnsiLowerCase
 0001:0000B0E0       AnsiLowerCaseFileName
 0001:0000B084       AnsiPos
 0001:0000673C       AnsiStrLIComp
 0001:0000B2B8       AnsiStrPos
 0001:0000B3A8       AnsiStrRScan
 0001:0000B3FC       AnsiStrScan
 0001:000528F0       AnsiToNative
 0001:00052984       AnsiToNativeBuf
 0001:0000666C       AnsiUpperCase
 0001:0000B1CC       AnsiUpperCaseFileName
 0001:00007EBC       AppendChars
 0001:00008310       AppendFormat
 0001:00007F50       AppendNumber
 0001:00007F2C       AppendString
 0002:000026E8       Application
 0001:0000A698       AssertErrorHandler
 0002:00002014       AssertErrorProc
 0001:0004EAF8       Bde
 0001:00050E44       BdeConst
 0001:0000E414       BeginGlobalLoading
 0001:000052D8       BeginPaint
 0001:00005058       BitBlt
 0002:00001614       BlobTypeMap
 0001:0000DEA0       Bounds
 0001:00043AB4       BuffersEqual
 0001:000634CC       Buttons
 0001:0000AE34       ByteToCharIndex
 0001:0000ADF8       ByteToCharLen
 0001:0000AD88       ByteType
 0001:0000ACFC       ByteTypeTest
 0001:000052E0       CallNextHookEx
 0001:0000B634       CallTerminateProcs
 0001:000052E8       CallWindowProc
 0001:0001EF68       CancelDrag
 0002:00002DAC       cau
 0002:0000274A       CF_COMPONENT
 0002:00002748       CF_PICTURE
 0001:00006B6C       ChangeFileExt
 0001:000052F0       CharLowerBuff
 0001:00015A50       CharsetToIdent
 0001:0000AF80       CharToByteIndex
 0001:0000B010       CharToByteLen
 0001:000052F8       CharToOem
 0001:00005300       CharToOemBuff
 0001:00005308       CharUpperBuff
 0001:00052BE8       Check
 0001:00005310       CheckMenuItem
 0001:000142C4       Classes
 0002:00001668       Class_SMClient
 0001:0005C4BC       cleanlist
 0001:0005C54C       cleanlist_object
 0001:0005C508       cleanlist_pstring
 0001:00005318       ClientToScreen
 0001:00036370       Clipboard
 0001:000363D0       Clipbrd
 0001:00005320       CloseClipboard
 0001:00004E40       CloseHandle
 0001:0001C56C       ClosePrinter
 0002:00002028       CmdLine
 0002:00002024       CmdShow
 0001:0000C5D8       CoCreateInstance
 0001:0000C5C8       CoInitialize
 0001:00015848       ColorToIdent
 0001:00015838       ColorToRGB
 0001:0001C52C       Commctrl
 0001:00030BAC       CommDlg
 0001:000065F8       CompareMem
 0001:000065C8       CompareStr
 0001:00004E48       CompareString
 0001:00006618       CompareText
 0001:00061400       compare_method
 0001:0000C9C8       Consts
 0001:00026318       Controls
 0001:0000A100       ConvertAddr
 0001:00008064       ConvertEraString
 0001:000063D8       ConvertError
 0001:000063F8       ConvertErrorFmt
 0001:000081F0       ConvertYearString
 0001:00005060       CopyEnhMetaFile
 0001:0001A368       CopyPalette
 0001:0000C5D0       CoUninitialize
 0001:0000AEC4       CountChars
 0001:0000A8A0       CreateAVObject
 0001:00005068       CreateBitmap
 0001:00005070       CreateBrushIndirect
 0001:00005078       CreateCompatibleBitmap
 0001:00005080       CreateCompatibleDC
 0001:00005088       CreateDC
 0001:00005098       CreateDIBitmap
 0001:00005090       CreateDIBSection
 0001:00004E50       CreateEvent
 0001:00004E58       CreateFile
 0001:000050A0       CreateFontIndirect
 0001:000050A8       CreateHalftonePalette
 0001:000050B0       CreateIC
 0001:00005328       CreateIcon
 0001:0000A528       CreateInOutError
 0001:00005330       CreateMenu
 0001:00004E60       CreateMutexA
 0001:000050B8       CreatePalette
 0001:000050C0       CreatePenIndirect
 0001:00005338       CreatePopupMenu
 0002:00001678       CreateProviderProc
 0001:000050C8       CreateRectRgn
 0001:000050D0       CreateSolidBrush
 0001:00004E68       CreateThread
 0001:00005850       CreateWindow
 0001:00005340       CreateWindowEx
 0002:00000614       CreationControl
 0002:00000788       Ctl3DBtnWndProc
 0002:00000790       Ctl3DCtlColorEx
 0002:0000078C       Ctl3DDlgFramePaint
 0002:000024D4       CurrencyDecimals
 0002:000024D0       CurrencyFormat
 0002:000024CC       CurrencyString
 0001:00007E9C       CurrentYear
 0001:0004ED3C       CurrToFMTBCD
 0001:000075F0       CurrToStr
 0001:0000765C       CurrToStrF
 0001:0001E7B0       CursorToIdent
 0001:00043A58       DatabaseError
 0001:00043A74       DatabaseErrorFmt
 0002:00001600       DataTypeMap
 0002:000024D5       DateSeparator
 0001:00008B58       DateTimeToStr
 0001:00008ACC       DateTimeToString
 0001:000078D0       DateTimeToTimeStamp
 0001:00008B38       DateToStr
 0001:00007E64       DayOfWeek
 0001:0004AECC       Db
 0001:000504B8       DBCommon
 0001:000411B8       DbConsts
 0001:0004D53E       DbiAcqPersistTableLock
 0001:0004D550       DbiAcqTableLock
 0001:0004CE4E       DbiActivateFilter
 0001:0004C7A6       DbiAddAlias
 0001:0004C710       DbiAddDriver
 0001:0004CE5A       DbiAddFilter
 0001:0004D376       DbiAddIndex
 0001:0004D502       DbiAddPassword
 0001:0004CA28       DbiAnsiToNative
 0001:0004D31C       DbiAppendRecord
 0001:0004C854       DbiApplyDelayedUpdates
 0001:0004CE3C       DbiBatchMove
 0001:0004C9F8       DbiBcdFromFloat
 0001:0004C9FE       DbiBcdToFloat
 0001:0004C6CE       DbiBeginConstraintLayer
 0001:0004C860       DbiBeginDelayedUpdates
 0001:0004D58C       DbiBeginLinkMode
 0001:0004CE2A       DbiBeginTran
 0001:0004D220       DbiCfgAddRecord
 0001:0004D238       DbiCfgBuildPath
 0001:0004D214       DbiCfgDropRecord
 0001:0004D208       DbiCfgGetHelp
 0001:0004D22C       DbiCfgGetNextNode
 0001:0004D226       DbiCfgGetRecord
 0001:0004D202       DbiCfgMerge
 0001:0004D21A       DbiCfgModifyRecord
 0001:0004D232       DbiCfgPosition
 0001:0004D23E       DbiCfgSave
 0001:0004D20E       DbiCfgTranslate
 0001:0004D2B0       DbiCheckRefresh
 0001:0004C6B6       DbiCheckSQLExpression
 0001:0004D3A6       DbiCloneCursor
 0001:0004CA46       DbiCloseConfigFile
 0001:0004D652       DbiCloseCursor
 0001:0004D66A       DbiCloseDatabase
 0001:0004C9AA       DbiCloseFieldXlt
 0001:0004D3D0       DbiCloseIndex
 0001:0004D508       DbiCloseSession
 0001:0004D3AC       DbiCompareBookMarks
 0001:0004D316       DbiCompareKeys
 0001:0004D388       DbiCopyTable
 0001:0004D59E       DbiCreateInMemTable
 0001:0004D38E       DbiCreateTable
 0001:0004D2EC       DbiCreateTempTable
 0001:0004D3DC       DbiDateDecode
 0001:0004D3E2       DbiDateEncode
 0001:0004CE48       DbiDeactivateFilter
 0001:0004D1D8       DbiDebugLayerOptions
 0001:0004C78E       DbiDeleteAlias
 0001:0004C70A       DbiDeleteDriver
 0001:0004D370       DbiDeleteIndex
 0001:0004D610       DbiDeleteRecord
 0001:0004D37C       DbiDeleteTable
 0001:0004EA61       DbiDLLExit
 0001:0004D358       DbiDoRestructure
 0001:0004C734       DbiDRAdd
 0001:0004C82A       DbiDRAddAttr
 0001:0004C842       DbiDRClose
 0001:0004C7C4       DbiDRCreate
 0001:0004C788       DbiDRCreateEnumAttrDomain
 0001:0004C830       DbiDRCreateObjectType
 0001:0004C81E       DbiDRCreateRelationType
 0001:0004C7BE       DbiDRDelete
 0001:0004C77C       DbiDRDeleteEnumAttrDomain
 0001:0004C812       DbiDRDeleteObjectType
 0001:0004C818       DbiDRDeleteRelationType
 0001:0004C72E       DbiDRDrop
 0001:0004C824       DbiDRDropAttr
 0001:0004C836       DbiDRExportToFile
 0001:0004C7F4       DbiDRGetAttrDescs
 0001:0004C84E       DbiDRGetDesc
 0001:0004C776       DbiDRGetEnumAttrDomain
 0001:0004C7DC       DbiDRGetObjID
 0001:0004C7FA       DbiDRGetObjTypeInfo
 0001:0004C73A       DbiDRGetRelatedObject
 0001:0004C7EE       DbiDRGetRelTypeInfo
 0001:0004C83C       DbiDRImportFromFile
 0001:0004C7CA       DbiDRLoadDBObject
 0001:0004C782       DbiDRModifyEnumAttrDomain
 0001:0004C848       DbiDROpen
 0001:0004C806       DbiDROpenAttrTypeList
 0001:0004C80C       DbiDROpenObjectTypeList
 0001:0004C7E8       DbiDROpenObjSet
 0001:0004C7E2       DbiDROpenRelSet
 0001:0004C800       DbiDROpenRelTypeList
 0001:0004CE54       DbiDropFilter
 0001:0004D4FC       DbiDropPassword
 0001:0004C7D6       DbiDRSetToObjID
 0001:0004C7D0       DbiDRSetToObjName
 0001:0004D334       DbiEmptyTable
 0001:0004C6BC       DbiEndConstraintLayer
 0001:0004C85A       DbiEndDelayedUpdates
 0001:0004D586       DbiEndLinkMode
 0001:0004CE24       DbiEndTran
 0001:00052BCC       DbiError
 0001:0004E9E1       DbiExit
 0001:0004D3BE       DbiExtractKey
 0001:0004D520       DbiForceRecordReread
 0001:0004D52C       DbiForceReread
 0001:0004D2E0       DbiFormFullName
 0001:0004D46C       DbiFreeBlob
 0001:0004D47E       DbiGetBlob
 0001:0004D466       DbiGetBlobHeading
 0001:0004D484       DbiGetBlobSize
 0001:0004D3B8       DbiGetBookMark
 0001:0004D2AA       DbiGetCallBack
 0001:0004CE7E       DbiGetClientInfo
 0001:0004D50E       DbiGetCurrSession
 0001:0004D526       DbiGetCursorForTable
 0001:0004D65E       DbiGetCursorProps
 0001:0004D4CC       DbiGetDatabaseDesc
 0001:0004D1FC       DbiGetDateFormat
 0001:0004C752       DbiGetDefaultRepository
 0001:0004D5F2       DbiGetDirectory
 0001:0004D4D8       DbiGetDriverDesc
 0001:0004D2D4       DbiGetErrorContext
 0001:0004D2CE       DbiGetErrorEntry
 0001:0004D304       DbiGetErrorInfo
 0001:0004D2DA       DbiGetErrorString
 0001:0004CDD6       DbiGetExactRecordCount
 0001:0004D3EE       DbiGetField
 0001:0004D658       DbiGetFieldDescs
 0001:0004D4B4       DbiGetFieldTypeDesc
 0001:0004C9BC       DbiGetFilterInfo
 0001:0004D3C4       DbiGetIndexDesc
 0001:0004CA3A       DbiGetIndexDescs
 0001:0004D36A       DbiGetIndexForField
 0001:0004D364       DbiGetIndexSeqNo
 0001:0004D4A8       DbiGetIndexTypeDesc
 0001:0004CE66       DbiGetLdName
 0001:0004CE06       DbiGetLdNameFromDb
 0001:0004D2F8       DbiGetLdObj
 0001:0004D574       DbiGetLinkStatus
 0001:0004D43C       DbiGetNetUserName
 0001:0004D63A       DbiGetNextRecord
 0001:0004D1E4       DbiGetNumberFormat
 0001:0004CA16       DbiGetObjFromName
 0001:0004C9C8       DbiGetObjFromObj
 0001:0004D634       DbiGetPriorRecord
 0001:0004CA22       DbiGetProp
 0001:0004D62E       DbiGetRecord
 0001:0004D622       DbiGetRecordCount
 0001:0004D310       DbiGetRecordForKey
 0001:0004D628       DbiGetRelativeRecord
 0001:0004C980       DbiGetRintDesc
 0001:0004D60A       DbiGetSeqNo
 0001:0004D442       DbiGetSesInfo
 0001:0004D454       DbiGetSysConfig
 0001:0004D44E       DbiGetSysInfo
 0001:0004D45A       DbiGetSysVersion
 0001:0004D490       DbiGetTableOpenCount
 0001:0004D4C0       DbiGetTableTypeDesc
 0001:0004D1F0       DbiGetTimeFormat
 0001:0004CE1E       DbiGetTranInfo
 0001:0004C986       DbiGetVchkDesc
 0001:0004C704       DbiImportODBC
 0001:0004AEDC       DbiInit
 0001:0004E8E6       DbiInitFn
 0001:0004D3A0       DbiInitRecord
 0001:0004D61C       DbiInsertRecord
 0001:0004D56E       DbiIsRecordLocked
 0001:0004D568       DbiIsTableLocked
 0001:0004D562       DbiIsTableShared
 0001:0004D580       DbiLinkDetail
 0001:0004D55C       DbiLinkDetailToExp
 0001:0004D496       DbiLoadDriver
 0001:0004CA34       DbiMakePermanent
 0001:0004D616       DbiModifyRecord
 0001:0004CA2E       DbiNativeToAnsi
 0001:0004D48A       DbiOpenBlob
 0001:0004CA52       DbiOpenCfgInfoList
 0001:0004CA4C       DbiOpenConfigFile
 0001:0004D670       DbiOpenDatabase
 0001:0004D4D2       DbiOpenDatabaseList
 0001:0004D4DE       DbiOpenDriverList
 0001:0004D5BC       DbiOpenFamilyList
 0001:0004D5D4       DbiOpenFieldList
 0001:0004D4BA       DbiOpenFieldTypesList
 0001:0004C998       DbiOpenFieldXlt
 0001:0004D5E0       DbiOpenFileList
 0001:0004C7B2       DbiOpenFunctionArgList
 0001:0004C7B8       DbiOpenFunctionList
 0001:0004D3D6       DbiOpenIndex
 0001:0004D5DA       DbiOpenIndexList
 0001:0004D4AE       DbiOpenIndexTypesList
 0001:0004D5CE       DbiOpenLdList
 0001:0004D4F0       DbiOpenLockList
 0001:0004C75E       DbiOpenRepositoryList
 0001:0004D5C2       DbiOpenRintList
 0001:0004D5A4       DbiOpenSecurityList
 0001:0004C740       DbiOpenSessionRepository
 0001:0004C926       DbiOpenSPList
 0001:0004C920       DbiOpenSPParamList
 0001:0004D664       DbiOpenTable
 0001:0004D5E6       DbiOpenTableList
 0001:0004D4C6       DbiOpenTableTypesList
 0001:0004D4F6       DbiOpenUserList
 0001:0004D5C8       DbiOpenVchkList
 0001:0004D33A       DbiPackTable
 0001:0004D478       DbiPutBlob
 0001:0004D3E8       DbiPutField
 0001:0004D400       DbiQAlloc
 0001:0004D418       DbiQExec
 0001:0004D424       DbiQExecDirect
 0001:0004C90E       DbiQExecProcDirect
 0001:0004D406       DbiQFree
 0001:0004D3FA       DbiQGetBaseDescs
 0001:0004D40C       DbiQInstantiateAnswer
 0001:0004D41E       DbiQPrepare
 0001:0004C908       DbiQPrepareExt
 0001:0004C91A       DbiQPrepareProc
 0001:0004D412       DbiQSetParams
 0001:0004C914       DbiQSetProcParams
 0001:0004D598       DbiReadBlock
 0001:0004D32E       DbiRegenIndex
 0001:0004D328       DbiRegenIndexes
 0001:0004D3F4       DbiRegisterCallBack
 0001:0004D538       DbiRelPersistTableLock
 0001:0004D544       DbiRelRecordLock
 0001:0004D54A       DbiRelTableLock
 0001:0004D382       DbiRenameTable
 0001:0004D5FE       DbiResetRange
 0001:0004D532       DbiSaveChanges
 0001:0004C728       DbiSchemaCacheFlush
 0001:0004D514       DbiSetCurrSession
 0001:0004D1F6       DbiSetDateFormat
 0001:0004C758       DbiSetDefaultRepository
 0001:0004D5EC       DbiSetDirectory
 0001:0004D30A       DbiSetFieldMap
 0001:0004D4E4       DbiSetLockRetry
 0001:0004D1DE       DbiSetNumberFormat
 0001:0004D4EA       DbiSetPrivateDir
 0001:0004CA1C       DbiSetProp
 0001:0004D604       DbiSetRange
 0001:0004D1EA       DbiSetTimeFormat
 0001:0004D64C       DbiSetToBegin
 0001:0004D3B2       DbiSetToBookMark
 0001:0004D640       DbiSetToCursor
 0001:0004D646       DbiSetToEnd
 0001:0004D5F8       DbiSetToKey
 0001:0004D35E       DbiSetToRecordNo
 0001:0004D39A       DbiSetToSeqNo
 0001:0004CE18       DbiSortTable
 0001:0004C6DA       DbiSQLTextToCanEx
 0001:0004D51A       DbiStartSession
 0001:0004D3CA       DbiSwitchToIndex
 0001:0004D34C       DbiTimeDecode
 0001:0004D352       DbiTimeEncode
 0001:0004D340       DbiTimeStampDecode
 0001:0004D346       DbiTimeStampEncode
 0001:0004C9B0       DbiTranslateField
 0001:0004C9B6       DbiTranslateRecordStructure
 0001:0004D472       DbiTruncateBlob
 0001:0004CE72       DbiUndeleteRecord
 0001:0004D57A       DbiUnlinkDetail
 0001:0004D2F2       DbiUseIdleTime
 0001:0004C99E       DbiValidateProp
 0001:0004D394       DbiVerifyField
 0001:0004D592       DbiWriteBlock
 0001:00050D6C       DBLogDlg
 0001:00050A34       DBPWDlg
 0001:0005BB80       DBTables
 0002:00002E3C       dd
 0002:00000388       DDBsOnly
 0001:00029E08       DeallocateHWnd
 0002:00000008       DebugHook
 0002:000024D3       DecimalSeparator
 0001:00007C98       DecodeDate
 0001:00007A20       DecodeTime
 0002:00000000       Default8087CW
 0002:00000954       DefaultBlank
 0002:00000968       DefaultFieldClasses
 0002:0000035C       DefFontData
 0001:00005348       DefFrameProc
 0002:00000228       DefLongDayNames
 0002:000001DC       DefLongMonthNames
 0001:00005350       DefMDIChildProc
 0002:0000020C       DefShortDayNames
 0002:000001AC       DefShortMonthNames
 0001:00005358       DefWindowProc
 0001:00004E70       DeleteCriticalSection
 0001:000050D8       DeleteDC
 0001:000050E0       DeleteEnhMetaFile
 0001:00005360       DeleteMenu
 0001:000050E8       DeleteObject
 0001:00005368       DestroyCursor
 0001:00005370       DestroyIcon
 0001:00005378       DestroyMenu
 0001:00005380       DestroyWindow
 0002:00002E34       dfin
 0001:00035DDC       Dialogs
 0002:00002E2C       din
 0001:00029730       DisableTaskWindows
 0001:00005388       DispatchMessage
 0001:00043A9C       DisposeMem
 0001:00006524       DisposeStr
 0001:000063BC       DivMod
 0001:00035024       Dlgs
 0001:0001C574       DocumentProperties
 0001:00007ACC       DoEncodeDate
 0001:00007968       DoEncodeTime
 0001:00006450       DoExitProc
 0001:00029BD4       DoneCtl3D
 0001:0000AC2C       DoneExceptions
 0001:000614E8       DoneUnit
 0001:00060D20       DrawCellText
 0001:00005390       DrawEdge
 0001:00005398       DrawFocusRect
 0001:000053A0       DrawFrameControl
 0001:000053A8       DrawIcon
 0001:000053B0       DrawMenuBar
 0001:000053B8       DrawText
 0001:0005BD7C       DsgnIntf
 0001:0004C6C8       DsProviderGetDataPacket
 0001:0004C6C2       DsResolver
 0002:00001764       Dummy
 0001:00052CE4       EDBEngineError.Create
 0001:00052FBC       EDBEngineError.Destroy
 0001:00053014       EDBEngineError.GetError
 0002:00001748       edit_cap
 0002:00001728       edit_str
 0001:000053C0       EmptyClipboard
 0002:00000108       EmptyStr
 0001:000053C8       EnableMenuItem
 0001:000297E0       EnableTaskWindows
 0001:000053D0       EnableWindow
 0001:00007C1C       EncodeDate
 0001:000050F0       EndDoc
 0001:0000E46C       EndGlobalLoading
 0001:000050F8       EndPage
 0001:000053D8       EndPaint
 0001:00004E78       EnterCriticalSection
 0001:00004E80       EnumCalendarInfoA
 0001:000053E0       EnumClipboardFormats
 0001:00009914       EnumEraNames
 0001:00009970       EnumEraYearOffsets
 0001:00005100       EnumFontFamiliesEx
 0001:00005108       EnumFonts
 0001:0001C57C       EnumPrinters
 0001:000053E8       EnumThreadWindows
 0001:000053F0       EnumWindows
 0001:0000A4C8       EOutOfMemory.Destroy
 0001:0000A4EC       EOutOfMemory.FreeInstance
 0001:000053F8       EqualRect
 0002:00002598       EraNames
 0001:00008EA8       EraToYear
 0002:000025B4       EraYearOffsets
 0001:0004AED4       ErrCat
 0002:00002038       ErrorAddr
 0001:0000A62C       ErrorHandler
 0002:00000244       ErrorMap
 0002:00002004       ErrorProc
 0001:0000A0D0       ExceptAddr
 0002:00002008       ExceptClsProc
 0001:0000AB40       ExceptHandler
 0001:0000A400       Exception.Create
 0001:0000A440       Exception.CreateFmt
 0002:00002010       ExceptionClass
 0001:0000A10C       ExceptionErrorMessage
 0002:0000027C       ExceptMap
 0001:0000A0A0       ExceptObject
 0002:0000200C       ExceptObjProc
 0002:00002000       ExceptProc
 0001:00005110       ExcludeClipRect
 0002:00002030       ExitCode
 0002:00002034       ExitProc
 0002:00000174       ExitProcList
 0001:00005118       ExtCreatePen
 0001:00034FEC       ExtCtrls
 0001:00043AC8       ExtractFieldName
 0001:00006C60       ExtractFileExt
 0001:00006C14       ExtractFileName
 0001:00005120       ExtTextOut
 0001:00004E88       FatalAppExitA
 0001:00006A90       FileClose
 0001:000069C0       FileCreate
 0002:00002042       FileMode
 0001:00006970       FileOpen
 0001:000069F4       FileRead
 0001:00006A64       FileSeek
 0001:00006A2C       FileWrite
 0001:00005400       FillRect
 0001:00050E14       Finalization
 0001:00050D3C       Finalization
 0001:00050A04       Finalization
 0001:00004B8C       Finalization
 0001:0004EAC8       Finalization
 0001:0005BB10       Finalization
 0001:0005BBFC       Finalization
 0001:0005BD0C       Finalization
 0001:000615C0       Finalization
 0001:00063494       Finalization
 0001:00050558       Finalization
 0001:0004AE9C       Finalization
 0001:00041188       Finalization
 0001:00040FD0       Finalization
 0001:00038DCC       Finalization
 0001:00036394       Finalization
 0001:00035D80       Finalization
 0001:00034FF4       Finalization
 0001:00034FBC       Finalization
 0001:00033C04       Finalization
 0001:00030B7C       Finalization
 0001:00030B00       Finalization
 0001:00063E50       Finalization
 0001:000504F0       Finalization
 0001:00063EA8       Finalization
 0001:0002847C       Finalization
 0001:00004DE0       Finalization
 0001:000262CC       Finalization
 0001:00050488       Finalization
 0001:00014248       Finalization
 0001:0001D410       Finalization
 0001:0001C58C       Finalization
 0001:0001C534       Finalization
 0001:0000CE54       Finalization
 0001:0001C4FC       Finalization
 0001:0001C284       Finalization
 0001:0000C998       Finalization
 0001:0000C5E0       Finalization
 0001:0000C424       Finalization
 0001:00005884       Finalization
 0001:000058BC       Finalization
 0001:0000DFB4       FindClass
 0001:00003FDC       FindClassHInstance
 0001:00004E90       FindClose
 0001:0001E5E4       FindControl
 0001:0001EFB4       FindDragTarget
 0001:00004E98       FindFirstFileA
 0002:000025EC       FindGlobalComponent
 0001:00003FB4       FindHInstance
 0001:00004EA0       FindResource
 0001:00003FE8       FindResourceHInstance
 0001:0001EF80       FindVCLWindow
 0001:0000C094       FloatToDecimal
 0001:000075C0       FloatToStr
 0001:00007620       FloatToStrF
 0001:0000B956       FloatToText
 0001:0000BCBF       FloatToTextFmt
 0002:000001A0       FMSecsPerDay
 0001:0004ECA4       FMTBCDToCurr
 0001:000074A4       FmtStr
 0002:00001754       font_str
 0001:000298F8       ForegroundTask
 0002:00002808       Form1
 0001:0000747C       Format
 0002:000001A8       Format
 0001:000070A0       FormatBuf
 0001:0000708C       FormatClearStr
 0001:00007738       FormatCurr
 0001:00006FF8       FormatError
 0002:00000198       FormatErrorStrs
 0001:00007698       FormatFloat
 0001:00036F4C       FormatMaskText
 0001:00004EA8       FormatMessage
 0001:00007070       FormatVarToStr
 0001:00030B54       Forms
 0001:000048B8       FPower10
 0001:000346BC       Frame3D
 0001:00005408       FrameRect
 0001:00004EB0       FreeLibrary
 0001:00019854       FreeMemoryContexts
 0001:00029D28       FreeObjectInstance
 0001:00004EC8       FreeResource
 0001:0000B670       FreeTerminateProcs
 0001:0000B7BC       GDAL
 0001:00005410       GetActiveWindow
 0001:00005128       GetBitmapBits
 0001:00005130       GetBrushOrgEx
 0001:00005418       GetCapture
 0001:0001E858       GetCaptureControl
 0001:0000DF4C       GetClass
 0001:00005420       GetClassInfo
 0001:00005428       GetClientRect
 0001:00005430       GetClipboardData
 0001:00005138       GetClipBox
 0001:00007FA0       GetCount
 0001:00004ED0       GetCPInfo
 0001:00004ED8       GetCurrentDirectoryA
 0001:00005140       GetCurrentPositionEx
 0001:00004EE0       GetCurrentProcessId
 0001:00004EE8       GetCurrentThreadId
 0001:00005438       GetCursor
 0001:00005440       GetCursorPos
 0001:00007FEC       GetDate
 0001:00004EF0       GetDateFormat
 0001:00008D6C       GetDateOrder
 0001:00005448       GetDC
 0001:00005450       GetDCEx
 0001:0001C188       GetDefFontCharSet
 0001:00005458       GetDesktopWindow
 0001:00005158       GetDeviceCaps
 0001:00017E78       GetDIB
 0001:00005148       GetDIBColorTable
 0001:00005150       GetDIBits
 0001:00017DC0       GetDIBSizes
 0001:00005460       GetDoubleClickTime
 0001:00005160       GetEnhMetaFileBits
 0001:00005168       GetEnhMetaFileHeader
 0001:00005170       GetEnhMetaFilePaletteEntries
 0001:0000C9DC       GetEnumValue
 0001:000099DC       GetEraNamesAndYearOffsets
 0001:00008E44       GetEraYearOffset
 0001:0000A874       GetExceptionClass
 0001:0000AA70       GetExceptionObject
 0001:00005468       GetFocus
 0001:00005470       GetForegroundWindow
 0001:00009D3C       GetFormatSettings
 0001:00005478       GetIconInfo
 0001:0005D218       GetItemCell
 0001:0005D118       GetItemCol
 0001:00005490       GetKeyboardLayout
 0001:00005498       GetKeyboardLayoutList
 0001:000054A0       GetKeyboardState
 0001:00005480       GetKeyNameText
 0001:00005488       GetKeyState
 0001:000054A8       GetLastActivePopup
 0001:00004EF8       GetLastError
 0001:0000972C       GetLocaleChar
 0001:00004F08       GetLocaleInfo
 0001:000096C8       GetLocaleStr
 0001:00004F00       GetLocalTime
 0001:0001E814       GetLongHint
 0001:000054B0       GetMenu
 0001:000054B8       GetMenuItemCount
 0001:000054C0       GetMenuState
 0001:000054C8       GetMenuString
 0001:000054D0       GetMessageTime
 0001:00004F10       GetModuleFileName
 0001:00004F20       GetModuleHandle
 0001:00004F18       GetModuleHandleA
 0001:000097AC       GetMonthDayNames
 0001:00005178       GetObject
 0001:0000CAE8       GetOrdProp
 0001:00005180       GetPaletteEntries
 0001:000054D8       GetParent
 0001:00029F60       GetParentForm
 0001:00005188       GetPixel
 0001:00004F28       GetProcAddress
 0001:00004F30       GetProfileString
 0001:000054E0       GetProp
 0001:0000CA28       GetPropInfo
 0001:0000CA94       GetPropInfos
 0001:000054E8       GetScrollPos
 0001:000054F0       GetScrollRange
 0001:0001E7D0       GetShortHint
 0001:00005190       GetStockObject
 0001:000054F8       GetSubMenu
 0001:00005500       GetSysColor
 0001:00004F38       GetSystemInfo
 0001:00005508       GetSystemMenu
 0001:00005510       GetSystemMetrics
 0001:00005198       GetSystemPaletteEntries
 0001:000051A0       GetTextExtentPoint
 0001:000051A8       GetTextMetrics
 0001:00004F40       GetThreadLocale
 0001:00004F48       GetTickCount
 0001:00008024       GetTime
 0001:0000C9D0       GetTypeData
 0001:00004F50       GetVersion
 0001:00004F58       GetVersionEx
 0001:00005518       GetWindow
 0001:00005520       GetWindowDC
 0001:00005528       GetWindowLong
 0001:000051B8       GetWindowOrgEx
 0001:00005530       GetWindowPlacement
 0001:00005538       GetWindowRect
 0001:00005540       GetWindowRgn
 0001:00005548       GetWindowText
 0001:00005550       GetWindowThreadProcessId
 0001:000051B0       GetWinMetaFileBits
 0001:00004F60       GlobalAddAtom
 0001:00004F68       GlobalAlloc
 0001:000057D8       GlobalAllocPtr
 0001:00004F70       GlobalDeleteAtom
 0001:000115D8       GlobalFixupReferences
 0001:00004F78       GlobalFree
 0001:00005804       GlobalFreePtr
 0001:00004F88       GlobalHandle
 0001:00004F80       GlobalLock
 0001:00004F90       GlobalReAlloc
 0001:000057E8       GlobalReAllocPtr
 0001:00004F98       GlobalSize
 0001:00004FA0       GlobalUnlock
 0001:0001C34C       Graphics
 0001:00041000       Grids
 0002:00000004       HeapAllocFlags
 0001:000057CC       HiByte
 0002:000024B8       HInstance
 0002:00000794       HintWindowClass
 0001:00015A60       IdentToCharset
 0001:00015858       IdentToColor
 0001:0001E7C0       IdentToCursor
 0001:0000E308       IdentToInt
 0002:00001760       IdleProcs
 0001:0001C450       ImageList_Add
 0001:0001C470       ImageList_AddIcon
 0001:0001C49C       ImageList_BeginDrag
 0001:0001C438       ImageList_Create
 0001:0001C440       ImageList_Destroy
 0001:0001C4AC       ImageList_DragEnter
 0001:0001C4B4       ImageList_DragLeave
 0001:0001C4BC       ImageList_DragMove
 0001:0001C4CC       ImageList_DragShowNolock
 0001:0001C47C       ImageList_Draw
 0001:0001C48C       ImageList_DrawEx
 0001:0001C4A4       ImageList_EndDrag
 0001:0001C468       ImageList_GetBkColor
 0001:0001C4D4       ImageList_GetDragImage
 0001:0001C4E4       ImageList_GetIconSize
 0001:0001C448       ImageList_GetImageCount
 0001:0001C4F4       ImageList_GetImageInfo
 0001:0001C4DC       ImageList_Read
 0001:0001C494       ImageList_Remove
 0001:0001C484       ImageList_Replace
 0001:0001C458       ImageList_ReplaceIcon
 0001:0001C460       ImageList_SetBkColor
 0001:0001C4C4       ImageList_SetDragCursorImage
 0001:0001C4EC       ImageList_SetIconSize
 0001:0001C564       Imm
 0001:00026158       Imm32IsIME
 0002:000001A4       IMSecsPerDay
 0002:00002E44       in1
 0001:00005558       InflateRect
 0001:0002999C       InitCtl3D
 0001:0000AB68       InitExceptions
 0001:00004FA8       InitializeCriticalSection
 0001:0000E548       InitInheritedComponent
 0001:0000AC94       InitPlatformId
 0002:0000202C       InitProc
 0001:0000B45C       InitSysLocale
 0001:0001E52C       InitWndProc
 0002:00002048       Input
 0001:00035C00       InputBox
 0001:00035914       InputQuery
 0001:00005560       InsertMenu
 0001:00005568       InsertMenuItem
 0001:00004EB8       InterlockedDecrement
 0001:00004EC0       InterlockedIncrement
 0001:000051C0       IntersectClipRect
 0001:00005570       IntersectRect
 0001:0000E348       IntToIdent
 0001:0000688C       IntToStr
 0001:00005578       InvalidateRect
 0002:000025D8       InvalidPointer
 0001:00029EC0       IsAccel
 0001:00005580       IsCharAlpha
 0001:00005588       IsCharAlphaNumeric
 0002:00002040       IsConsole
 0001:00004FB0       IsDBCSLeadByte
 0001:00005590       IsDialogMessage
 0001:00005598       IsIconic
 0001:00007A80       IsLeapYear
 0002:00002020       IsLibrary
 0002:00002041       IsMultiThread
 0001:000055A0       IsRectEmpty
 0001:00006810       IsValidIdent
 0001:000055A8       IsWindow
 0001:000055B0       IsWindowEnabled
 0001:000055B8       IsWindowVisible
 0001:000055C0       IsZoomed
 0001:00029E84       KeyDataToShiftState
 0001:00029E30       KeysToShiftState
 0001:000055C8       KillTimer
 0001:00006AEC       LastDelimiter
 0002:00000154       LeadBytes
 0001:00004FB8       LeaveCriticalSection
 0002:0000000C       LibModuleList
 0001:000051C8       LineTo
 0001:000055D0       LoadCursor
 0001:000055D8       LoadIcon
 0001:00004FC8       LoadLibrary
 0001:00004FC0       LoadLibraryA
 0001:00004FD0       LoadResource
 0001:00004004       LoadResourceModule
 0001:00004328       LoadResString
 0001:000055E0       LoadString
 0001:00009768       LocalGetLocaleStr
 0001:00004FD8       LockResource
 0001:00050BCC       LoginDialogEx
 0002:000024DC       LongDateFormat
 0002:00002570       LongDayNames
 0002:00002524       LongMonthNames
 0002:000024F0       LongTimeFormat
 0002:0000201C       MainInstance
 0002:000025E8       MainThreadID
 0001:000057C0       MakeLong
 0001:00029C90       MakeObjectInstance
 0001:00005818       MakeROP4
 0001:0000A7C0       MapException
 0001:000055E8       MapVirtualKey
 0001:000055F0       MapWindowPoints
 0001:00038DFC       Mask
 0001:000051D0       MaskBlt
 0002:00000958       MaskFieldSeparator
 0001:00036AA4       MaskGetMaskBlank
 0001:00036A18       MaskGetMaskSave
 0002:0000095C       MaskNoSave
 0001:000284D8       Menus
 0001:000055F8       MessageBeep
 0001:00005600       MessageBox
 0001:000058EC       Messages
 0001:00063EA0       ml980726
 0002:000024AC       ModuleIsLib
 0002:00000010       ModuleUnloadList
 0002:00000124       MonthDays
 0001:00001890       Move
 0001:0005D1D0       MoveItemCol
 0001:0005D350       MoveItemColRow
 0001:000051D8       MoveToEx
 0001:0001F040       MoveWindowOrg
 0001:00007940       MSecsToTimeStamp
 0001:00004FE0       MulDiv
 0002:00002E24       n1
 0001:00052948       NativeToAnsi
 0001:000529B4       NativeToAnsiBuf
 0002:000024D1       NegCurrFormat
 0001:000064E4       NewStr
 0002:0000266C       NewStyleControls
 0001:0000E43C       NotifyGlobalLoading
 0002:000023F0       Null
 0002:0000010C       NullStr
 0001:00005608       OemToAnsi
 0001:00005610       OemToChar
 0001:00005618       OemToCharBuff
 0001:00005620       OffsetRect
 0001:0000325C       OleStrToStrVar
 0001:00005628       OpenClipboard
 0001:00004FE8       OpenFileMapping
 0001:0001C584       OpenPrinter
 0001:0004CEFC       OsLdAnsiCharToOem
 0001:0004CF14       OsLdAnsiToOem
 0001:0004CA88       OsLdBuildCharSetXform
 0001:0004CED8       OsLdCharToLower
 0001:0004CEDE       OsLdCharToUpper
 0001:0004CF74       OsLdExit
 0001:0004CBC6       OsLdExStrCmp
 0001:0004CF20       OsLdGetCodePage
 0001:0004CF7A       OsLdGetDefaultObj
 0001:0004CED2       OsLdGetDescName
 0001:0004CBD8       OsLdGetDriverId
 0001:0004CF1A       OsLdGetFName
 0001:0004CC1A       OsLdGetFuncAddrLdStrnCmpi_
 0001:0004CC5C       OsLdGetFuncAddrLdStrnColli_
 0001:0004CC56       OsLdGetFuncAddrLdStrnColl_
 0001:0004CEA8       OsLdGetMinMax
 0001:0004CEAE       OsLdGetProductID
 0001:0004CF26       OsLdGetSortsig
 0001:0004CF2C       OsLdGetSymbName
 0001:0004CF80       OsLdInit
 0001:0004CEEA       OsLdIsAlpha
 0001:0004CF08       OsLdIsAnsiCharInOemCp
 0001:0004CEE4       OsLdIsDigit
 0001:0004CF02       OsLdIsOemCharInAnsiCp
 0001:0004CBD2       OsLdLoadByDriverId
 0001:0004CF68       OsLdLoadByFName
 0001:0004CEBA       OsLdLoadByLCID
 0001:0004CF6E       OsLdLoadBySortSig
 0001:0004CF62       OsLdLoadBySymbName
 0001:0004CEF6       OsLdOemCharToAnsi
 0001:0004CF0E       OsLdOemToAnsi
 0001:0004CEB4       OsLdSearchEnd
 0001:0004CECC       OsLdSearchInit
 0001:0004CEC6       OsLdSearchNext
 0001:0004CEA2       OsLdSetConvChars
 0001:0004CF56       OsLdStrCmp
 0001:0004CF44       OsLdStrCmpi
 0001:0004CF5C       OsLdStrnCmp
 0001:0004CF3E       OsLdStrnCmpi
 0001:0004CBC0       OsLdStrnColl
 0001:0004CBA2       OsLdStrnColli
 0001:0004CF4A       OsLdStrnToLower
 0001:0004CF32       OsLdStrnToUpper
 0001:0004CF50       OsLdStrToLower
 0001:0004CF38       OsLdStrToUpper
 0001:0004CEF0       OsLdUnloadObj
 0002:000025D4       OutOfMemory
 0002:00002214       Output
 0001:00015434       PaletteChanged
 0001:00050788       PasswordDialog
 0001:000051E0       PatBlt
 0001:00005630       PeekMessage
 0001:000051E8       PlayEnhMetaFile
 0001:0000DE6C       Point
 0001:00005838       PointToSmallPoint
 0001:000051F8       Polyline
 0001:000051F0       PolyPolyline
 0001:00005638       PostMessage
 0001:00005640       PostQuitMessage
 0001:00030B74       PrintDlg
 0001:0001D3EC       Printer
 0001:0001D44C       Printers
 0001:00005648       PtInRect
 0001:0000B548       RaiseLastWin32Error
 0002:0000203C       RandSeed
 0001:00004FF0       ReadFile
 0001:00005200       RealizePalette
 0001:0000DE84       Rect
 0001:00005210       Rectangle
 0001:00005208       RectVisible
 0001:00004E18       RegCloseKey
 0001:0000E0A4       RegisterClass
 0001:00005650       RegisterClass
 0001:0000E194       RegisterClasses
 0001:00005658       RegisterClipboardFormat
 0001:0000E2D8       RegisterIntegerConsts
 0001:000042A8       RegisterModule
 0001:00005660       RegisterWindowMessage
 0001:0005BC44       Registry
 0001:00004E28       RegOpenKeyEx
 0001:00004E20       RegOpenKeyExA
 0001:00004E38       RegQueryValueEx
 0001:00004E30       RegQueryValueExA
 0001:00005668       ReleaseCapture
 0001:00005670       ReleaseDC
 0001:00004FF8       ReleaseMutex
 0001:00011760       RemoveFixupReferences
 0001:000117C8       RemoveFixups
 0001:00005678       RemoveMenu
 0001:000041E8       RemoveModuleUnloadProc
 0001:00005680       RemoveProp
 0001:0006147C       RemoveShowHintProc
 0001:00005218       RestoreDC
 0001:0000A39C       ReturnAddr
 0001:00005220       SaveDC
 0001:00008B74       ScanBlanks
 0001:00008D14       ScanChar
 0001:00008F3C       ScanDate
 0001:00008BBC       ScanNumber
 0001:00008C74       ScanString
 0001:00009298       ScanTime
 0001:00008DDC       ScanToNumber
 0002:000026EC       Screen
 0001:00005688       ScreenToClient
 0001:00005690       ScrollWindow
 0001:00005698       ScrollWindowEx
 0001:00005000       SearchPathA
 0001:00005228       SelectObject
 0001:00005230       SelectPalette
 0001:0001E600       SendAppMessage
 0001:000056A0       SendMessage
 0002:00002798       Session
 0002:0000279C       Sessions
 0001:00005238       SetAbortProc
 0001:000056A8       SetActiveWindow
 0001:00029C20       SetAutoSubClass
 0001:00005240       SetBkColor
 0001:00005248       SetBkMode
 0001:00005250       SetBrushOrgEx
 0001:000056B0       SetCapture
 0001:0001E880       SetCaptureControl
 0001:000056B8       SetClipboardData
 0001:000056C0       SetCursor
 0001:00005258       SetDIBColorTable
 0001:00005008       SetEndOfFile
 0001:00005260       SetEnhMetaFileBits
 0001:00005010       SetErrorMode
 0001:00005018       SetEvent
 0001:00005020       SetFilePointer
 0001:0000CD84       SetFloatProp
 0001:000056C8       SetFocus
 0001:000056D0       SetForegroundWindow
 0001:0002607C       SetImeMode
 0001:0005D27C       SetItemCell
 0001:0005D158       SetItemCol
 0001:000056D8       SetKeyboardState
 0001:000056E0       SetMenu
 0001:0000CE1C       SetMethodProp
 0001:0000CB5C       SetOrdProp
 0001:000056E8       SetProp
 0001:000056F0       SetRect
 0001:00005268       SetROP2
 0001:000056F8       SetScrollInfo
 0001:00005700       SetScrollPos
 0001:00005708       SetScrollRange
 0001:00005270       SetStretchBltMode
 0001:0000CD50       SetStrProp
 0001:00005278       SetTextColor
 0001:00005028       SetThreadLocale
 0001:00005710       SetTimer
 0001:00005280       SetViewportOrgEx
 0001:00005718       SetWindowLong
 0001:00005290       SetWindowOrgEx
 0001:00005720       SetWindowPlacement
 0001:00005728       SetWindowPos
 0001:00005740       SetWindowRgn
 0001:00005738       SetWindowsHookEx
 0001:00005730       SetWindowText
 0001:00005288       SetWinMetaFileBits
 0002:00000184       ShareMode
 0001:00026A20       ShortCutToText
 0002:000024D8       ShortDateFormat
 0002:00002554       ShortDayNames
 0002:000024F4       ShortMonthNames
 0002:000024EC       ShortTimeFormat
 0001:00005748       ShowCursor
 0001:0000A2CC       ShowException
 0002:0000175C       ShowHintProcs
 0001:00005750       ShowOwnedPopups
 0001:00005758       ShowWindow
 0001:00005030       SizeofResource
 0001:0000DE74       SmallPoint
 0001:00005824       SmallPointToPoint
 0001:00050520       SMIntf
 0001:00005298       StartDoc
 0001:000052A0       StartPage
 0001:00033C34       StdCtrls
 0001:00050588       StdVCL
 0001:00006F30       StrAlloc
 0001:00006F64       StrBufSize
 0001:0000ADC8       StrByteType
 0001:00006E10       StrComp
 0001:00006D28       StrCopy
 0001:00006FD4       StrDispose
 0001:00006D50       StrECopy
 0001:00006CD8       StrEnd
 0001:000052A8       StretchBlt
 0001:000052B0       StretchDIBits
 0001:000073F0       StrFmt
 0001:00006E34       StrIComp
 0001:00003284       StringToOleStr
 0001:00006D7C       StrLCopy
 0001:00006CC0       StrLen
 0001:00007438       StrLFmt
 0001:00006E74       StrLIComp
 0001:00006CEC       StrMove
 0001:00006F8C       StrNew
 0001:00006DB0       StrPCopy
 0001:00006DE0       StrPLCopy
 0001:00006EDC       StrPos
 0001:00006EBC       StrScan
 0001:00007854       StrToCurr
 0001:00009474       StrToDate
 0001:0000958C       StrToDateTime
 0001:000077D8       StrToFloat
 0001:000068C4       StrToInt
 0001:00006940       StrToIntDef
 0001:00009500       StrToTime
 0001:00029BF8       Subclass3DDlg
 0002:0000280C       subtot
 0001:0000965C       SysErrorMessage
 0001:00001314       SysFreeMem
 0001:0000118C       SysGetMem
 0001:00004E10       SysInit
 0002:0000258C       SysLocale
 0001:00001694       SysReallocMem
 0001:00004BEC       System
 0002:00002600       SystemPalette16
 0001:00005760       SystemParametersInfo
 0001:0000C564       SysUtils
 0002:000027D0       t
 0001:0002F954       TApplication.BringToFront
 0001:000305D4       TApplication.CancelHint
 0001:0002EF4C       TApplication.ControlDestroyed
 0001:0002EB70       TApplication.Create
 0001:0002FCA8       TApplication.CreateForm
 0001:0002EDC4       TApplication.CreateHandle
 0001:0002ECEC       TApplication.Destroy
 0001:0002F990       TApplication.GetTitle
 0001:0002FDFC       TApplication.HandleException
 0001:0002FBA0       TApplication.HandleMessage
 0001:00030110       TApplication.HelpCommand
 0001:00030104       TApplication.HelpContext
 0001:00030598       TApplication.HideHint
 0001:000304A8       TApplication.HintMouseMessage
 0001:0002FBB8       TApplication.HookMainWindow
 0001:0002FC90       TApplication.Initialize
 0001:0002FE8C       TApplication.MessageBox
 0001:0002F884       TApplication.Minimize
 0001:0002F0B8       TApplication.NormalizeAllTopMosts
 0001:0002F0B0       TApplication.NormalizeTopMosts
 0001:0002FB90       TApplication.ProcessMessages
 0001:0002F8CC       TApplication.Restore
 0001:0002F0C0       TApplication.RestoreTopMosts
 0001:0002FD34       TApplication.Run
 0001:00030364       TApplication.SetHint
 0001:00030118       TApplication.SetShowHint
 0001:0002FF00       TApplication.ShowException
 0001:0002FDE8       TApplication.Terminate
 0001:0002FC14       TApplication.UnhookMainWindow
 0001:00046134       TAutoIncField.Create
 0001:00047278       TBCDField.CheckTypeSize
 0001:000471D8       TBCDField.Create
 0001:000472C8       TBCDField.GetAsCurrency
 0001:000472F0       TBCDField.GetAsFloat
 0001:00047320       TBCDField.GetAsInteger
 0001:0004734C       TBCDField.GetAsString
 0001:00047384       TBCDField.GetAsVariant
 0001:000473C0       TBCDField.GetDataSize
 0001:000473C8       TBCDField.GetDefaultWidth
 0001:000473E4       TBCDField.GetText
 0001:00047520       TBCDField.GetValue
 0001:000475E8       TBCDField.SetAsCurrency
 0001:000476A4       TBCDField.SetAsFloat
 0001:000476C4       TBCDField.SetAsInteger
 0001:000476F0       TBCDField.SetAsString
 0001:000477A8       TBCDField.SetCurrency
 0001:000477C4       TBCDField.SetMaxValue
 0001:000477E4       TBCDField.SetMinValue
 0001:00047804       TBCDField.SetVarValue
 0001:00052738       TBDECallback.Create
 0001:000527D0       TBDECallback.Destroy
 0001:00052878       TBDECallback.Invoke
 0001:00057FB4       TBDEDataSet.ActivateFilters
 0001:00056ED0       TBDEDataSet.AddFieldDesc
 0001:0005903C       TBDEDataSet.AllocCachedUpdateBuffers
 0001:00057AA8       TBDEDataSet.AllocKeyBuffers
 0001:00056A14       TBDEDataSet.AllocRecordBuffer
 0001:00057414       TBDEDataSet.BCDToCurr
 0001:000577F0       TBDEDataSet.BookmarkValid
 0001:0005936C       TBDEDataSet.CachedUpdateCallBack
 0001:00057694       TBDEDataSet.Cancel
 0001:000590C4       TBDEDataSet.CheckCachedUpdateMode
 0001:00056AD0       TBDEDataSet.ClearCalcFields
 0001:000573EC       TBDEDataSet.CloseBlob
 0001:000565A4       TBDEDataSet.CloseCursor
 0001:00057798       TBDEDataSet.CompareBookmarks
 0001:00058F7C       TBDEDataSet.ConstraintCallBack
 0001:00056440       TBDEDataSet.Create
 0001:000573C0       TBDEDataSet.CreateBlobStream
 0001:000580B8       TBDEDataSet.CreateExprFilter
 0001:00058138       TBDEDataSet.CreateFuncFilter
 0001:000565F4       TBDEDataSet.CreateHandle
 0001:0005816C       TBDEDataSet.CreateLookupFilter
 0001:00057424       TBDEDataSet.CurrToBCD
 0001:00058074       TBDEDataSet.DeactivateFilters
 0001:00056488       TBDEDataSet.Destroy
 0001:000565F8       TBDEDataSet.DestroyHandle
 0001:00058A50       TBDEDataSet.DestroyLookupCursor
 0001:00058508       TBDEDataSet.FindRecord
 0001:00059144       TBDEDataSet.ForceUpdateCallback
 0001:00057B18       TBDEDataSet.FreeKeyBuffers
 0001:00056A4C       TBDEDataSet.FreeRecordBuffer
 0001:00057760       TBDEDataSet.GetBookmarkData
 0001:00057740       TBDEDataSet.GetBookmarkFlag
 0001:00057634       TBDEDataSet.GetCanModify
 0001:00056C3C       TBDEDataSet.GetCurrentRecord
 0001:000570A4       TBDEDataSet.GetFieldData
 0001:000579D0       TBDEDataSet.GetIndexField
 0001:00057844       TBDEDataSet.GetIndexInfo
 0001:00057EFC       TBDEDataSet.GetIsIndexField
 0001:00058A4C       TBDEDataSet.GetLookupCursor
 0001:00056D5C       TBDEDataSet.GetRecNo
 0001:00056B30       TBDEDataSet.GetRecord
 0001:00056D28       TBDEDataSet.GetRecordCount
 0001:00056DF0       TBDEDataSet.GetRecordSize
 0001:00057440       TBDEDataSet.GetStateFieldValue
 0001:00057B48       TBDEDataSet.InitKeyBuffer
 0001:00056AF8       TBDEDataSet.InitRecord
 0001:000576C8       TBDEDataSet.InternalAddRecord
 0001:000576B4       TBDEDataSet.InternalCancel
 0001:000568C4       TBDEDataSet.InternalClose
 0001:000575EC       TBDEDataSet.InternalDelete
 0001:0005756C       TBDEDataSet.InternalEdit
 0001:00057534       TBDEDataSet.InternalFirst
 0001:00057704       TBDEDataSet.InternalGotoBookmark
 0001:00056978       TBDEDataSet.InternalHandleException
 0001:0005661C       TBDEDataSet.InternalInitFieldDefs
 0001:00056A80       TBDEDataSet.InternalInitRecord
 0001:00057550       TBDEDataSet.InternalLast
 0001:00056768       TBDEDataSet.InternalOpen
 0001:000575A4       TBDEDataSet.InternalPost
 0001:00057658       TBDEDataSet.InternalRefresh
 0001:00057724       TBDEDataSet.InternalSetToRecord
 0001:0005696C       TBDEDataSet.IsCursorOpen
 0001:0005761C       TBDEDataSet.IsSequenced
 0001:000589F8       TBDEDataSet.Locate
 0001:000586BC       TBDEDataSet.LocateRecord
 0001:00058960       TBDEDataSet.Lookup
 0001:00057F50       TBDEDataSet.MapsToIndex
 0001:000564C4       TBDEDataSet.OpenCursor
 0001:00057674       TBDEDataSet.Post
 0001:00057EA0       TBDEDataSet.PostKeyBuffer
 0001:00056968       TBDEDataSet.PrepareCursor
 0001:00057D7C       TBDEDataSet.ResetCursorRange
 0001:0005777C       TBDEDataSet.SetBookmarkData
 0001:00057750       TBDEDataSet.SetBookmarkFlag
 0001:00059200       TBDEDataSet.SetCachedUpdates
 0001:00057B7C       TBDEDataSet.SetCursorRange
 0001:00057144       TBDEDataSet.SetFieldData
 0001:00058364       TBDEDataSet.SetFilterData
 0001:000583FC       TBDEDataSet.SetFiltered
 0001:000582EC       TBDEDataSet.SetFilterHandle
 0001:00058468       TBDEDataSet.SetFilterOptions
 0001:000583EC       TBDEDataSet.SetFilterText
 0001:00057A84       TBDEDataSet.SetIndexField
 0001:00057DD4       TBDEDataSet.SetLinkRanges
 0001:0005698C       TBDEDataSet.SetLocale
 0001:00058480       TBDEDataSet.SetOnFilterRecord
 0001:00059570       TBDEDataSet.SetOnUpdateError
 0001:00056D8C       TBDEDataSet.SetRecNo
 0001:0005746C       TBDEDataSet.SetStateFieldValue
 0001:00059308       TBDEDataSet.SetupCallBack
 0001:000594EC       TBDEDataSet.SetUpdateObject
 0001:000578D0       TBDEDataSet.SwitchToIndex
 0001:000574DC       TBDEDataSet.Translate
 0001:00059118       TBDEDataSet.UpdateCallbackRequired
 0001:000595A8       TBDEDataSet.YieldCallBack
 0001:0003471C       TBevel.Create
 0001:000348EC       TBevel.Paint
 0001:000347A0       TBevel.SetShape
 0001:00034784       TBevel.SetStyle
 0001:00046DD4       TBinaryField.CheckTypeSize
 0001:00046DA0       TBinaryField.Create
 0001:00046E20       TBinaryField.GetAsString
 0001:00046F30       TBinaryField.GetAsVariant
 0001:000470AC       TBinaryField.GetText
 0001:00046E50       TBinaryField.SetAsString
 0001:000470FC       TBinaryField.SetText
 0001:00046FC0       TBinaryField.SetVarValue
 0001:00062DB8       TBitBtn.Click
 0001:000630D0       TBitBtn.CMEnabledChanged
 0001:000630BC       TBitBtn.CMFontChanged
 0001:00062E34       TBitBtn.CNDrawItem
 0001:00062E24       TBitBtn.CNMeasureItem
 0001:00062C90       TBitBtn.Create
 0001:00062D6C       TBitBtn.CreateHandle
 0001:00062D94       TBitBtn.CreateParams
 0001:00062D34       TBitBtn.Destroy
 0001:0006312C       TBitBtn.GetGlyph
 0001:00063300       TBitBtn.GetKind
 0001:00063388       TBitBtn.GetNumGlyphs
 0001:000630F8       TBitBtn.GetPalette
 0001:00063144       TBitBtn.IsCustom
 0001:00063284       TBitBtn.IsCustomCaption
 0001:00062DA4       TBitBtn.SetButtonStyle
 0001:0006310C       TBitBtn.SetGlyph
 0001:00063174       TBitBtn.SetKind
 0001:0006336C       TBitBtn.SetLayout
 0001:000633DC       TBitBtn.SetMargin
 0001:00063394       TBitBtn.SetNumGlyphs
 0001:000633C0       TBitBtn.SetSpacing
 0001:00063158       TBitBtn.SetStyle
 0001:000630E4       TBitBtn.WMLButtonDblClk
 0001:0001A678       TBitmap.Assign
 0001:0001A82C       TBitmap.Changed
 0001:0001A5D8       TBitmap.Create
 0001:0001A63C       TBitmap.Destroy
 0001:0001A838       TBitmap.Dormant
 0001:0001A854       TBitmap.Draw
 0001:0001AAA4       TBitmap.FreeImage
 0001:0001AB0C       TBitmap.GetCanvas
 0001:0001AAF4       TBitmap.GetEmpty
 0001:0001AB4C       TBitmap.GetHandle
 0001:0001AB70       TBitmap.GetHandleType
 0001:0001AB9C       TBitmap.GetHeight
 0001:0001ABAC       TBitmap.GetMaskHandle
 0001:0001ABC0       TBitmap.GetMonochrome
 0001:0001ABDC       TBitmap.GetPalette
 0001:0001ABF0       TBitmap.GetTransparentColor
 0001:0001AC38       TBitmap.GetWidth
 0001:0001ACC4       TBitmap.HandleNeeded
 0001:0001ADEC       TBitmap.LoadFromClipboardFormat
 0001:0001AED0       TBitmap.LoadFromResourceName
 0001:0001AEAC       TBitmap.LoadFromStream
 0001:0001ACD4       TBitmap.MaskHandleNeeded
 0001:0001AD34       TBitmap.PaletteNeeded
 0001:0001B01C       TBitmap.ReadData
 0001:0001BB68       TBitmap.SaveToClipboardFormat
 0001:0001BB60       TBitmap.SaveToStream
 0001:0001B4F0       TBitmap.SetHandle
 0001:0001B5B0       TBitmap.SetHandleType
 0001:0001B6E4       TBitmap.SetHeight
 0001:0001B738       TBitmap.SetMonochrome
 0001:0001B7B8       TBitmap.SetPalette
 0001:0001B88C       TBitmap.SetTransparentColor
 0001:0001B8DC       TBitmap.SetWidth
 0001:0001B930       TBitmap.WriteData
 0001:00019B90       TBitmapImage.Destroy
 0001:00019BE0       TBitmapImage.FreeHandle
 0001:0000EC14       TBits.Destroy
 0001:0000ED80       TBits.GetBit
 0001:0000ED98       TBits.OpenBit
 0001:0000ED54       TBits.SetBit
 0001:0000ECA4       TBits.SetSize
 0001:0004789C       TBlobField.Assign
 0001:00047938       TBlobField.AssignTo
 0001:000479AC       TBlobField.Clear
 0001:00047860       TBlobField.Create
 0001:000479CC       TBlobField.FreeBuffers
 0001:000479F0       TBlobField.GetAsString
 0001:00047A60       TBlobField.GetAsVariant
 0001:00047AB0       TBlobField.GetBlobSize
 0001:00047B08       TBlobField.GetBlobType
 0001:00047B0C       TBlobField.GetIsNull
 0001:00047B80       TBlobField.GetModified
 0001:00047BA0       TBlobField.GetText
 0001:00047BF0       TBlobField.IsBlob
 0001:00047DF0       TBlobField.SaveToStream
 0001:00047E9C       TBlobField.SetAsString
 0001:00047EF8       TBlobField.SetBlobType
 0001:00047F0C       TBlobField.SetFieldType
 0001:00047F20       TBlobField.SetModified
 0001:00047F3C       TBlobField.SetText
 0001:00047F6C       TBlobField.SetVarValue
 0001:0005B458       TBlobStream.Create
 0001:0005B638       TBlobStream.Destroy
 0001:0005B704       TBlobStream.Read
 0001:0005BA00       TBlobStream.Seek
 0001:0005BA38       TBlobStream.Truncate
 0001:0005B8E0       TBlobStream.Write
 0001:0004664C       TBooleanField.Create
 0001:00046690       TBooleanField.GetAsBoolean
 0001:000466B8       TBooleanField.GetAsString
 0001:000466FC       TBooleanField.GetAsVariant
 0001:0004673C       TBooleanField.GetDataSize
 0001:00046744       TBooleanField.GetDefaultWidth
 0001:000467B0       TBooleanField.SetAsBoolean
 0001:000467D4       TBooleanField.SetAsString
 0001:00046914       TBooleanField.SetDisplayValues
 0001:000469A4       TBooleanField.SetVarValue
 0001:0001637C       TBrush.Assign
 0001:00016320       TBrush.Create
 0001:00016358       TBrush.Destroy
 0001:00016494       TBrush.GetColor
 0001:000164D0       TBrush.GetHandle
 0001:000165B0       TBrush.GetStyle
 0001:0001649C       TBrush.SetColor
 0001:000165B8       TBrush.SetStyle
 0001:0003397C       TButton.Click
 0001:00033B18       TButton.CMDialogChar
 0001:00033AAC       TButton.CMDialogKey
 0001:00033B98       TButton.CMFocusChanged
 0001:00033A94       TButton.CNCommand
 0001:00033918       TButton.Create
 0001:00033A38       TButton.CreateParams
 0001:00033A78       TButton.CreateWnd
 0001:000339A4       TButton.SetButtonStyle
 0001:00033A00       TButton.SetDefault
 0001:00033BEC       TButton.WMEraseBkgnd
 0001:000338A8       TButtonControl.WndProc
 0001:0004712C       TBytesField.Create
 0001:00047178       TBytesField.GetDataSize
 0001:00016CB8       TCanvas.Changed
 0001:00016CA4       TCanvas.Changing
 0001:00016700       TCanvas.CopyRect
 0001:000165EC       TCanvas.Create
 0001:00016B84       TCanvas.CreateHandle
 0001:000166A8       TCanvas.Destroy
 0001:00016788       TCanvas.DrawFocusRect
 0001:000167BC       TCanvas.FillRect
 0001:000167F8       TCanvas.FrameRect
 0001:00016AE4       TCanvas.GetClipRect
 0001:00016B08       TCanvas.GetHandle
 0001:00016A74       TCanvas.GetPenPos
 0001:00016AB8       TCanvas.GetPixel
 0001:00016834       TCanvas.LineTo
 0001:0001686C       TCanvas.Lock
 0001:00016894       TCanvas.MoveTo
 0001:000168C0       TCanvas.Polyline
 0001:000168F8       TCanvas.Rectangle
 0001:00016940       TCanvas.Refresh
 0001:00016C30       TCanvas.RequiredState
 0001:00016A68       TCanvas.SetBrush
 0001:00016A4C       TCanvas.SetFont
 0001:00016B88       TCanvas.SetHandle
 0001:00016A5C       TCanvas.SetPen
 0001:00016A98       TCanvas.SetPenPos
 0001:00016948       TCanvas.TextExtent
 0001:000169A8       TCanvas.TextHeight
 0001:0001698C       TCanvas.TextWidth
 0001:000169C8       TCanvas.TryLock
 0001:00016A24       TCanvas.Unlock
 0001:00048AC8       TCheckConstraint.Assign
 0001:00048B14       TCheckConstraint.GetDisplayName
 0001:00048B74       TCheckConstraint.SetCustomConstraint
 0001:00048BA0       TCheckConstraint.SetErrorMessage
 0001:00048B48       TCheckConstraint.SetImportedConstraint
 0001:00048BCC       TCheckConstraints.Create
 0001:00048C10       TCheckConstraints.GetItem
 0001:00048C0C       TCheckConstraints.GetOwner
 0001:00036320       TClipboard.Assign
 0001:000361AC       TClipboard.AssignTo
 0001:00035E78       TClipboard.Clear
 0001:00035EDC       TClipboard.Close
 0001:00035F74       TClipboard.GetAsText
 0001:00035F0C       TClipboard.Open
 0001:0000F290       TCollection.Add
 0001:0000F2A0       TCollection.Assign
 0001:0000F338       TCollection.BeginUpdate
 0001:0000F33C       TCollection.Changed
 0001:0000F350       TCollection.Clear
 0001:0000F210       TCollection.Create
 0001:0000F24C       TCollection.Destroy
 0001:0000F3B8       TCollection.EndUpdate
 0001:0000F3CC       TCollection.GetAttr
 0001:0000F3C8       TCollection.GetAttrCount
 0001:0000F3FC       TCollection.GetCount
 0001:0000F404       TCollection.GetItem
 0001:0000F3DC       TCollection.GetItemAttr
 0001:0000F414       TCollection.GetNamePath
 0001:0000F4DC       TCollection.GetPropName
 0001:0000F6A8       TCollection.SetItemName
 0001:0000F6AC       TCollection.Update
 0001:0000F078       TCollectionItem.Changed
 0001:0000F014       TCollectionItem.Create
 0001:0000F048       TCollectionItem.Destroy
 0001:0000F0BC       TCollectionItem.GetDisplayName
 0001:0000F0A0       TCollectionItem.GetIndex
 0001:0000F0EC       TCollectionItem.GetNamePath
 0001:0000F1A0       TCollectionItem.GetOwner
 0001:0000F1A4       TCollectionItem.SetCollection
 0001:0000F1D0       TCollectionItem.SetDisplayName
 0001:0000F1DC       TCollectionItem.SetIndex
 0001:00035330       TCommonDialog.Create
 0001:000353D8       TCommonDialog.DefaultHandler
 0001:00035378       TCommonDialog.Destroy
 0001:00035530       TCommonDialog.DoClose
 0001:00035548       TCommonDialog.DoShow
 0001:000353AC       TCommonDialog.MessageHook
 0001:00035474       TCommonDialog.TaskModalDialog
 0001:00035420       TCommonDialog.WMDestroy
 0001:00035440       TCommonDialog.WMInitDialog
 0001:0003545C       TCommonDialog.WMNCDestroy
 0001:00035414       TCommonDialog.WndProc
 0001:00013C8C       TComponent.ChangeName
 0001:00013640       TComponent.Create
 0001:0001398C       TComponent.DefineProperties
 0001:00013688       TComponent.Destroy
 0001:000138AC       TComponent.DestroyComponents
 0001:000138DC       TComponent.Destroying
 0001:00013B64       TComponent.FindComponent
 0001:00013714       TComponent.FreeNotification
 0001:00013A1C       TComponent.GetChildOwner
 0001:00013A20       TComponent.GetChildParent
 0001:00013A14       TComponent.GetChildren
 0001:00013CA4       TComponent.GetComponent
 0001:00013D10       TComponent.GetComponentCount
 0001:00013A24       TComponent.GetNamePath
 0001:00013A3C       TComponent.GetOwner
 0001:00013A44       TComponent.GetParentComponent
 0001:00013A10       TComponent.HasParent
 0001:00013810       TComponent.InsertComponent
 0001:00013A6C       TComponent.Loaded
 0001:00013918       TComponent.Notification
 0001:00013A7C       TComponent.ReadState
 0001:00013868       TComponent.RemoveComponent
 0001:00013E10       TComponent.SafeCallException
 0001:00013A40       TComponent.SetChildOrder
 0001:00013D20       TComponent.SetComponentIndex
 0001:00013D78       TComponent.SetDesigning
 0001:00013BC0       TComponent.SetName
 0001:00013A48       TComponent.SetParentComponent
 0001:00013A5C       TComponent.Updated
 0001:00013E30       TComponent.UpdateRegistry
 0001:00013A4C       TComponent.Updating
 0001:00013B48       TComponent.ValidateContainer
 0001:00013B60       TComponent.ValidateInsert
 0001:00013A94       TComponent.ValidateRename
 0001:00013A88       TComponent.WriteState
 0001:00020160       TControl.BeginDrag
 0001:0001FDCC       TControl.BringToFront
 0001:0001F870       TControl.Changed
 0001:0001F880       TControl.ChangeScale
 0001:000205C0       TControl.Click
 0001:0001F800       TControl.ClientToScreen
 0001:00020A4C       TControl.CMColorChanged
 0001:00020B28       TControl.CMDesignHitTest
 0001:00020A3C       TControl.CMEnabledChanged
 0001:00020A44       TControl.CMFontChanged
 0001:00020AF0       TControl.CMHitTest
 0001:00020AF8       TControl.CMMouseEnter
 0001:00020B10       TControl.CMMouseLeave
 0001:00020A54       TControl.CMParentColorChanged
 0001:00020AA0       TControl.CMParentFontChanged
 0001:00020A84       TControl.CMParentShowHintChanged
 0001:00020AD0       TControl.CMSysFontChanged
 0001:00020A14       TControl.CMVisibleChanged
 0001:0001F2EC       TControl.Create
 0001:000205E0       TControl.DblClick
 0001:000204A8       TControl.DefaultHandler
 0001:00020570       TControl.DefineProperties
 0001:0001F37C       TControl.Destroy
 0001:000202CC       TControl.DoEndDrag
 0001:000202AC       TControl.DoStartDrag
 0001:00020234       TControl.DragCanceled
 0001:00020280       TControl.DragDrop
 0001:00020238       TControl.Dragging
 0001:00020244       TControl.DragOver
 0001:0001F68C       TControl.GetBoundsRect
 0001:0001F730       TControl.GetClientHeight
 0001:0001F770       TControl.GetClientOrigin
 0001:0001F6D4       TControl.GetClientRect
 0001:0001F6EC       TControl.GetClientWidth
 0001:0001FE80       TControl.GetDeviceContext
 0001:0001F3C8       TControl.GetDragImages
 0001:0001FD94       TControl.GetMouseCapture
 0001:0001F3CC       TControl.GetPalette
 0001:0001F3D8       TControl.GetParentComponent
 0001:00020730       TControl.GetPopupMenu
 0001:0001FBE0       TControl.GetText
 0001:0001FBA0       TControl.GetTextBuf
 0001:0001FB90       TControl.GetTextLen
 0001:0001F3D0       TControl.HasParent
 0001:00020040       TControl.Invalidate
 0001:0001FD50       TControl.IsColorStored
 0001:0001FCBC       TControl.IsFontStored
 0001:0001FCD0       TControl.IsShowHintStored
 0001:00020600       TControl.MouseDown
 0001:00020848       TControl.MouseMove
 0001:000208AC       TControl.MouseUp
 0001:0001F510       TControl.Notification
 0001:0001F400       TControl.PaletteChanged
 0001:00020390       TControl.Perform
 0001:0001F490       TControl.ReadState
 0001:00020060       TControl.Refresh
 0001:00020068       TControl.Repaint
 0001:0001F480       TControl.RequestAlign
 0001:0001F82C       TControl.ScreenToClient
 0001:0001F858       TControl.SendCancelMode
 0001:0001F53C       TControl.SetAlign
 0001:0001F5A0       TControl.SetBounds
 0001:0001F6AC       TControl.SetBoundsRect
 0001:0001F748       TControl.SetClientHeight
 0001:0001F704       TControl.SetClientWidth
 0001:0001FD34       TControl.SetColor
 0001:0001FD78       TControl.SetCursor
 0001:0001F47C       TControl.SetDragMode
 0001:0001FB78       TControl.SetEnabled
 0001:0001FCB0       TControl.SetFont
 0001:0001F66C       TControl.SetHeight
 0001:0001F60C       TControl.SetLeft
 0001:0001FDA4       TControl.SetMouseCapture
 0001:0001F9D0       TControl.SetName
 0001:0001FAB8       TControl.SetParent
 0001:0001FD58       TControl.SetParentColor
 0001:0001F3DC       TControl.SetParentComponent
 0001:0001FCD8       TControl.SetParentFont
 0001:0001FD14       TControl.SetParentShowHint
 0001:0001FBAC       TControl.SetPopupMenu
 0001:0001FCF8       TControl.SetShowHint
 0001:0001FC10       TControl.SetText
 0001:0001FBBC       TControl.SetTextBuf
 0001:0001F62C       TControl.SetTop
 0001:0001FB3C       TControl.SetVisible
 0001:0001F64C       TControl.SetWidth
 0001:0001FE5C       TControl.SetZOrder
 0001:00020050       TControl.Update
 0001:000203C4       TControl.VisibleChanging
 0001:000209DC       TControl.WMCancelMode
 0001:000206DC       TControl.WMLButtonDblClk
 0001:00020674       TControl.WMLButtonDown
 0001:00020918       TControl.WMLButtonUp
 0001:00020820       TControl.WMMButtonDblClk
 0001:000207F8       TControl.WMMButtonDown
 0001:000209BC       TControl.WMMButtonUp
 0001:00020870       TControl.WMMouseMove
 0001:000206C0       TControl.WMNCLButtonDown
 0001:000207D0       TControl.WMRButtonDblClk
 0001:000207A8       TControl.WMRButtonDown
 0001:0002098C       TControl.WMRButtonUp
 0001:000203C8       TControl.WndProc
 0001:0001F204       TControlCanvas.CreateHandle
 0001:0001F1D8       TControlCanvas.Destroy
 0001:0001F2A0       TControlCanvas.FreeHandle
 0001:0001F2D4       TControlCanvas.SetControl
 0001:0002A058       TControlScrollBar.Assign
 0001:0002A4B8       TControlScrollBar.IsRangeStored
 0001:0002A3D0       TControlScrollBar.SetPosition
 0001:0002A4A4       TControlScrollBar.SetRange
 0001:0002A4C4       TControlScrollBar.SetVisible
 0001:00046608       TCurrencyField.Create
 0001:000243B0       TCustomControl.Create
 0001:00024404       TCustomControl.Destroy
 0001:000244D4       TCustomControl.Paint
 0001:0002443C       TCustomControl.PaintWindow
 0001:00024434       TCustomControl.WMPaint
 0001:000336E8       TCustomEdit.Change
 0001:000332CC       TCustomEdit.Clear
 0001:000337A4       TCustomEdit.CMCtl3DChanged
 0001:0003382C       TCustomEdit.CMEnter
 0001:000337DC       TCustomEdit.CMFontChanged
 0001:0003386C       TCustomEdit.CMTextChanged
 0001:00033808       TCustomEdit.CNCommand
 0001:000332EC       TCustomEdit.CopyToClipboard
 0001:00032F28       TCustomEdit.Create
 0001:00033464       TCustomEdit.CreateParams
 0001:00033524       TCustomEdit.CreateWnd
 0001:00033710       TCustomEdit.DefaultHandler
 0001:000335D4       TCustomEdit.DestroyWnd
 0001:00032FD0       TCustomEdit.DoSetMaxLength
 0001:000330AC       TCustomEdit.GetModified
 0001:00033238       TCustomEdit.GetSelLength
 0001:000331EC       TCustomEdit.GetSelStart
 0001:000333C8       TCustomEdit.GetSelText
 0001:0003332C       TCustomEdit.GetSelTextBuf
 0001:0003330C       TCustomEdit.SelectAll
 0001:00032FF4       TCustomEdit.SetAutoSize
 0001:0003300C       TCustomEdit.SetBorderStyle
 0001:00033034       TCustomEdit.SetCharCase
 0001:0003304C       TCustomEdit.SetHideSelection
 0001:00033064       TCustomEdit.SetMaxLength
 0001:000330E8       TCustomEdit.SetModified
 0001:00033094       TCustomEdit.SetOEMConvert
 0001:00033124       TCustomEdit.SetPasswordChar
 0001:000331AC       TCustomEdit.SetReadOnly
 0001:00033268       TCustomEdit.SetSelLength
 0001:00033214       TCustomEdit.SetSelStart
 0001:00033760       TCustomEdit.WMSetFont
 0001:0002CAD8       TCustomForm.Activate
 0001:0002C8C4       TCustomForm.ActiveChanged
 0001:0002B9D8       TCustomForm.AlignControls
 0001:0002B278       TCustomForm.ChangeScale
 0001:0002D984       TCustomForm.Close
 0001:0002DA2C       TCustomForm.CloseQuery
 0001:0002D424       TCustomForm.CMActivate
 0001:0002D120       TCustomForm.CMAppSysCommand
 0001:0002BF58       TCustomForm.CMColorChanged
 0001:0002BF94       TCustomForm.CMCtl3DChanged
 0001:0002D430       TCustomForm.CMDeactivate
 0001:0002D444       TCustomForm.CMDialogKey
 0001:0002BFDC       TCustomForm.CMFontChanged
 0001:0002D898       TCustomForm.CMIconChanged
 0001:0002BFFC       TCustomForm.CMMenuChanged
 0001:0002D918       TCustomForm.CMParentFontChanged
 0001:0002D8B8       TCustomForm.CMRelease
 0001:0002D4E0       TCustomForm.CMShowingChanged
 0001:0002D8C0       TCustomForm.CMTextChanged
 0001:0002D910       TCustomForm.CMUIActivate
 0001:0002AB24       TCustomForm.Create
 0001:0002ACB4       TCustomForm.CreateNew
 0001:0002C058       TCustomForm.CreateParams
 0001:0002C384       TCustomForm.CreateWindowHandle
 0001:0002C244       TCustomForm.CreateWnd
 0001:0002CAF8       TCustomForm.Deactivate
 0001:0002C4C8       TCustomForm.DefaultHandler
 0001:0002B18C       TCustomForm.DefineProperties
 0001:0002C5DC       TCustomForm.DefocusControl
 0001:0002ADC0       TCustomForm.Destroy
 0001:0002C484       TCustomForm.DestroyWindowHandle
 0001:0002B3C0       TCustomForm.DoHide
 0001:0002B3E0       TCustomForm.DoShow
 0001:0002C624       TCustomForm.FocusControl
 0001:0002BA7C       TCustomForm.GetActiveMDIChild
 0001:0002BB4C       TCustomForm.GetCanvas
 0001:0002B488       TCustomForm.GetChildren
 0001:0002B400       TCustomForm.GetClientRect
 0001:0002DB34       TCustomForm.GetFormImage
 0001:0002BAB0       TCustomForm.GetMDIChildCount
 0001:0002BAFC       TCustomForm.GetMDIChildren
 0001:0002BEB8       TCustomForm.GetPixelsPerInch
 0001:0002BF1C       TCustomForm.GetScaled
 0001:0002DE58       TCustomForm.Hide
 0001:0002B38C       TCustomForm.IsAutoScrollStored
 0001:0002B354       TCustomForm.IsClientSizeStored
 0001:0002BB60       TCustomForm.IsColorStored
 0001:0002BB8C       TCustomForm.IsForm
 0001:0002B364       TCustomForm.IsFormSizeStored
 0001:0002BB94       TCustomForm.IsIconStored
 0001:0002AEE8       TCustomForm.Loaded
 0001:0002AF20       TCustomForm.Notification
 0001:0002CB18       TCustomForm.Paint
 0001:0002CB74       TCustomForm.PaintWindow
 0001:0002CC24       TCustomForm.PaletteChanged
 0001:0002DC2C       TCustomForm.Print
 0001:0002AFA8       TCustomForm.ReadState
 0001:0002DEE8       TCustomForm.Release
 0001:0002CB38       TCustomForm.Resize
 0001:0002C97C       TCustomForm.SendCancelMode
 0001:0002C52C       TCustomForm.SetActiveControl
 0001:0002BA18       TCustomForm.SetBorderIcons
 0001:0002BA44       TCustomForm.SetBorderStyle
 0001:0002B4F4       TCustomForm.SetChildOrder
 0001:0002B5B4       TCustomForm.SetClientHeight
 0001:0002B588       TCustomForm.SetClientWidth
 0001:0002DE78       TCustomForm.SetFocus
 0001:0002C644       TCustomForm.SetFocusedControl
 0001:0002BBBC       TCustomForm.SetFormStyle
 0001:0002BB54       TCustomForm.SetIcon
 0001:0002BCF4       TCustomForm.SetMenu
 0001:0002BCB8       TCustomForm.SetObjectMenuItem
 0001:0002B674       TCustomForm.SetParent
 0001:0002BECC       TCustomForm.SetPixelsPerInch
 0001:0002BF00       TCustomForm.SetPosition
 0001:0002BF28       TCustomForm.SetScaled
 0001:0002B5E0       TCustomForm.SetVisible
 0001:0002BCCC       TCustomForm.SetWindowMenu
 0001:0002C018       TCustomForm.SetWindowState
 0001:0002DE60       TCustomForm.Show
 0001:0002DF04       TCustomForm.ShowModal
 0001:0002B6AC       TCustomForm.ValidateRename
 0001:0002B60C       TCustomForm.VisibleChanging
 0001:0002B670       TCustomForm.WantChildKey
 0001:0002D060       TCustomForm.WMActivate
 0001:0002D0EC       TCustomForm.WMClose
 0001:0002CF68       TCustomForm.WMCommand
 0001:0002CF08       TCustomForm.WMDestroy
 0001:0002D2C4       TCustomForm.WMEnterMenuLoop
 0001:0002CD8C       TCustomForm.WMEraseBkgnd
 0001:0002D320       TCustomForm.WMHelp
 0001:0002CD2C       TCustomForm.WMIconEraseBkgnd
 0001:0002CF9C       TCustomForm.WMInitMenuPopup
 0001:0002D240       TCustomForm.WMMDIActivate
 0001:0002CFB4       TCustomForm.WMMenuSelect
 0001:0002CED4       TCustomForm.WMNCCreate
 0001:0002D298       TCustomForm.WMNextDlgCtl
 0001:0002CCD0       TCustomForm.WMPaint
 0001:0002CDC4       TCustomForm.WMQueryDragIcon
 0001:0002D0F4       TCustomForm.WMQueryEndSession
 0001:0002D1A8       TCustomForm.WMShowWindow
 0001:0002D080       TCustomForm.WMSize
 0001:0002D178       TCustomForm.WMSysCommand
 0001:0002B6E8       TCustomForm.WndProc
 0001:0003AFB8       TCustomGrid.AdjustSize
 0001:0003B11C       TCustomGrid.BoxRect
 0001:0003B194       TCustomGrid.CanEditAcceptKey
 0001:0003B19C       TCustomGrid.CanEditModify
 0001:0003B1A4       TCustomGrid.CanEditShow
 0001:0003B198       TCustomGrid.CanGridAcceptKey
 0001:0003B170       TCustomGrid.CellRect
 0001:0003F4D4       TCustomGrid.CMCancelMode
 0001:0003F524       TCustomGrid.CMCtl3DChanged
 0001:0003F53C       TCustomGrid.CMDesignHitTest
 0001:0003F4FC       TCustomGrid.CMFontChanged
 0001:0003F560       TCustomGrid.CMWantSpecialKey
 0001:0003B620       TCustomGrid.ColumnMoved
 0001:0003F728       TCustomGrid.ColWidthsChanged
 0001:0003ACFC       TCustomGrid.Create
 0001:0003DDA8       TCustomGrid.CreateEditor
 0001:0003DDBC       TCustomGrid.CreateParams
 0001:0003B4B0       TCustomGrid.DefineProperties
 0001:0003AE44       TCustomGrid.Destroy
 0001:0003B150       TCustomGrid.DoExit
 0001:0003EA64       TCustomGrid.GetColWidths
 0001:0003B280       TCustomGrid.GetEditLimit
 0001:0003B258       TCustomGrid.GetEditMask
 0001:0003B268       TCustomGrid.GetEditText
 0001:0003EA84       TCustomGrid.GetRowHeights
 0001:0003EAA4       TCustomGrid.GetSelection
 0001:0003EAC4       TCustomGrid.GetTabStops
 0001:0003EAD8       TCustomGrid.GetVisibleColCount
 0001:0003EAFC       TCustomGrid.GetVisibleRowCount
 0001:0003B284       TCustomGrid.HideEditor
 0001:0003CE1C       TCustomGrid.InvalidateCell
 0001:0003B2E8       TCustomGrid.InvalidateEditor
 0001:0003DEE8       TCustomGrid.KeyDown
 0001:0003E2F4       TCustomGrid.KeyPress
 0001:0003B6B0       TCustomGrid.MouseCoord
 0001:0003E334       TCustomGrid.MouseDown
 0001:0003E638       TCustomGrid.MouseMove
 0001:0003E7C4       TCustomGrid.MouseUp
 0001:0003B550       TCustomGrid.MoveColumn
 0001:0003B624       TCustomGrid.MoveRow
 0001:0003BCF4       TCustomGrid.Paint
 0001:0003F740       TCustomGrid.RowHeightsChanged
 0001:0003B6AC       TCustomGrid.RowMoved
 0001:0003D764       TCustomGrid.ScrollData
 0001:0003B704       TCustomGrid.SelectCell
 0001:0003EB20       TCustomGrid.SetBorderStyle
 0001:0003EB38       TCustomGrid.SetCol
 0001:0003EB54       TCustomGrid.SetColCount
 0001:0003EBB4       TCustomGrid.SetColWidths
 0001:0003EC68       TCustomGrid.SetDefaultColWidth
 0001:0003ECA8       TCustomGrid.SetDefaultRowHeight
 0001:0003EE20       TCustomGrid.SetEditorMode
 0001:0003B278       TCustomGrid.SetEditText
 0001:0003ECE8       TCustomGrid.SetFixedColor
 0001:0003ED00       TCustomGrid.SetFixedCols
 0001:0003ED90       TCustomGrid.SetFixedRows
 0001:0003EE50       TCustomGrid.SetGridLineWidth
 0001:0003EE68       TCustomGrid.SetOptions
 0001:0003EEE0       TCustomGrid.SetRow
 0001:0003EEFC       TCustomGrid.SetRowCount
 0001:0003EF3C       TCustomGrid.SetRowHeights
 0001:0003EFF0       TCustomGrid.SetScrollBars
 0001:0003B298       TCustomGrid.ShowEditor
 0001:0003B2AC       TCustomGrid.ShowEditorChar
 0001:0003B708       TCustomGrid.SizeChanged
 0001:0003B70C       TCustomGrid.Sizing
 0001:0003F58C       TCustomGrid.TimedScroll
 0001:0003B764       TCustomGrid.TopLeftChanged
 0001:0003F758       TCustomGrid.UpdateDesigner
 0001:0003F238       TCustomGrid.WMChar
 0001:0003F268       TCustomGrid.WMCommand
 0001:0003F2A0       TCustomGrid.WMGetDlgCode
 0001:0003F4BC       TCustomGrid.WMHScroll
 0001:0003F2D0       TCustomGrid.WMKillFocus
 0001:0003F320       TCustomGrid.WMLButtonDown
 0001:0003F34C       TCustomGrid.WMNCHitTest
 0001:0003F394       TCustomGrid.WMSetCursor
 0001:0003F43C       TCustomGrid.WMSetFocus
 0001:0003F48C       TCustomGrid.WMSize
 0001:0003F634       TCustomGrid.WMTimer
 0001:0003F4A4       TCustomGrid.WMVScroll
 0001:000326C8       TCustomGroupBox.AlignControls
 0001:00032960       TCustomGroupBox.CMCtl3DChanged
 0001:000328CC       TCustomGroupBox.CMDialogChar
 0001:00032948       TCustomGroupBox.CMTextChanged
 0001:00032670       TCustomGroupBox.Create
 0001:00032730       TCustomGroupBox.CreateParams
 0001:00032744       TCustomGroupBox.Paint
 0001:00032980       TCustomGroupBox.WMSize
 0001:00024A74       TCustomImageList.Add
 0001:0002508C       TCustomImageList.AddImages
 0001:00024B18       TCustomImageList.AddMasked
 0001:000250AC       TCustomImageList.Assign
 0001:00025168       TCustomImageList.AssignTo
 0001:000253B0       TCustomImageList.BeginDrag
 0001:00025554       TCustomImageList.Change
 0001:00024EDC       TCustomImageList.Clear
 0001:00024558       TCustomImageList.Create
 0001:0002459C       TCustomImageList.CreateSize
 0001:00025760       TCustomImageList.DefineProperties
 0001:00024E50       TCustomImageList.Delete
 0001:000245E8       TCustomImageList.Destroy
 0001:00025410       TCustomImageList.DragLock
 0001:00025498       TCustomImageList.DragMove
 0001:00025474       TCustomImageList.DragUnlock
 0001:0002550C       TCustomImageList.EndDrag
 0001:00024F34       TCustomImageList.GetBkColor
 0001:00024C30       TCustomImageList.GetCount
 0001:000248C0       TCustomImageList.GetHandle
 0001:000249F4       TCustomImageList.GetImageBitmap
 0001:00024A34       TCustomImageList.GetMaskBitmap
 0001:00024700       TCustomImageList.HandleAllocated
 0001:00024708       TCustomImageList.HandleNeeded
 0001:000254F4       TCustomImageList.HideDragImage
 0001:00024640       TCustomImageList.Initialize
 0001:00024C54       TCustomImageList.ReplaceMasked
 0001:00024EF8       TCustomImageList.SetBkColor
 0001:00025350       TCustomImageList.SetDragCursor
 0001:00025368       TCustomImageList.SetDragImage
 0001:00024884       TCustomImageList.SetHandle
 0001:0002483C       TCustomImageList.SetHeight
 0001:000247F4       TCustomImageList.SetWidth
 0001:000254DC       TCustomImageList.ShowDragImage
 0001:00025594       TCustomImageList.UnRegisterChanges
 0001:00032E9C       TCustomLabel.CMDialogChar
 0001:00032E84       TCustomLabel.CMFontChanged
 0001:00032E6C       TCustomLabel.CMTextChanged
 0001:00032998       TCustomLabel.Create
 0001:00032A04       TCustomLabel.GetLabelText
 0001:00032D64       TCustomLabel.GetTransparent
 0001:00032C74       TCustomLabel.Loaded
 0001:00032E38       TCustomLabel.Notification
 0001:00032B80       TCustomLabel.Paint
 0001:00032D2C       TCustomLabel.SetAlignment
 0001:00032D4C       TCustomLabel.SetAutoSize
 0001:00032D70       TCustomLabel.SetFocusControl
 0001:00032DF0       TCustomLabel.SetLayout
 0001:00032D88       TCustomLabel.SetShowAccelChar
 0001:00032DA8       TCustomLabel.SetTransparent
 0001:00032E10       TCustomLabel.SetWordWrap
 0001:00037948       TCustomMaskEdit.CheckCursor
 0001:00038010       TCustomMaskEdit.CMEnter
 0001:0003816C       TCustomMaskEdit.CMExit
 0001:000380A0       TCustomMaskEdit.CMTextChanged
 0001:00038130       TCustomMaskEdit.CMWantSpecialKey
 0001:00036F84       TCustomMaskEdit.Create
 0001:0003798C       TCustomMaskEdit.EditCanModify
 0001:00037258       TCustomMaskEdit.GetEditText
 0001:00037574       TCustomMaskEdit.GetMasked
 0001:00037718       TCustomMaskEdit.GetMaxLength
 0001:00037DCC       TCustomMaskEdit.GetNextEditChar
 0001:00037DF8       TCustomMaskEdit.GetPriorEditChar
 0001:00037750       TCustomMaskEdit.GetSel
 0001:000372C0       TCustomMaskEdit.GetText
 0001:00037270       TCustomMaskEdit.GetTextLen
 0001:00036FD0       TCustomMaskEdit.KeyDown
 0001:0003710C       TCustomMaskEdit.KeyPress
 0001:000370C4       TCustomMaskEdit.KeyUp
 0001:00037588       TCustomMaskEdit.ReformatText
 0001:00037990       TCustomMaskEdit.Reset
 0001:000377A0       TCustomMaskEdit.SetCursor
 0001:00037648       TCustomMaskEdit.SetEditMask
 0001:000371F0       TCustomMaskEdit.SetEditText
 0001:00037720       TCustomMaskEdit.SetMaxLength
 0001:00037778       TCustomMaskEdit.SetSel
 0001:0003734C       TCustomMaskEdit.SetText
 0001:000381A4       TCustomMaskEdit.ValidateEdit
 0001:00038238       TCustomMaskEdit.ValidateError
 0001:00037454       TCustomMaskEdit.WMCut
 0001:0003714C       TCustomMaskEdit.WMLButtonDown
 0001:0003716C       TCustomMaskEdit.WMLButtonUp
 0001:0003748C       TCustomMaskEdit.WMPaste
 0001:000371CC       TCustomMaskEdit.WMSetFocus
 0001:0001103C       TCustomMemoryStream.Read
 0001:00011080       TCustomMemoryStream.Seek
 0001:00011034       TCustomMemoryStream.SetPointer
 0001:00034D44       TCustomPanel.AlignControls
 0001:00034BD4       TCustomPanel.CMCtl3DChanged
 0001:00034C00       TCustomPanel.CMIsToolControl
 0001:00034BC8       TCustomPanel.CMTextChanged
 0001:00034AE8       TCustomPanel.Create
 0001:00034B74       TCustomPanel.CreateParams
 0001:00034DC8       TCustomPanel.Paint
 0001:00034C14       TCustomPanel.Resize
 0001:00034F24       TCustomPanel.SetAlignment
 0001:00034F38       TCustomPanel.SetBevelInner
 0001:00034F54       TCustomPanel.SetBevelOuter
 0001:00034F70       TCustomPanel.SetBevelWidth
 0001:00034FA8       TCustomPanel.SetBorderStyle
 0001:00034F8C       TCustomPanel.SetBorderWidth
 0001:00034C34       TCustomPanel.WMWindowPosChanged
 0001:000556BC       TDatabase.Close
 0001:0005577C       TDatabase.CloseDataSets
 0001:00055450       TDatabase.Create
 0001:00055504       TDatabase.Destroy
 0001:000557A4       TDatabase.GetAliasName
 0001:000557CC       TDatabase.GetConnected
 0001:000557D4       TDatabase.GetDriverName
 0001:00055874       TDatabase.Loaded
 0001:000558EC       TDatabase.Notification
 0001:00055EC4       TDatabase.Open
 0001:0005610C       TDatabase.SetAliasName
 0001:00056118       TDatabase.SetConnected
 0001:00056138       TDatabase.SetDatabaseName
 0001:000561A8       TDatabase.SetDirectory
 0001:00056208       TDatabase.SetDriverName
 0001:00056214       TDatabase.SetHandle
 0001:000562E4       TDatabase.SetKeepConnection
 0001:00056300       TDatabase.SetParams
 0001:00056320       TDatabase.SetSessionName
 0001:00056368       TDatabase.SetTraceFlags
 0001:0005639C       TDatabase.ValidateName
 0001:0004876C       TDataLink.ActiveChanged
 0001:00048770       TDataLink.CheckBrowseMode
 0001:00048440       TDataLink.Create
 0001:00048774       TDataLink.DataSetChanged
 0001:00048780       TDataLink.DataSetScrolled
 0001:0004847C       TDataLink.Destroy
 0001:0004878C       TDataLink.EditingChanged
 0001:00048790       TDataLink.FocusControl
 0001:00048514       TDataLink.GetDataSet
 0001:00048794       TDataLink.LayoutChanged
 0001:000487A0       TDataLink.RecordChanged
 0001:00048524       TDataLink.SetDataSource
 0001:000487A4       TDataLink.UpdateData
 0001:00048628       TDataLink.UpdateRecord
 0001:0004A2B4       TDataSet.ActivateBuffers
 0001:0004A280       TDataSet.ActiveBuffer
 0001:000499C8       TDataSet.BCDToCurr
 0001:000492F4       TDataSet.BindFields
 0001:0004A980       TDataSet.BookmarkAvailable
 0001:0004AA90       TDataSet.BookmarkValid
 0001:0004A440       TDataSet.CalculateFields
 0001:0004A7C0       TDataSet.Cancel
 0001:0004905C       TDataSet.CheckActive
 0001:0004AB30       TDataSet.CheckBrowseMode
 0001:00048FF4       TDataSet.CheckInactive
 0001:0004A298       TDataSet.ClearBuffers
 0001:0004A48C       TDataSet.ClearCalcFields
 0001:00048FE8       TDataSet.Close
 0001:000499C0       TDataSet.CloseBlob
 0001:00049220       TDataSet.CloseCursor
 0001:0004AA94       TDataSet.CompareBookmarks
 0001:00048C28       TDataSet.Create
 0001:000499C4       TDataSet.CreateBlobStream
 0001:00049288       TDataSet.CreateFields
 0001:000499CC       TDataSet.CurrToBCD
 0001:0004A2E8       TDataSet.CursorPosChanged
 0001:00049A68       TDataSet.DataEvent
 0001:00048CA8       TDataSet.Destroy
 0001:000492C4       TDataSet.DestroyFields
 0001:00049B58       TDataSet.DisableControls
 0001:0004AC1C       TDataSet.DoAfterCancel
 0001:0004AC40       TDataSet.DoAfterClose
 0001:0004AC64       TDataSet.DoAfterDelete
 0001:0004AC88       TDataSet.DoAfterEdit
 0001:0004ACAC       TDataSet.DoAfterInsert
 0001:0004ACD0       TDataSet.DoAfterOpen
 0001:0004ACF4       TDataSet.DoAfterPost
 0001:0004AD18       TDataSet.DoAfterScroll
 0001:0004AD3C       TDataSet.DoBeforeCancel
 0001:0004AD60       TDataSet.DoBeforeClose
 0001:0004AD84       TDataSet.DoBeforeDelete
 0001:0004ADA8       TDataSet.DoBeforeEdit
 0001:0004ADCC       TDataSet.DoBeforeInsert
 0001:0004ADF0       TDataSet.DoBeforeOpen
 0001:0004AE0C       TDataSet.DoBeforePost
 0001:0004AE30       TDataSet.DoBeforeScroll
 0001:0004AE54       TDataSet.DoOnCalcFields
 0001:0004AE78       TDataSet.DoOnNewRecord
 0001:00049B6C       TDataSet.EnableControls
 0001:00049688       TDataSet.FieldByName
 0001:00049710       TDataSet.FieldByNumber
 0001:00049748       TDataSet.FindField
 0001:0004AAC8       TDataSet.FindRecord
 0001:0004A518       TDataSet.First
 0001:0004AA98       TDataSet.FreeBookmark
 0001:00049504       TDataSet.FreeFieldBuffers
 0001:000490AC       TDataSet.GetActive
 0001:0004A9BC       TDataSet.GetBookmark
 0001:0004A9F8       TDataSet.GetBookmarkStr
 0001:0004A3DC       TDataSet.GetCalcFields
 0001:0004AB8C       TDataSet.GetCanModify
 0001:00048EB8       TDataSet.GetChildren
 0001:0004A2F0       TDataSet.GetCurrentRecord
 0001:000499E0       TDataSet.GetDataSource
 0001:00049560       TDataSet.GetField
 0001:0004927C       TDataSet.GetFieldClass
 0001:00049558       TDataSet.GetFieldCount
 0001:0004AB90       TDataSet.GetFieldList
 0001:00049570       TDataSet.GetFieldValue
 0001:00048FB8       TDataSet.GetFound
 0001:000499D8       TDataSet.GetIsIndexField
 0001:00049F60       TDataSet.GetNextRecord
 0001:0004A2F4       TDataSet.GetNextRecords
 0001:0004A004       TDataSet.GetPriorRecord
 0001:0004A348       TDataSet.GetPriorRecords
 0001:0004AC10       TDataSet.GetRecNo
 0001:0004AC0C       TDataSet.GetRecordCount
 0001:000498A4       TDataSet.GetStateFieldValue
 0001:0004AA38       TDataSet.GotoBookmark
 0001:0004922C       TDataSet.InitFieldDefs
 0001:0004A39C       TDataSet.InitRecord
 0001:0004AAA4       TDataSet.InternalCancel
 0001:0004AAA8       TDataSet.InternalEdit
 0001:0004AAAC       TDataSet.InternalRefresh
 0001:0004A3D0       TDataSet.IsEmpty
 0001:000499E4       TDataSet.IsLinkedTo
 0001:0004AC18       TDataSet.IsSequenced
 0001:00048F34       TDataSet.Loaded
 0001:0004AB10       TDataSet.Locate
 0001:0004AB1C       TDataSet.Lookup
 0001:0004A5A0       TDataSet.MoveBy
 0001:0004A72C       TDataSet.Next
 0001:00048FDC       TDataSet.Open
 0001:000491FC       TDataSet.OpenCursor
 0001:0004A73C       TDataSet.Post
 0001:0004A490       TDataSet.RefreshInternalCalcFields
 0001:00048FD0       TDataSet.RestoreState
 0001:0004A07C       TDataSet.Resync
 0001:000490B4       TDataSet.SetActive
 0001:0004AA84       TDataSet.SetBookmarkStr
 0001:00049C14       TDataSet.SetBufListSize
 0001:00048F00       TDataSet.SetChildOrder
 0001:00049798       TDataSet.SetConstraints
 0001:00049F00       TDataSet.SetCurrentRecord
 0001:0004AACC       TDataSet.SetFiltered
 0001:0004AAD0       TDataSet.SetFilterOptions
 0001:0004AADC       TDataSet.SetFilterText
 0001:00048FBC       TDataSet.SetFound
 0001:00048D34       TDataSet.SetName
 0001:0004AAF4       TDataSet.SetOnFilterRecord
 0001:0004AC14       TDataSet.SetRecNo
 0001:00048F9C       TDataSet.SetState
 0001:00049918       TDataSet.SetStateFieldValue
 0001:00048FC0       TDataSet.SetTempState
 0001:0004A28C       TDataSet.TempBuffer
 0001:0004AAB0       TDataSet.Translate
 0001:0004A2D0       TDataSet.UpdateCursorPos
 0001:000499DC       TDataSet.UpdateIndexDefs
 0001:00049BB4       TDataSet.UpdateRecord
 0001:00043B58       TDataSetDesigner.BeginDesign
 0001:00043B90       TDataSetDesigner.EndDesign
 0001:000487A8       TDataSource.Create
 0001:000487F4       TDataSource.Destroy
 0001:000488C8       TDataSource.IsLinkedTo
 0001:000488F8       TDataSource.SetDataSet
 0001:00048970       TDataSource.SetEnabled
 0001:00046D18       TDateField.Create
 0001:00046D54       TDateField.GetDataSize
 0001:000469C4       TDateTimeField.Create
 0001:00046A00       TDateTimeField.GetAsDateTime
 0001:00046A28       TDateTimeField.GetAsFloat
 0001:00046A40       TDateTimeField.GetAsString
 0001:00046A50       TDateTimeField.GetAsVariant
 0001:00046A8C       TDateTimeField.GetDataSize
 0001:00046A94       TDateTimeField.GetText
 0001:00046BF4       TDateTimeField.SetAsDateTime
 0001:00046C48       TDateTimeField.SetAsFloat
 0001:00046C5C       TDateTimeField.SetAsString
 0001:00046CC0       TDateTimeField.SetDisplayFormat
 0001:00046CF4       TDateTimeField.SetVarValue
 0001:000596A4       TDBDataSet.CheckOpen
 0001:00059620       TDBDataSet.CloseCursor
 0001:000596EC       TDBDataSet.ConstraintsStored
 0001:00059704       TDBDataSet.Disconnect
 0001:00059710       TDBDataSet.GetDBHandle
 0001:00059724       TDBDataSet.GetDBLocale
 0001:00059738       TDBDataSet.GetDBSession
 0001:00059768       TDBDataSet.GetProvider
 0001:000595EC       TDBDataSet.OpenCursor
 0001:00059800       TDBDataSet.OpenDatabase
 0001:00059828       TDBDataSet.SetDatabaseName
 0001:000598B0       TDBDataSet.SetDBFlag
 0001:000599AC       TDBDataSet.SetSessionName
 0001:000599D8       TDBDataSet.SetUpdateMode
 0001:00052BF8       TDBError.Create
 0001:0001E9CC       TDragControlObject.Create
 0001:0001EA50       TDragControlObject.Finished
 0001:0001EA38       TDragControlObject.GetDragCursor
 0001:0001E9EC       TDragControlObject.GetDragImages
 0001:0001E9F8       TDragControlObject.HideDragImage
 0001:0001EA18       TDragControlObject.ShowDragImage
 0001:0001E93C       TDragObject.Finished
 0001:0001E924       TDragObject.GetDragCursor
 0001:0001E8F4       TDragObject.GetDragImages
 0001:0001E8CC       TDragObject.GetName
 0001:0001E944       TDragObject.HideDragImage
 0001:0001E8C4       TDragObject.Instance
 0001:0001E948       TDragObject.ShowDragImage
 0001:0003F798       TDrawGrid.CellRect
 0001:0003F7F4       TDrawGrid.ColumnMoved
 0001:0003F91C       TDrawGrid.DrawCell
 0001:0003F818       TDrawGrid.GetEditMask
 0001:0003F858       TDrawGrid.GetEditText
 0001:0003F7BC       TDrawGrid.MouseToCell
 0001:0003F898       TDrawGrid.RowMoved
 0001:0003F8BC       TDrawGrid.SelectCell
 0001:0003F8F0       TDrawGrid.SetEditText
 0001:0003F964       TDrawGrid.TopLeftChanged
 0001:000613A0       TDummyObject.ShowHint
 0002:00000324       TerminateProcList
 0002:00002043       Test8086
 0002:00002044       Test8087
 0001:0004FAB0       TExprParser.Create
 0001:0004FBA0       TExprParser.Destroy
 0001:0000C2DB       TextToFloat
 0001:00026C84       TextToShortCut
 0001:0004418C       TField.AccessError
 0001:00044234       TField.Assign
 0001:0004439C       TField.Change
 0001:000443C0       TField.CheckInactive
 0001:000452DC       TField.CheckTypeSize
 0001:000443D8       TField.Clear
 0001:000440DC       TField.Create
 0001:000444AC       TField.DefineProperties
 0001:00044148       TField.Destroy
 0001:00044570       TField.FieldKindStored
 0001:00044578       TField.FocusControl
 0001:000445A8       TField.FreeBuffers
 0001:000445AC       TField.GetAsBoolean
 0001:000445DC       TField.GetAsCurrency
 0001:00044604       TField.GetAsDateTime
 0001:00044640       TField.GetAsFloat
 0001:00044678       TField.GetAsInteger
 0001:000446A8       TField.GetAsString
 0001:000447F8       TField.GetAsVariant
 0001:00044828       TField.GetCalculated
 0001:00044830       TField.GetCanModify
 0001:00044874       TField.GetData
 0001:00044938       TField.GetDataSize
 0001:0004493C       TField.GetDefaultWidth
 0001:00044944       TField.GetDisplayLabel
 0001:0004495C       TField.GetDisplayName
 0001:00044988       TField.GetDisplayWidth
 0001:000449A0       TField.GetHasConstraints
 0001:000449C4       TField.GetIndex
 0001:000449E0       TField.GetIsIndexField
 0001:00044A00       TField.GetIsNull
 0001:00044A14       TField.GetLookup
 0001:00044A1C       TField.GetLookupList
 0001:00044A94       TField.GetParentComponent
 0001:00044A40       TField.GetText
 0001:00044A90       TField.HasParent
 0001:000449FC       TField.IsBlob
 0001:00044AD4       TField.IsDisplayLabelStored
 0001:00044AE4       TField.IsDisplayWidthStored
 0001:00044AC4       TField.IsValidChar
 0001:00044AEC       TField.Notification
 0001:00044B18       TField.PropertyChanged
 0001:00044BD8       TField.ReadState
 0001:00044C10       TField.RefreshLookupList
 0001:00044F38       TField.SetAlignment
 0001:00044D3C       TField.SetAsBoolean
 0001:00044D6C       TField.SetAsCurrency
 0001:00044D98       TField.SetAsDateTime
 0001:00044DD0       TField.SetAsFloat
 0001:00044E04       TField.SetAsInteger
 0001:00044E34       TField.SetAsString
 0001:00044E64       TField.SetAsVariant
 0001:00044F4C       TField.SetData
 0001:00044FE0       TField.SetDataSet
 0001:00045034       TField.SetDataType
 0001:00045038       TField.SetDisplayLabel
 0001:000450B0       TField.SetDisplayWidth
 0001:000450C4       TField.SetEditMask
 0001:000450E4       TField.SetFieldKind
 0001:0004514C       TField.SetFieldName
 0001:0004519C       TField.SetFieldType
 0001:000451A0       TField.SetIndex
 0001:000452A4       TField.SetKeyFields
 0001:000452C4       TField.SetLookupCache
 0001:00045200       TField.SetLookupDataSet
 0001:00045264       TField.SetLookupKeyFields
 0001:00045284       TField.SetLookupResultField
 0001:00044A98       TField.SetParentComponent
 0001:0004536C       TField.SetReadOnly
 0001:0004533C       TField.SetSize
 0001:0004535C       TField.SetText
 0001:00045380       TField.SetVarValue
 0001:000453B0       TField.SetVisible
 0001:000453C4       TField.Validate
 0001:00043C08       TFieldDef.Create
 0001:00043CC4       TFieldDef.CreateField
 0001:00043C90       TFieldDef.Destroy
 0001:00043DDC       TFieldDef.GetFieldClass
 0001:00043E60       TFieldDefs.Clear
 0001:00043DF4       TFieldDefs.Create
 0001:00043E30       TFieldDefs.Destroy
 0001:00043E84       TFieldDefs.Find
 0001:00043F18       TFieldDefs.GetCount
 0001:00043F20       TFieldDefs.GetItem
 0001:00043F30       TFieldDefs.IndexOf
 0001:00043F74       TFieldDefs.Update
 0001:00011434       TFiler.Create
 0001:00011474       TFiler.Destroy
 0001:00010F14       TFileStream.Create
 0001:0001100C       TFileStream.Destroy
 0001:0004EDC8       TFilterExpr.Create
 0001:0004EDF4       TFilterExpr.Destroy
 0001:0004EF04       TFilterExpr.GetFilterData
 0001:0004EF5C       TFilterExpr.NewCompareNode
 0001:0004EFEC       TFilterExpr.NewNode
 0001:00046170       TFloatField.Create
 0001:0004620C       TFloatField.GetAsFloat
 0001:00046234       TFloatField.GetAsInteger
 0001:0004624C       TFloatField.GetAsString
 0001:00046288       TFloatField.GetAsVariant
 0001:000462C4       TFloatField.GetDataSize
 0001:000462CC       TFloatField.GetText
 0001:000463DC       TFloatField.SetAsFloat
 0001:00046444       TFloatField.SetAsInteger
 0001:00046464       TFloatField.SetAsString
 0001:00046520       TFloatField.SetCurrency
 0001:0004653C       TFloatField.SetMaxValue
 0001:0004655C       TFloatField.SetMinValue
 0001:0004657C       TFloatField.SetPrecision
 0001:000465AC       TFloatField.SetVarValue
 0001:00015BB4       TFont.Assign
 0001:00015B98       TFont.Changed
 0001:00015B24       TFont.Create
 0001:00015B74       TFont.Destroy
 0001:0001600C       TFont.GetCharset
 0001:00015D04       TFont.GetHandle
 0001:00015EC4       TFont.GetHeight
 0001:00015EF4       TFont.GetName
 0001:00015FDC       TFont.GetPitch
 0001:00015F68       TFont.GetSize
 0001:00015FA4       TFont.GetStyle
 0001:00016014       TFont.SetCharset
 0001:00015CF0       TFont.SetColor
 0001:00015EA0       TFont.SetHandle
 0001:00015ECC       TFont.SetHeight
 0001:00015F0C       TFont.SetName
 0001:00015FE4       TFont.SetPitch
 0001:00015F84       TFont.SetSize
 0001:00015FB0       TFont.SetStyle
 0001:00063698       TForm1.FormCreate
 0001:00063E34       TForm1.stampaClick
 0001:000180C8       TGraphic.Changed
 0001:00018098       TGraphic.Create
 0001:00018138       TGraphic.DefineProperties
 0001:00018184       TGraphic.Equals
 0001:000182C8       TGraphic.GetPalette
 0001:000182CC       TGraphic.GetTransparent
 0001:000182D0       TGraphic.LoadFromFile
 0001:00018324       TGraphic.Progress
 0001:0001834C       TGraphic.ReadData
 0001:00018358       TGraphic.SaveToFile
 0001:000183B0       TGraphic.SetPalette
 0001:000183B4       TGraphic.SetTransparent
 0001:000183C4       TGraphic.WriteData
 0001:00023E4C       TGraphicControl.Create
 0001:00023EA0       TGraphicControl.Destroy
 0001:00023F74       TGraphicControl.Paint
 0001:00023ED0       TGraphicControl.WMPaint
 0001:00048000       TGraphicField.Create
 0001:00015868       TGraphicsObject.Changed
 0001:0001587C       TGraphicsObject.Lock
 0001:0001588C       TGraphicsObject.Unlock
 0001:00010EB8       THandleStream.Read
 0001:00010EE0       THandleStream.Seek
 0001:00010EF0       THandleStream.SetSize
 0001:00010ECC       THandleStream.Write
 0001:00024270       THintWindow.ActivateHint
 0001:00024330       THintWindow.ActivateHintData
 0001:0002435C       THintWindow.CalcHintRect
 0001:000241E8       THintWindow.CMTextChanged
 0001:00023F78       THintWindow.Create
 0001:0002401C       THintWindow.CreateParams
 0001:0002417C       THintWindow.IsHintMsg
 0001:000240E8       THintWindow.Paint
 0001:000241E0       THintWindow.ReleaseHandle
 0001:00024048       THintWindow.WMNCHitTest
 0001:00024050       THintWindow.WMNCPaint
 0002:000024D2       ThousandSeparator
 0001:0001BCCC       TIcon.Assign
 0001:0001BC4C       TIcon.Create
 0001:0001BCA0       TIcon.Destroy
 0001:0001BD2C       TIcon.Draw
 0001:0001BD64       TIcon.GetEmpty
 0001:0001BD7C       TIcon.GetHandle
 0001:0001BD90       TIcon.GetHeight
 0001:0001BD98       TIcon.GetWidth
 0001:0001C0B8       TIcon.LoadFromClipboardFormat
 0001:0001BEBC       TIcon.LoadFromStream
 0001:0001C104       TIcon.SaveToClipboardFormat
 0001:0001C08C       TIcon.SaveToStream
 0001:0001BFE4       TIcon.SetHandle
 0001:0001BFFC       TIcon.SetHeight
 0001:0001C044       TIcon.SetWidth
 0001:0001BC08       TIconImage.Destroy
 0001:0001BC34       TIconImage.FreeHandle
 0002:000024E4       TimeAMString
 0002:000024E8       TimePMString
 0002:000024E0       TimeSeparator
 0001:00007910       TimeStampToDateTime
 0001:0000795C       TimeStampToMSecs
 0001:0004803C       TIndexDef.Create
 0001:0004809C       TIndexDef.Destroy
 0001:000480D0       TIndexDef.GetFields
 0001:00048164       TIndexDefs.Add
 0001:000481F0       TIndexDefs.Clear
 0001:000480F8       TIndexDefs.Create
 0001:00048134       TIndexDefs.Destroy
 0001:00048214       TIndexDefs.FindIndexForFields
 0001:000482A0       TIndexDefs.GetCount
 0001:000482A8       TIndexDefs.GetIndexForFields
 0001:000483DC       TIndexDefs.GetItem
 0001:000483EC       TIndexDefs.IndexOf
 0001:00048430       TIndexDefs.Update
 0001:00059A68       TIndexFiles.Add
 0001:00059AA4       TIndexFiles.Clear
 0001:00059A2C       TIndexFiles.Create
 0001:00059B6C       TIndexFiles.Delete
 0001:00059B34       TIndexFiles.Insert
 0001:0003ABB8       TInplaceEdit.BoundsChanged
 0001:0003A460       TInplaceEdit.CMShowingChanged
 0001:0003A3EC       TInplaceEdit.Create
 0001:0003A444       TInplaceEdit.CreateParams
 0001:0003A4FC       TInplaceEdit.DblClick
 0001:0003A9FC       TInplaceEdit.Deselect
 0001:0003A514       TInplaceEdit.EditCanModify
 0001:0003AAAC       TInplaceEdit.Hide
 0001:0003AA20       TInplaceEdit.Invalidate
 0001:0003A670       TInplaceEdit.KeyDown
 0001:0003A87C       TInplaceEdit.KeyPress
 0001:0003A964       TInplaceEdit.KeyUp
 0001:0003AC3C       TInplaceEdit.Move
 0001:0003AC48       TInplaceEdit.UpdateContents
 0001:0003AC14       TInplaceEdit.UpdateLoc
 0001:0003AC20       TInplaceEdit.Visible
 0001:0003A4B4       TInplaceEdit.WMClear
 0001:0003A4D8       TInplaceEdit.WMCut
 0001:0003A464       TInplaceEdit.WMGetDlgCode
 0001:0003A490       TInplaceEdit.WMPaste
 0001:0003A984       TInplaceEdit.WndProc
 0001:00045C1C       TIntegerField.Create
 0001:00045CEC       TIntegerField.GetAsFloat
 0001:00045D10       TIntegerField.GetAsInteger
 0001:00045D34       TIntegerField.GetAsString
 0001:00045D7C       TIntegerField.GetAsVariant
 0001:00045DB4       TIntegerField.GetDataSize
 0001:00045DBC       TIntegerField.GetText
 0001:00045EA0       TIntegerField.GetValue
 0001:00045EE4       TIntegerField.SetAsFloat
 0001:00045F00       TIntegerField.SetAsInteger
 0001:00045F58       TIntegerField.SetAsString
 0001:0004600C       TIntegerField.SetMaxValue
 0001:00046038       TIntegerField.SetMinValue
 0001:00046064       TIntegerField.SetVarValue
 0001:000043B4       TInterfacedObject.QueryInterface
 0001:000043DC       TInterfacedObject._AddRef
 0001:000043EC       TInterfacedObject._Release
 0001:0000E5C4       TList.Add
 0001:0000E5EC       TList.Clear
 0001:0000E608       TList.Delete
 0001:0000E5A0       TList.Destroy
 0001:0000E68C       TList.Error
 0001:0000E6C4       TList.Expand
 0001:0000E6E0       TList.First
 0001:0000E6EC       TList.Get
 0001:0000E750       TList.Grow
 0001:0000E788       TList.IndexOf
 0001:0000E7A8       TList.Insert
 0001:0000E848       TList.Last
 0001:0000E858       TList.Move
 0001:0000E8E4       TList.Put
 0001:0000E94C       TList.Remove
 0001:0000E970       TList.SetCapacity
 0001:0000E9E4       TList.SetCount
 0001:00050CF0       TLoginDialog.FormShow
 0001:00043FEC       TLookupList.Add
 0001:00044030       TLookupList.Clear
 0001:00043F84       TLookupList.Create
 0001:00043FBC       TLookupList.Destroy
 0001:0004406C       TLookupList.ValueOfKey
 0002:000024B0       TlsIndex
 0002:FFB9A008       TlsLast
 0001:00028018       TMainMenu.GetHandle
 0001:00027F98       TMainMenu.MenuChanged
 0001:00027FB8       TMainMenu.Merge
 0001:00027F78       TMainMenu.SetAutoMerge
 0001:00027FD4       TMainMenu.Unmerge
 0001:00050318       TMasterDataLink.ActiveChanged
 0001:000503E4       TMasterDataLink.CheckBrowseMode
 0001:000502A0       TMasterDataLink.Create
 0001:000502E8       TMasterDataLink.Destroy
 0001:00050404       TMasterDataLink.LayoutChanged
 0001:00050410       TMasterDataLink.RecordChanged
 0001:0005045C       TMasterDataLink.SetFieldNames
 0001:00047FBC       TMemoField.Create
 0001:000110D4       TMemoryStream.Clear
 0001:000110A4       TMemoryStream.Destroy
 0001:0001114C       TMemoryStream.Realloc
 0001:000110F0       TMemoryStream.SetCapacity
 0001:0001111C       TMemoryStream.SetSize
 0001:0001120C       TMemoryStream.Write
 0001:00027ACC       TMenu.Create
 0001:00027B2C       TMenu.Destroy
 0001:00027CD4       TMenu.DispatchCommand
 0001:00027CF8       TMenu.DispatchPopup
 0001:00027C34       TMenu.FindItem
 0001:00027B58       TMenu.GetChildren
 0001:00027B74       TMenu.GetHandle
 0001:00027C64       TMenu.GetHelpContext
 0001:00027DA8       TMenu.IsShortCut
 0001:00027F74       TMenu.MenuChanged
 0001:00027B80       TMenu.SetChildOrder
 0001:00027F68       TMenu.SetWindowHandle
 0001:00027948       TMenuItem.Add
 0001:00027914       TMenuItem.Click
 0001:00026F04       TMenuItem.Create
 0001:00027488       TMenuItem.DefineProperties
 0001:000278AC       TMenuItem.Delete
 0001:00026F44       TMenuItem.Destroy
 0001:000276FC       TMenuItem.GetChildren
 0001:00027654       TMenuItem.GetCount
 0001:000273F4       TMenuItem.GetHandle
 0001:00027664       TMenuItem.GetItem
 0001:0002769C       TMenuItem.GetMenuIndex
 0001:00027A38       TMenuItem.GetParentComponent
 0001:000274CC       TMenuItem.HasParent
 0001:00027930       TMenuItem.IndexOf
 0001:000277B0       TMenuItem.Insert
 0001:000279D4       TMenuItem.MenuChanged
 0001:00027964       TMenuItem.Remove
 0001:000274D0       TMenuItem.SetBreak
 0001:000274E0       TMenuItem.SetCaption
 0001:00027550       TMenuItem.SetChecked
 0001:00027734       TMenuItem.SetChildOrder
 0001:00027754       TMenuItem.SetDefault
 0001:0002759C       TMenuItem.SetEnabled
 0001:00027610       TMenuItem.SetGroupIndex
 0001:000276B4       TMenuItem.SetMenuIndex
 0001:00027A4C       TMenuItem.SetParentComponent
 0001:00027AA0       TMenuItem.SetRadioItem
 0001:00027684       TMenuItem.SetShortCut
 0001:00027690       TMenuItem.SetVisible
 0001:00018C40       TMetafile.Assign
 0001:00018BD4       TMetafile.Create
 0001:00018C14       TMetafile.Destroy
 0001:00018CD4       TMetafile.Draw
 0001:00018D68       TMetafile.GetEmpty
 0001:00018D70       TMetafile.GetHeight
 0001:00018DD4       TMetafile.GetPalette
 0001:00018E60       TMetafile.GetWidth
 0001:000196D0       TMetafile.LoadFromClipboardFormat
 0001:00018EC4       TMetafile.LoadFromStream
 0001:00018F40       TMetafile.ReadData
 0001:00018F9C       TMetafile.ReadEMFStream
 0001:0001906C       TMetafile.ReadWMFStream
 0001:00019790       TMetafile.SaveToClipboardFormat
 0001:00019194       TMetafile.SaveToFile
 0001:00019220       TMetafile.SaveToStream
 0001:0001923C       TMetafile.SetHeight
 0001:000192B0       TMetafile.SetMMHeight
 0001:000192EC       TMetafile.SetMMWidth
 0001:00019328       TMetafile.SetWidth
 0001:0001939C       TMetafile.TestEMF
 0001:00019480       TMetafile.WriteData
 0001:00019504       TMetafile.WriteEMFStream
 0001:00019588       TMetafile.WriteWMFStream
 0001:00018B98       TMetafileImage.Destroy
 0001:00018BD0       TMetafileImage.FreeHandle
 0001:0005C698       TMyBrush.Changed
 0001:0005C604       TMyFont.Changed
 0001:0005C6FC       TNewInplaceEdit.Create
 0001:0005C6A8       TNewInplaceEdit.CreateParams
 0001:0005C738       TNewInplaceEdit.KeyPress
 0001:0005C6D0       TNewInplaceEdit.SetAlignment
 0001:00045ADC       TNumericField.Create
 0001:00045B18       TNumericField.RangeError
 0001:00045BB4       TNumericField.SetDisplayFormat
 0001:00045BE8       TNumericField.SetEditFormat
 0001:00001F2C       TObject.ClassInfo
 0001:00001D18       TObject.ClassName
 0001:00001D2C       TObject.ClassNameIs
 0001:00001D54       TObject.ClassParent
 0001:00001D14       TObject.ClassType
 0001:00001D9C       TObject.Create
 0001:00001F38       TObject.DefaultHandler
 0001:00001DB8       TObject.Destroy
 0001:00001F3C       TObject.Dispatch
 0001:00001FB4       TObject.FieldAddress
 0001:00001DC4       TObject.Free
 0001:00001D74       TObject.FreeInstance
 0001:00001E24       TObject.GetInterface
 0001:00001E54       TObject.GetInterfaceEntry
 0001:00001DD0       TObject.InitInstance
 0001:00001F64       TObject.MethodAddress
 0001:00001D60       TObject.NewInstance
 0001:00001F30       TObject.SafeCallException
 0001:000612C0       TObjectList.Delete
 0001:00061268       TObjectList.Destroy
 0001:000612E4       TObjectList.Remove
 0002:00002E28       tot
 0001:00064020       totbgt
 0001:0005087C       TPasswordDialog.AddButtonClick
 0001:000507F4       TPasswordDialog.EditChange
 0001:000509A4       TPasswordDialog.OKButtonClick
 0001:00050978       TPasswordDialog.RemoveAllButtonClick
 0001:000508FC       TPasswordDialog.RemoveButtonClick
 0001:0001609C       TPen.Assign
 0001:0001603C       TPen.Create
 0001:00016078       TPen.Destroy
 0001:000161BC       TPen.GetColor
 0001:000161EC       TPen.GetHandle
 0001:000162BC       TPen.GetStyle
 0001:000162EC       TPen.GetWidth
 0001:000161C4       TPen.SetColor
 0001:00016284       TPen.SetHandle
 0001:000162A8       TPen.SetMode
 0001:000162C4       TPen.SetStyle
 0001:000162F4       TPen.SetWidth
 0001:0000EE48       TPersistent.Assign
 0001:0000EF50       TPersistent.AssignTo
 0001:0000EF5C       TPersistent.DefineProperties
 0001:0000EE18       TPersistent.Destroy
 0001:0000EF60       TPersistent.GetNamePath
 0001:0000F010       TPersistent.GetOwner
 0001:000188E0       TPicture.Assign
 0001:00018640       TPicture.AssignTo
 0001:0001893C       TPicture.Changed
 0001:00018B4C       TPicture.DefineProperties
 0001:00018614       TPicture.Destroy
 0001:000186D8       TPicture.GetBitmap
 0001:0001879C       TPicture.LoadFromClipboardFormat
 0001:00018960       TPicture.Progress
 0001:0001889C       TPicture.SaveToClipboardFormat
 0001:000186F0       TPicture.SetGraphic
 0001:000188C8       TPicture.SupportsClipboardFormat
 0001:000282F4       TPopupMenu.Create
 0001:0002834C       TPopupMenu.Destroy
 0001:00028390       TPopupMenu.GetHelpContext
 0001:000283A0       TPopupMenu.Popup
 0001:00028398       TPopupMenu.SetHelpContext
 0001:0001CC0C       TPrinter.BeginDoc
 0001:0001C9DC       TPrinter.Create
 0001:0001CA18       TPrinter.Destroy
 0001:0001CCA8       TPrinter.EndDoc
 0001:0001CFC0       TPrinter.GetCanvas
 0001:0001CFE4       TPrinter.GetPageHeight
 0001:0001D004       TPrinter.GetPageWidth
 0001:0001CCE0       TPrinter.GetPrinter
 0001:0001D024       TPrinter.GetPrinterIndex
 0001:0001D040       TPrinter.GetPrinters
 0001:0001CD8C       TPrinter.SetPrinter
 0001:00035770       TPrinterSetupDialog.Execute
 0001:00005768       TrackPopupMenu
 0001:00009A84       TranslateDateFormat
 0001:00005770       TranslateMDISysAccel
 0001:00005778       TranslateMessage
 0001:000171AC       TransparentStretchBlt
 0001:00011970       TReader.DefineBinaryProperty
 0001:0001193C       TReader.DefineProperty
 0001:000118D8       TReader.Destroy
 0001:00011A4C       TReader.EndOfList
 0001:00011A64       TReader.Error
 0001:000133A4       TReader.FindAncestorComponent
 0001:00011A8C       TReader.FindMethod
 0001:00011BF8       TReader.FlushBuffer
 0001:00011C5C       TReader.GetPosition
 0001:00011C78       TReader.NextValue
 0001:00011C9C       TReader.Read
 0001:00011D60       TReader.ReadBoolean
 0001:00011D78       TReader.ReadChar
 0001:00011DFC       TReader.ReadCollection
 0001:000120A4       TReader.ReadComponent
 0001:00012360       TReader.ReadFloat
 0001:000123A4       TReader.ReadIdent
 0001:0001245C       TReader.ReadInteger
 0001:000124C8       TReader.ReadListBegin
 0001:000124D4       TReader.ReadListEnd
 0001:000124E0       TReader.ReadPrefix
 0001:00012C70       TReader.ReadRootComponent
 0001:00012F4C       TReader.ReadSignature
 0001:00012FB4       TReader.ReadStr
 0001:00012FF8       TReader.ReadString
 0001:0001305C       TReader.ReadValue
 0001:00013464       TReader.ReferenceName
 0001:00013480       TReader.SetName
 0001:00011264       TResourceStream.Create
 0001:000113A4       TResourceStream.Destroy
 0001:000113DC       TResourceStream.Write
 0001:0000677C       Trim
 0001:0002E238       TScreen.Create
 0001:0002E3D4       TScreen.Destroy
 0001:0002E80C       TScreen.GetCursors
 0001:0002E7F8       TScreen.GetDataModule
 0001:0002E804       TScreen.GetDataModuleCount
 0001:0002E448       TScreen.GetForm
 0001:0002E454       TScreen.GetFormCount
 0001:0002E438       TScreen.GetHeight
 0001:0002E440       TScreen.GetWidth
 0001:0002E834       TScreen.SetCursor
 0001:0002A644       TScrollingWinControl.AlignControls
 0001:0002A838       TScrollingWinControl.AutoScrollInView
 0001:0002AA48       TScrollingWinControl.ChangeScale
 0001:0002A584       TScrollingWinControl.Create
 0001:0002A620       TScrollingWinControl.CreateParams
 0001:0002A630       TScrollingWinControl.CreateWnd
 0001:0002A5E8       TScrollingWinControl.Destroy
 0001:0002A850       TScrollingWinControl.ScrollInView
 0001:0002A6EC       TScrollingWinControl.SetAutoScroll
 0001:0002A728       TScrollingWinControl.SetHorzScrollBar
 0001:0002A734       TScrollingWinControl.SetVertScrollBar
 0001:0002AADC       TScrollingWinControl.WMHScroll
 0001:0002AA6C       TScrollingWinControl.WMSize
 0001:0002AB00       TScrollingWinControl.WMVScroll
 0001:000532E8       TSession.AddPassword
 0001:00053420       TSession.CloseDatabase
 0001:000531F0       TSession.Create
 0001:00053270       TSession.Destroy
 0001:00053754       TSession.FindDatabase
 0001:0005387C       TSession.GetActive
 0001:00053884       TSession.GetAliasDriverName
 0001:00053988       TSession.GetAliasParams
 0001:00054CA4       TSession.GetConfigMode
 0001:00053B50       TSession.GetConfigParams
 0001:00053CD0       TSession.GetDriverParams
 0001:00053EC8       TSession.GetHandle
 0001:00053EF4       TSession.GetNetFileDir
 0001:000540CC       TSession.GetPassword
 0001:00053FEC       TSession.GetPrivateDir
 0001:00054504       TSession.Loaded
 0001:000545F0       TSession.Notification
 0001:000546E8       TSession.OpenDatabase
 0001:00054A34       TSession.RemoveAllPasswords
 0001:00054A78       TSession.RemovePassword
 0001:000546F4       TSession.SessionNameStored
 0001:00054B64       TSession.SetActive
 0001:00054B90       TSession.SetAutoSessionName
 0001:00054CFC       TSession.SetConfigMode
 0001:00054D5C       TSession.SetName
 0001:00054D7C       TSession.SetNetFileDir
 0001:00054E0C       TSession.SetPrivateDir
 0001:00054E8C       TSession.SetSessionName
 0001:00054FD8       TSession.SetTraceFlags
 0001:00053024       TSessionList.Create
 0001:00053080       TSessionList.Destroy
 0001:00053194       TSessionList.FindSession
 0001:00053110       TSessionList.GetSessionByName
 0001:00019B6C       TSharedImage.Reference
 0001:00019B70       TSharedImage.Release
 0001:00046084       TSmallintField.Create
 0001:000460D4       TSmallintField.GetDataSize
 0001:00010DA4       TStream.CopyFrom
 0001:00010C48       TStream.GetPosition
 0001:00010C6C       TStream.GetSize
 0001:00010CAC       TStream.ReadBuffer
 0001:00010E58       TStream.ReadComponent
 0001:00010C5C       TStream.SetPosition
 0001:00010CA8       TStream.SetSize
 0001:00010D28       TStream.WriteBuffer
 0001:000141EC       TStreamAdapter.Clone
 0001:00014138       TStreamAdapter.Commit
 0001:00014034       TStreamAdapter.CopyTo
 0001:00013E38       TStreamAdapter.Create
 0001:00014150       TStreamAdapter.LockRegion
 0001:00013E74       TStreamAdapter.Read
 0001:00014144       TStreamAdapter.Revert
 0001:00013F44       TStreamAdapter.Seek
 0001:00013FC4       TStreamAdapter.SetSize
 0001:00014168       TStreamAdapter.Stat
 0001:0001415C       TStreamAdapter.UnlockRegion
 0001:00013EDC       TStreamAdapter.Write
 0001:0005E1E0       TStringAlignGrid.BrushChanged
 0001:0005E398       TStringAlignGrid.CanEditShow
 0001:0005DEA4       TStringAlignGrid.ColumnMoved
 0001:00060CD0       TStringAlignGrid.ColWidthsChanged
 0001:000604A4       TStringAlignGrid.CompareColString
 0001:00060558       TStringAlignGrid.CompareRowString
 0001:0005C7C0       TStringAlignGrid.Create
 0001:0005E36C       TStringAlignGrid.CreateEditor
 0001:0005E890       TStringAlignGrid.DefineProperties
 0001:0005C89C       TStringAlignGrid.Destroy
 0001:0005E6AC       TStringAlignGrid.doEnter
 0001:0005E630       TStringAlignGrid.doExit
 0001:0006105C       TStringAlignGrid.DrawCell
 0001:0005E1D4       TStringAlignGrid.FontChanged
 0001:0005D3E4       TStringAlignGrid.GetAlign
 0001:0005D404       TStringAlignGrid.GetAlignCell
 0001:0005D598       TStringAlignGrid.GetBrushCell
 0001:0005E12C       TStringAlignGrid.GetBrushCellComplete
 0001:0005E020       TStringAlignGrid.GetBrushCellInternal
 0001:0005D5A4       TStringAlignGrid.GetBrushCol
 0001:0005DFB8       TStringAlignGrid.GetBrushColRowInternal
 0001:0005D5B8       TStringAlignGrid.GetBrushFixedCol
 0001:0005D5E0       TStringAlignGrid.GetBrushFixedRow
 0001:0005D5CC       TStringAlignGrid.GetBrushRow
 0001:0005D5F4       TStringAlignGrid.GetColorCell
 0001:0005D53C       TStringAlignGrid.GetEditCell
 0001:0005E094       TStringAlignGrid.GetFontCellComplete
 0001:0005D7FC       TStringAlignGrid.GetHintCell
 0001:0005D744       TStringAlignGrid.GetSelColorCell
 0001:0005D7A0       TStringAlignGrid.GetSelFontColorCell
 0001:0005E5BC       TStringAlignGrid.HideEdit
 0001:0005CE54       TStringAlignGrid.Initialize
 0001:0005D830       TStringAlignGrid.InsertCol
 0001:0005DA04       TStringAlignGrid.InsertRow
 0001:0006060C       TStringAlignGrid.is_fixed
 0001:00060BB0       TStringAlignGrid.KeyDown
 0001:0005F7B8       TStringAlignGrid.ListToCells
 0001:0005EE14       TStringAlignGrid.Loaded
 0001:0005E7A4       TStringAlignGrid.mcn_edit_cancel
 0001:0005E7E0       TStringAlignGrid.mcn_edit_exit
 0001:0005E6E4       TStringAlignGrid.mcn_edit_return
 0001:0005E81C       TStringAlignGrid.mcn_edit_show
 0001:0005E858       TStringAlignGrid.mcn_edit_show_it
 0001:0005E2DC       TStringAlignGrid.MouseMove
 0001:00060690       TStringAlignGrid.NextCell
 0001:00060634       TStringAlignGrid.NextEditableCell
 0001:0005EE98       TStringAlignGrid.ReadAlignCell
 0001:0005EFF8       TStringAlignGrid.ReadAlignCol
 0001:0005F118       TStringAlignGrid.ReadAlignColRow
 0001:0005F040       TStringAlignGrid.ReadAlignRow
 0001:00060070       TStringAlignGrid.ReadBrush
 0001:0005FCEC       TStringAlignGrid.ReadBrushCell
 0001:0005FE64       TStringAlignGrid.ReadBrushCellInt
 0001:0005FD10       TStringAlignGrid.ReadBrushCol
 0001:0005FF6C       TStringAlignGrid.ReadBrushColRow
 0001:0005FD34       TStringAlignGrid.ReadBrushRow
 0001:0005F638       TStringAlignGrid.ReadCells
 0001:000600BC       TStringAlignGrid.ReadColorCell
 0001:0006011C       TStringAlignGrid.ReadColorCol
 0001:0006014C       TStringAlignGrid.ReadColorColRow
 0001:00060128       TStringAlignGrid.ReadColorRow
 0001:0005F204       TStringAlignGrid.ReadEditCell
 0001:0005F364       TStringAlignGrid.ReadEditCol
 0001:0005F3F4       TStringAlignGrid.ReadEditColRow
 0001:0005F388       TStringAlignGrid.ReadEditRow
 0001:0005F01C       TStringAlignGrid.ReadFixedAlignCol
 0001:0005F064       TStringAlignGrid.ReadFixedAlignRow
 0001:0005FD58       TStringAlignGrid.ReadFixedBrushCol
 0001:0005FD7C       TStringAlignGrid.ReadFixedBrushRow
 0001:00060134       TStringAlignGrid.ReadFixedColorCol
 0001:00060140       TStringAlignGrid.ReadFixedColorRow
 0001:0005F8B4       TStringAlignGrid.ReadFixedFontCol
 0001:0005F8D8       TStringAlignGrid.ReadFixedFontRow
 0001:0005FC34       TStringAlignGrid.ReadFont
 0001:0005F848       TStringAlignGrid.ReadFontCell
 0001:0005F9C0       TStringAlignGrid.ReadFontCellInt
 0001:0005F86C       TStringAlignGrid.ReadFontCol
 0001:0005FAC8       TStringAlignGrid.ReadFontColRow
 0001:0005F890       TStringAlignGrid.ReadFontRow
 0001:0005F4E0       TStringAlignGrid.ReadHint
 0001:0006020C       TStringAlignGrid.ReadSelColorCell
 0001:00060290       TStringAlignGrid.ReadSelColorCol
 0001:000603D0       TStringAlignGrid.ReadSelColorColRow
 0001:000602B4       TStringAlignGrid.ReadSelColorRow
 0001:00060CF8       TStringAlignGrid.RowHeightsChanged
 0001:0005DD90       TStringAlignGrid.RowMoved
 0001:0005D3EC       TStringAlignGrid.SetAlign
 0001:0005D618       TStringAlignGrid.SetColorCell
 0001:0005D648       TStringAlignGrid.SetColorCol
 0001:0005D698       TStringAlignGrid.SetColorRow
 0001:0005D4AC       TStringAlignGrid.SetFixAlignCol
 0001:0005D4F4       TStringAlignGrid.SetFixAlignRow
 0001:0005D670       TStringAlignGrid.SetFixColorCol
 0001:0005D6C0       TStringAlignGrid.SetFixColorRow
 0001:0005D6E8       TStringAlignGrid.SetFixedColor
 0001:0005D714       TStringAlignGrid.SetSelCellColor
 0001:0005D72C       TStringAlignGrid.SetSelFontColor
 0001:0005E5A4       TStringAlignGrid.ShowEdit
 0001:0005E1EC       TStringAlignGrid.ShowHintCell
 0001:00060B60       TStringAlignGrid.WMChar
 0001:0005EF3C       TStringAlignGrid.WriteAlignCell
 0001:0005F088       TStringAlignGrid.WriteAlignCol
 0001:0005F1A4       TStringAlignGrid.WriteAlignColRow
 0001:0005F0D0       TStringAlignGrid.WriteAlignRow
 0001:00060040       TStringAlignGrid.WriteBrush
 0001:0005FDA0       TStringAlignGrid.WriteBrushCell
 0001:0005FED8       TStringAlignGrid.WriteBrushCellInt
 0001:0005FDD4       TStringAlignGrid.WriteBrushCol
 0001:0005FFD4       TStringAlignGrid.WriteBrushColRow
 0001:0005FDF8       TStringAlignGrid.WriteBrushRow
 0001:0005F6E0       TStringAlignGrid.WriteCells
 0001:0005F2A8       TStringAlignGrid.WriteEditCell
 0001:0005F3AC       TStringAlignGrid.WriteEditCol
 0001:0005F480       TStringAlignGrid.WriteEditColRow
 0001:0005F3D0       TStringAlignGrid.WriteEditRow
 0001:0005F0AC       TStringAlignGrid.WriteFixedAlignCol
 0001:0005F0F4       TStringAlignGrid.WriteFixedAlignRow
 0001:0005FE1C       TStringAlignGrid.WriteFixedBrushCol
 0001:0005FE40       TStringAlignGrid.WriteFixedBrushRow
 0001:0005F978       TStringAlignGrid.WriteFixedFontCol
 0001:0005F99C       TStringAlignGrid.WriteFixedFontRow
 0001:0005FB9C       TStringAlignGrid.WriteFont
 0001:0005F8FC       TStringAlignGrid.WriteFontCell
 0001:0005FA34       TStringAlignGrid.WriteFontCellInt
 0001:0005F930       TStringAlignGrid.WriteFontCol
 0001:0005FB30       TStringAlignGrid.WriteFontColRow
 0001:0005F954       TStringAlignGrid.WriteFontRow
 0001:0005F588       TStringAlignGrid.WriteHint
 0001:000602D8       TStringAlignGrid.WriteSelColorCell
 0001:00060388       TStringAlignGrid.WriteSelColorCol
 0001:00060448       TStringAlignGrid.WriteSelColorColRow
 0001:000603AC       TStringAlignGrid.WriteSelColorRow
 0001:0004556C       TStringField.CheckTypeSize
 0001:0004551C       TStringField.Create
 0001:000455C4       TStringField.GetAsBoolean
 0001:00045630       TStringField.GetAsDateTime
 0001:00045688       TStringField.GetAsFloat
 0001:000456E0       TStringField.GetAsInteger
 0001:00045730       TStringField.GetAsString
 0001:00045754       TStringField.GetAsVariant
 0001:000457B8       TStringField.GetDataSize
 0001:000457C0       TStringField.GetDefaultWidth
 0001:000457C8       TStringField.GetText
 0001:00045854       TStringField.GetValue
 0001:000458CC       TStringField.SetAsBoolean
 0001:00045924       TStringField.SetAsDateTime
 0001:00045978       TStringField.SetAsFloat
 0001:000459D0       TStringField.SetAsInteger
 0001:00045A20       TStringField.SetAsString
 0001:00045A8C       TStringField.SetVarValue
 0001:00040A6C       TStringGrid.ColumnMoved
 0001:00040970       TStringGrid.Create
 0001:000409BC       TStringGrid.Destroy
 0001:00040C74       TStringGrid.DrawCell
 0001:00040EA4       TStringGrid.GetCells
 0001:00040EE8       TStringGrid.GetCols
 0001:00040AD8       TStringGrid.GetEditText
 0001:00040EF4       TStringGrid.GetObjects
 0001:00040F24       TStringGrid.GetRows
 0001:00040AA4       TStringGrid.RowMoved
 0001:00040F30       TStringGrid.SetCells
 0001:00040B1C       TStringGrid.SetEditText
 0001:00040F80       TStringGrid.SetObjects
 0001:000406B0       TStringGridStrings.Add
 0001:00040578       TStringGridStrings.Assign
 0001:00040760       TStringGridStrings.Clear
 0001:00040534       TStringGridStrings.Create
 0001:000407D4       TStringGridStrings.Delete
 0001:0004081C       TStringGridStrings.Get
 0001:0004085C       TStringGridStrings.GetCount
 0001:00040880       TStringGridStrings.GetObject
 0001:000408B4       TStringGridStrings.Insert
 0001:00040900       TStringGridStrings.Put
 0001:00040930       TStringGridStrings.PutObject
 0001:00040960       TStringGridStrings.SetUpdateState
 0001:000104BC       TStringList.Add
 0001:00010554       TStringList.Changed
 0001:00010574       TStringList.Changing
 0001:00010594       TStringList.Clear
 0001:000105D0       TStringList.Delete
 0001:00010460       TStringList.Destroy
 0001:00010670       TStringList.Exchange
 0001:00010730       TStringList.Find
 0001:0001079C       TStringList.Get
 0001:0001080C       TStringList.GetCapacity
 0001:00010810       TStringList.GetCount
 0001:00010814       TStringList.GetObject
 0001:000108B4       TStringList.IndexOf
 0001:000108F4       TStringList.Insert
 0001:000109F0       TStringList.Put
 0001:00010A8C       TStringList.PutObject
 0001:00010BC0       TStringList.SetCapacity
 0001:00010BE0       TStringList.SetSorted
 0001:00010C00       TStringList.SetUpdateState
 0001:00010C18       TStringList.Sort
 0001:0000F6E0       TStrings.Add
 0001:0000F708       TStrings.AddObject
 0001:0000F730       TStrings.AddStrings
 0001:0000F7E8       TStrings.Assign
 0001:0000F858       TStrings.BeginUpdate
 0001:0000F8CC       TStrings.DefineProperties
 0001:0000F6B0       TStrings.Destroy
 0001:0000F918       TStrings.EndUpdate
 0001:0000F930       TStrings.Equals
 0001:0000F9DC       TStrings.Error
 0001:0000FA14       TStrings.Exchange
 0001:0000FAFC       TStrings.GetCapacity
 0001:0000FB08       TStrings.GetName
 0001:0000FB58       TStrings.GetObject
 0001:0000FB5C       TStrings.GetText
 0001:0000FBB0       TStrings.GetTextStr
 0001:0000FC98       TStrings.GetValue
 0001:0000FD24       TStrings.IndexOf
 0001:0000FDA4       TStrings.IndexOfName
 0001:0000FE68       TStrings.InsertObject
 0001:0000FE98       TStrings.LoadFromFile
 0001:0000FEEC       TStrings.LoadFromStream
 0001:0000FF98       TStrings.Move
 0001:00010048       TStrings.Put
 0001:00010080       TStrings.PutObject
 0001:00010134       TStrings.SaveToFile
 0001:0001018C       TStrings.SaveToStream
 0001:000101E8       TStrings.SetCapacity
 0001:000101EC       TStrings.SetStringsAdapter
 0001:00010224       TStrings.SetText
 0001:00010274       TStrings.SetTextStr
 0001:00010334       TStrings.SetUpdateState
 0001:00010338       TStrings.SetValue
 0001:0005AEE4       TTable.ApplyRange
 0001:0005AF08       TTable.CancelRange
 0001:0005AAF4       TTable.CloseIndexFile
 0001:00059BEC       TTable.Create
 0001:00059E30       TTable.CreateHandle
 0001:0005B22C       TTable.DataEvent
 0001:00059C78       TTable.Destroy
 0001:0005A53C       TTable.DestroyHandle
 0001:0005B09C       TTable.DestroyLookupCursor
 0001:0005B1D4       TTable.DoOnNewRecord
 0001:0005B248       TTable.GetCanModify
 0001:0005B12C       TTable.GetDataSource
 0001:00059CC0       TTable.GetHandle
 0001:0005A6EC       TTable.GetIndexFieldNames
 0001:0005A718       TTable.GetIndexName
 0001:00059F18       TTable.GetLanguageDriverName
 0001:0005AF54       TTable.GetLookupCursor
 0001:0005B1A4       TTable.GetMasterFields
 0001:0005A2D8       TTable.InitFieldDefs
 0001:0005AE10       TTable.IsProductionIndex
 0001:0005AABC       TTable.OpenIndexFile
 0001:0005A25C       TTable.PrepareCursor
 0001:0005B138       TTable.SetDataSource
 0001:0005B3B8       TTable.SetExclusive
 0001:0005AA84       TTable.SetIndexFieldNames
 0001:0005AAAC       TTable.SetIndexFiles
 0001:0005AAA0       TTable.SetIndexName
 0001:0005B1C4       TTable.SetMasterFields
 0001:0005B3D4       TTable.SetReadOnly
 0001:0005B3F0       TTable.SetTableName
 0001:0005B43C       TTable.SetTableType
 0001:0005ABC0       TTable.UpdateIndexDefs
 0001:0000EB3C       TThreadList.Add
 0001:0000EA74       TThreadList.Create
 0001:0000EAC0       TThreadList.Destroy
 0001:0000EB9C       TThreadList.LockList
 0001:0000EBB4       TThreadList.Remove
 0001:0000EC04       TThreadList.UnlockList
 0001:00046D5C       TTimeField.Create
 0001:00046D98       TTimeField.GetDataSize
 0001:00047180       TVarBytesField.Create
 0001:000471CC       TVarBytesField.GetDataSize
 0001:00021114       TWinControl.AlignControls
 0001:000214A8       TWinControl.Broadcast
 0001:000238F0       TWinControl.CanFocus
 0001:0002350C       TWinControl.ChangeScale
 0001:00022EC0       TWinControl.CMChanged
 0001:00022ED4       TWinControl.CMChildKey
 0001:00022F98       TWinControl.CMColorChanged
 0001:00023134       TWinControl.CMControlListChange
 0001:0002303C       TWinControl.CMCtl3DChanged
 0001:00022FFC       TWinControl.CMCursorChanged
 0001:00022EA0       TWinControl.CMDesignHitTest
 0001:00022EF0       TWinControl.CMDialogChar
 0001:00022EE8       TWinControl.CMDialogKey
 0001:000230DC       TWinControl.CMDrag
 0001:00022F58       TWinControl.CMEnabledChanged
 0001:00022E78       TWinControl.CMEnter
 0001:00022E8C       TWinControl.CMExit
 0001:00022EF8       TWinControl.CMFocusChanged
 0001:000230CC       TWinControl.CMFontChange
 0001:00022FC0       TWinControl.CMFontChanged
 0001:00023838       TWinControl.CMInvalidate
 0001:0002307C       TWinControl.CMParentCtl3DChanged
 0001:000219B4       TWinControl.CMRecreateWnd
 0001:00022E60       TWinControl.CMShowHintChanged
 0001:00022F30       TWinControl.CMShowingChanged
 0001:000230BC       TWinControl.CMSysColorChange
 0001:00023148       TWinControl.CMSysFontChanged
 0001:000230D4       TWinControl.CMTimeChange
 0001:00022F00       TWinControl.CMVisibleChanged
 0001:000230C4       TWinControl.CMWinIniChange
 0001:00023318       TWinControl.CNChar
 0001:000231EC       TWinControl.CNKeyDown
 0001:000232C4       TWinControl.CNKeyUp
 0001:000233C0       TWinControl.CNSysChar
 0001:00023364       TWinControl.CNSysKeyDown
 0001:00021254       TWinControl.ContainsControl
 0001:00021B9C       TWinControl.ControlAtPos
 0001:00020B30       TWinControl.Create
 0001:000218EC       TWinControl.CreateHandle
 0001:00021580       TWinControl.CreateParams
 0001:00021510       TWinControl.CreateSubClass
 0001:000217F8       TWinControl.CreateWindowHandle
 0001:000216A0       TWinControl.CreateWnd
 0001:00021E10       TWinControl.DefaultHandler
 0001:00020BC4       TWinControl.Destroy
 0001:00021958       TWinControl.DestroyHandle
 0001:00021894       TWinControl.DestroyWindowHandle
 0001:0002183C       TWinControl.DestroyWnd
 0001:00021224       TWinControl.DisableAlign
 0001:000229A4       TWinControl.DoEnter
 0001:000229C4       TWinControl.DoExit
 0001:00022A0C       TWinControl.DoKeyDown
 0001:00022BCC       TWinControl.DoKeyPress
 0001:00022B08       TWinControl.DoKeyUp
 0001:0002122C       TWinControl.EnableAlign
 0001:00023C50       TWinControl.FindNextControl
 0001:00020C60       TWinControl.FixupTabList
 0001:0002395C       TWinControl.Focused
 0001:00023DC4       TWinControl.GetChildren
 0001:000239B8       TWinControl.GetClientOrigin
 0001:000239D8       TWinControl.GetClientRect
 0001:00021458       TWinControl.GetControl
 0001:00021488       TWinControl.GetControlCount
 0001:00023790       TWinControl.GetDeviceContext
 0001:000239A4       TWinControl.GetHandle
 0001:00023A44       TWinControl.GetTabOrder
 0001:00023BF8       TWinControl.GetTabOrderList
 0001:00023B3C       TWinControl.HandleAllocated
 0001:00023980       TWinControl.HandleNeeded
 0001:0002131C       TWinControl.InsertControl
 0001:00023828       TWinControl.Invalidate
 0001:00021C5C       TWinControl.IsControlMouseMsg
 0001:00023A14       TWinControl.IsCtl3DStored
 0001:000229E4       TWinControl.KeyDown
 0001:00022BAC       TWinControl.KeyPress
 0001:00022AE0       TWinControl.KeyUp
 0001:00021B24       TWinControl.MainWndProc
 0001:000214E8       TWinControl.NotifyControls
 0001:0002204C       TWinControl.PaintControls
 0001:00021EF8       TWinControl.PaintHandler
 0001:00022254       TWinControl.PaintTo
 0001:00022020       TWinControl.PaintWindow
 0001:00022DB8       TWinControl.PaletteChanged
 0001:00020D34       TWinControl.ReadState
 0001:0002124C       TWinControl.Realign
 0001:0002199C       TWinControl.RecreateWnd
 0001:000213DC       TWinControl.RemoveControl
 0001:000238A4       TWinControl.Repaint
 0001:00022948       TWinControl.ResetIme
 0001:000234C4       TWinControl.ScaleControls
 0001:0002356C       TWinControl.ScrollBy
 0001:00023D80       TWinControl.SelectFirst
 0001:00023D54       TWinControl.SelectNext
 0001:000233F4       TWinControl.SetBounds
 0001:00023E0C       TWinControl.SetChildOrder
 0001:000239F0       TWinControl.SetCtl3D
 0001:00023924       TWinControl.SetFocus
 0001:000228A0       TWinControl.SetIme
 0001:00023A20       TWinControl.SetParentCtl3D
 0001:00023AC4       TWinControl.SetTabOrder
 0001:00023ADC       TWinControl.SetTabStop
 0001:00023730       TWinControl.SetZOrder
 0001:00023644       TWinControl.ShowControl
 0001:00023888       TWinControl.Update
 0001:00021AE4       TWinControl.UpdateControlState
 0001:00022C38       TWinControl.WMChar
 0001:00022CD0       TWinControl.WMCharToItem
 0001:00022500       TWinControl.WMCommand
 0001:000225D4       TWinControl.WMCompareItem
 0001:000225F8       TWinControl.WMDeleteItem
 0001:00022D44       TWinControl.WMDestroy
 0001:0002261C       TWinControl.WMDrawItem
 0001:00022664       TWinControl.WMEraseBkgnd
 0001:00022574       TWinControl.WMFontChange
 0001:00022594       TWinControl.WMHScroll
 0001:0002288C       TWinControl.WMIMEEndComp
 0001:00022878       TWinControl.WMIMEStartComp
 0001:00022AA0       TWinControl.WMKeyDown
 0001:00022B6C       TWinControl.WMKeyUp
 0001:00022864       TWinControl.WMKillFocus
 0001:00022640       TWinControl.WMMeasureItem
 0001:00022750       TWinControl.WMMove
 0001:00022D78       TWinControl.WMNCDestroy
 0001:00022D94       TWinControl.WMNCHitTest
 0001:00022520       TWinControl.WMNotify
 0001:000223A4       TWinControl.WMPaint
 0001:00022E40       TWinControl.WMPaletteChanged
 0001:00022CF0       TWinControl.WMParentNotify
 0001:00022E1C       TWinControl.WMQueryNewPalette
 0001:00022764       TWinControl.WMSetCursor
 0001:00022850       TWinControl.WMSetFocus
 0001:00022730       TWinControl.WMSize
 0001:00022544       TWinControl.WMSysColorChange
 0001:00022C58       TWinControl.WMSysCommand
 0001:00022AC0       TWinControl.WMSysKeyDown
 0001:00022B8C       TWinControl.WMSysKeyUp
 0001:00022584       TWinControl.WMTimeChange
 0001:00022D24       TWinControl.WMVKeyToItem
 0001:000225B4       TWinControl.WMVScroll
 0001:000226A0       TWinControl.WMWindowPosChanged
 0001:00022560       TWinControl.WMWinIniChange
 0001:00021CE8       TWinControl.WndProc
 0001:000460DC       TWordField.Create
 0001:0004612C       TWordField.GetDataSize
 0001:000134B4       TWriter.Write
 0001:0001351C       TWriter.WriteBoolean
 0001:00013538       TWriter.WriteInteger
 0001:000135B0       TWriter.WriteListBegin
 0001:000135BC       TWriter.WriteListEnd
 0001:000135C8       TWriter.WriteString
 0001:00013628       TWriter.WriteValue
 0001:0000CE84       TypInfo
 0002:000023E0       Unassigned
 0001:00005780       UnhookWindowsHookEx
 0001:00005788       UnionRect
 0001:00002CF8       UniqueString
 0001:000057D4       UnlockResource
 0001:000052B8       UnrealizeObject
 0001:00005790       UnregisterClass
 0001:000042B8       UnregisterModule
 0001:0000E1C4       UnRegisterModuleClasses
 0001:000018D0       UpCase
 0001:00005798       UpdateWindow
 0001:0000654C       UpperCase
 0001:000057A0       ValidateRect
 0001:00029F8C       ValidParentForm
 0001:00003CA4       VarArrayCreate
 0001:00003D6C       VarArrayDimCount
 0001:00003DBC       VarArrayHighBound
 0001:00003DEC       VarArrayLock
 0001:00003D8C       VarArrayLowBound
 0001:00003E18       VarArrayUnlock
 0001:00003C50       VarFromDateTime
 0001:00003E3C       VarIsArray
 0001:00003C48       VarIsNull
 0001:00003C74       VarToDateTime
 0001:00003C44       VarType
 0001:00005038       VirtualAlloc
 0001:00005040       VirtualQuery
 0001:00005048       WaitForSingleObject
 0001:000057A8       WaitMessage
 0001:000031C8       WideCharLenToStrVar
 0002:0000011C       Win32BuildNumber
 0001:0000B610       Win32Check
 0002:00000120       Win32CSDVersion
 0002:00000114       Win32MajorVersion
 0002:00000118       Win32MinorVersion
 0001:00026064       Win32NLSEnableIME
 0002:00000110       Win32Platform
 0001:000057B8       WindowFromPoint
 0001:000058B4       Windows
 0001:000057B0       WinHelp
 0001:0001C5BC       WinSpool
 0002:00001768       WndProcs
 0002:0000176C       WndWnds
 0001:00005050       WriteFile


  Address         Publics by Value

 0002:FFB9A008       TlsLast
 0001:0000118C       SysGetMem
 0001:00001314       SysFreeMem
 0001:00001694       SysReallocMem
 0001:00001758       @GetMem
 0001:00001770       @FreeMem
 0001:00001788       @ReallocMem
 0001:0000181C       @_IOTest
 0001:0000184C       @Copy
 0001:00001890       Move
 0001:000018D0       UpCase
 0001:000018E0       @ROUND
 0001:000018E8       @TRUNC
 0001:00001904       @AbstractError
 0001:00001920       @PStrNCat
 0001:00001950       @PStrCpy
 0001:0000196C       @PStrNCpy
 0001:0000199C       @PStrCmp
 0001:00001A20       @AStrCmp
 0001:00001A90       @FillChar
 0001:00001AB0       @StrLong
 0001:00001B10       @Str0Long
 0001:00001B1C       @ValLong
 0001:00001BC4       @_CToPasStr
 0001:00001BDC       @_CLenToPasStr
 0001:00001D0C       @IntOver
 0001:00001D14       TObject.ClassType
 0001:00001D18       TObject.ClassName
 0001:00001D2C       TObject.ClassNameIs
 0001:00001D54       TObject.ClassParent
 0001:00001D60       TObject.NewInstance
 0001:00001D74       TObject.FreeInstance
 0001:00001D9C       TObject.Create
 0001:00001DB8       TObject.Destroy
 0001:00001DC4       TObject.Free
 0001:00001DD0       TObject.InitInstance
 0001:00001E24       TObject.GetInterface
 0001:00001E54       TObject.GetInterfaceEntry
 0001:00001E98       @IsClass
 0001:00001EB0       @AsClass
 0001:00001EFC       @CallDynaInst
 0001:00001F14       @FindDynaInst
 0001:00001F2C       TObject.ClassInfo
 0001:00001F30       TObject.SafeCallException
 0001:00001F38       TObject.DefaultHandler
 0001:00001F3C       TObject.Dispatch
 0001:00001F64       TObject.MethodAddress
 0001:00001FB4       TObject.FieldAddress
 0001:00002004       @ClassCreate
 0001:00002040       @ClassDestroy
 0001:00002144       @HandleAnyException
 0001:00002208       @HandleOnException
 0001:00002340       @HandleFinally
 0001:00002378       @RaiseExcept
 0001:00002394       @RaiseAgain
 0001:000023E8       @DoneExcept
 0001:00002418       @TryFinallyExit
 0001:00002660       @StartExe
 0001:00002690       @InitResStrings
 0001:000026AC       @InitResStringImports
 0001:000026C8       @InitImports
 0001:0000276C       @Halt0
 0001:00002884       @Halt
 0001:00002890       @RunError
 0001:0000289C       @LStrClr
 0001:000028C0       @LStrArrayClr
 0001:000028F0       @LStrAsg
 0001:00002934       @LStrLAsg
 0001:0000295C       @NewAnsiString
 0001:00002980       @LStrFromPCharLen
 0001:000029B0       @LStrFromPWCharLen
 0001:00002A50       @LStrFromChar
 0001:00002A60       @LStrFromPChar
 0001:00002A90       @LStrFromPWChar
 0001:00002ACC       @LStrFromString
 0001:00002AD8       @LStrFromArray
 0001:00002AF0       @LStrFromWStr
 0001:00002B04       @LStrToString
 0001:00002B28       @LStrLen
 0001:00002B30       @LStrCat
 0001:00002B74       @LStrCat3
 0001:00002BE8       @LStrCatN
 0001:00002C38       @LStrCmp
 0001:00002CDC       @LStrAddRef
 0001:00002CEC       @LStrToPChar
 0001:00002CF8       UniqueString
 0001:00002D2C       @LStrCopy
 0001:00002D6C       @LStrDelete
 0001:00002DB4       @LStrInsert
 0001:00002E10       @LStrPos
 0001:00002E58       @LStrSetLength
 0001:00002EC4       @WStrClr
 0001:00002EDC       @WStrArrayClr
 0001:00002F00       @WStrAsg
 0001:00002F24       @WStrFromPCharLen
 0001:00002FB8       @WStrFromPWCharLen
 0001:00002FD4       @WStrFromLStr
 0001:00002FE4       @InitializeRecord
 0001:00003010       @InitializeArray
 0001:000030A0       @Initialize
 0001:000030AC       @FinalizeRecord
 0001:000030D8       @FinalizeArray
 0001:00003198       @Finalize
 0001:000031A4       @New
 0001:000031B8       @Dispose
 0001:000031C8       WideCharLenToStrVar
 0001:0000325C       OleStrToStrVar
 0001:00003284       StringToOleStr
 0001:00003320       @VarClear
 0001:00003354       @VarCopy
 0001:0000348C       @VarCast
 0001:00003580       @VarToInt
 0001:000035EC       @VarToBool
 0001:00003620       @VarToReal
 0001:0000367C       @VarToCurr
 0001:000036D8       @VarToLStr
 0001:00003714       @VarFromInt
 0001:0000372C       @VarFromBool
 0001:0000374C       @VarFromReal
 0001:00003764       @VarFromCurr
 0001:0000377C       @VarFromLStr
 0001:00003A78       @VarAdd
 0001:00003B1C       @VarCmp
 0001:00003C18       @VarClr
 0001:00003C20       @VarAddRef
 0001:00003C44       VarType
 0001:00003C48       VarIsNull
 0001:00003C50       VarFromDateTime
 0001:00003C74       VarToDateTime
 0001:00003CA4       VarArrayCreate
 0001:00003D6C       VarArrayDimCount
 0001:00003D8C       VarArrayLowBound
 0001:00003DBC       VarArrayHighBound
 0001:00003DEC       VarArrayLock
 0001:00003E18       VarArrayUnlock
 0001:00003E3C       VarIsArray
 0001:00003E44       @VarArrayGet
 0001:00003EC8       @VarArrayPut
 0001:00003FB4       FindHInstance
 0001:00003FDC       FindClassHInstance
 0001:00003FE8       FindResourceHInstance
 0001:00004004       LoadResourceModule
 0001:000041C4       AddModuleUnloadProc
 0001:000041E8       RemoveModuleUnloadProc
 0001:000042A8       RegisterModule
 0001:000042B8       UnregisterModule
 0001:00004328       LoadResString
 0001:00004370       @IntfClear
 0001:00004388       @IntfCopy
 0001:000043A4       @IntfAddRef
 0001:000043B4       TInterfacedObject.QueryInterface
 0001:000043DC       TInterfacedObject._AddRef
 0001:000043EC       TInterfacedObject._Release
 0001:00004612       @Assign
 0001:00004668       @_Flush
 0001:0000468D       @Flush
 0001:000046B4       @Close
 0001:0000472B       @ResetText
 0001:00004732       @RewritText
 0001:00004739       @Append
 0001:000047E4       @Write0String
 0001:000047EE       @WriteString
 0001:0000480B       @WriteLn
 0001:0000481F       @Write0Char
 0001:00004871       @WriteChar
 0001:00004888       @Write0CString
 0001:0000488C       @WriteCString
 0001:000048B8       @Pow10
 0001:000048B8       FPower10
 0001:00004B8C       Finalization
 0001:00004BEC       System
 0001:00004D24       @GetTls
 0001:00004DBC       @InitExe
 0001:00004DE0       Finalization
 0001:00004E10       SysInit
 0001:00004E18       RegCloseKey
 0001:00004E20       RegOpenKeyExA
 0001:00004E28       RegOpenKeyEx
 0001:00004E30       RegQueryValueExA
 0001:00004E38       RegQueryValueEx
 0001:00004E40       CloseHandle
 0001:00004E48       CompareString
 0001:00004E50       CreateEvent
 0001:00004E58       CreateFile
 0001:00004E60       CreateMutexA
 0001:00004E68       CreateThread
 0001:00004E70       DeleteCriticalSection
 0001:00004E78       EnterCriticalSection
 0001:00004E80       EnumCalendarInfoA
 0001:00004E88       FatalAppExitA
 0001:00004E90       FindClose
 0001:00004E98       FindFirstFileA
 0001:00004EA0       FindResource
 0001:00004EA8       FormatMessage
 0001:00004EB0       FreeLibrary
 0001:00004EB8       InterlockedDecrement
 0001:00004EC0       InterlockedIncrement
 0001:00004EC8       FreeResource
 0001:00004ED0       GetCPInfo
 0001:00004ED8       GetCurrentDirectoryA
 0001:00004EE0       GetCurrentProcessId
 0001:00004EE8       GetCurrentThreadId
 0001:00004EF0       GetDateFormat
 0001:00004EF8       GetLastError
 0001:00004F00       GetLocalTime
 0001:00004F08       GetLocaleInfo
 0001:00004F10       GetModuleFileName
 0001:00004F18       GetModuleHandleA
 0001:00004F20       GetModuleHandle
 0001:00004F28       GetProcAddress
 0001:00004F30       GetProfileString
 0001:00004F38       GetSystemInfo
 0001:00004F40       GetThreadLocale
 0001:00004F48       GetTickCount
 0001:00004F50       GetVersion
 0001:00004F58       GetVersionEx
 0001:00004F60       GlobalAddAtom
 0001:00004F68       GlobalAlloc
 0001:00004F70       GlobalDeleteAtom
 0001:00004F78       GlobalFree
 0001:00004F80       GlobalLock
 0001:00004F88       GlobalHandle
 0001:00004F90       GlobalReAlloc
 0001:00004F98       GlobalSize
 0001:00004FA0       GlobalUnlock
 0001:00004FA8       InitializeCriticalSection
 0001:00004FB0       IsDBCSLeadByte
 0001:00004FB8       LeaveCriticalSection
 0001:00004FC0       LoadLibraryA
 0001:00004FC8       LoadLibrary
 0001:00004FD0       LoadResource
 0001:00004FD8       LockResource
 0001:00004FE0       MulDiv
 0001:00004FE8       OpenFileMapping
 0001:00004FF0       ReadFile
 0001:00004FF8       ReleaseMutex
 0001:00005000       SearchPathA
 0001:00005008       SetEndOfFile
 0001:00005010       SetErrorMode
 0001:00005018       SetEvent
 0001:00005020       SetFilePointer
 0001:00005028       SetThreadLocale
 0001:00005030       SizeofResource
 0001:00005038       VirtualAlloc
 0001:00005040       VirtualQuery
 0001:00005048       WaitForSingleObject
 0001:00005050       WriteFile
 0001:00005058       BitBlt
 0001:00005060       CopyEnhMetaFile
 0001:00005068       CreateBitmap
 0001:00005070       CreateBrushIndirect
 0001:00005078       CreateCompatibleBitmap
 0001:00005080       CreateCompatibleDC
 0001:00005088       CreateDC
 0001:00005090       CreateDIBSection
 0001:00005098       CreateDIBitmap
 0001:000050A0       CreateFontIndirect
 0001:000050A8       CreateHalftonePalette
 0001:000050B0       CreateIC
 0001:000050B8       CreatePalette
 0001:000050C0       CreatePenIndirect
 0001:000050C8       CreateRectRgn
 0001:000050D0       CreateSolidBrush
 0001:000050D8       DeleteDC
 0001:000050E0       DeleteEnhMetaFile
 0001:000050E8       DeleteObject
 0001:000050F0       EndDoc
 0001:000050F8       EndPage
 0001:00005100       EnumFontFamiliesEx
 0001:00005108       EnumFonts
 0001:00005110       ExcludeClipRect
 0001:00005118       ExtCreatePen
 0001:00005120       ExtTextOut
 0001:00005128       GetBitmapBits
 0001:00005130       GetBrushOrgEx
 0001:00005138       GetClipBox
 0001:00005140       GetCurrentPositionEx
 0001:00005148       GetDIBColorTable
 0001:00005150       GetDIBits
 0001:00005158       GetDeviceCaps
 0001:00005160       GetEnhMetaFileBits
 0001:00005168       GetEnhMetaFileHeader
 0001:00005170       GetEnhMetaFilePaletteEntries
 0001:00005178       GetObject
 0001:00005180       GetPaletteEntries
 0001:00005188       GetPixel
 0001:00005190       GetStockObject
 0001:00005198       GetSystemPaletteEntries
 0001:000051A0       GetTextExtentPoint
 0001:000051A8       GetTextMetrics
 0001:000051B0       GetWinMetaFileBits
 0001:000051B8       GetWindowOrgEx
 0001:000051C0       IntersectClipRect
 0001:000051C8       LineTo
 0001:000051D0       MaskBlt
 0001:000051D8       MoveToEx
 0001:000051E0       PatBlt
 0001:000051E8       PlayEnhMetaFile
 0001:000051F0       PolyPolyline
 0001:000051F8       Polyline
 0001:00005200       RealizePalette
 0001:00005208       RectVisible
 0001:00005210       Rectangle
 0001:00005218       RestoreDC
 0001:00005220       SaveDC
 0001:00005228       SelectObject
 0001:00005230       SelectPalette
 0001:00005238       SetAbortProc
 0001:00005240       SetBkColor
 0001:00005248       SetBkMode
 0001:00005250       SetBrushOrgEx
 0001:00005258       SetDIBColorTable
 0001:00005260       SetEnhMetaFileBits
 0001:00005268       SetROP2
 0001:00005270       SetStretchBltMode
 0001:00005278       SetTextColor
 0001:00005280       SetViewportOrgEx
 0001:00005288       SetWinMetaFileBits
 0001:00005290       SetWindowOrgEx
 0001:00005298       StartDoc
 0001:000052A0       StartPage
 0001:000052A8       StretchBlt
 0001:000052B0       StretchDIBits
 0001:000052B8       UnrealizeObject
 0001:000052C0       ActivateKeyboardLayout
 0001:000052C8       AdjustWindowRectEx
 0001:000052D0       AnsiLower
 0001:000052D8       BeginPaint
 0001:000052E0       CallNextHookEx
 0001:000052E8       CallWindowProc
 0001:000052F0       CharLowerBuff
 0001:000052F8       CharToOem
 0001:00005300       CharToOemBuff
 0001:00005308       CharUpperBuff
 0001:00005310       CheckMenuItem
 0001:00005318       ClientToScreen
 0001:00005320       CloseClipboard
 0001:00005328       CreateIcon
 0001:00005330       CreateMenu
 0001:00005338       CreatePopupMenu
 0001:00005340       CreateWindowEx
 0001:00005348       DefFrameProc
 0001:00005350       DefMDIChildProc
 0001:00005358       DefWindowProc
 0001:00005360       DeleteMenu
 0001:00005368       DestroyCursor
 0001:00005370       DestroyIcon
 0001:00005378       DestroyMenu
 0001:00005380       DestroyWindow
 0001:00005388       DispatchMessage
 0001:00005390       DrawEdge
 0001:00005398       DrawFocusRect
 0001:000053A0       DrawFrameControl
 0001:000053A8       DrawIcon
 0001:000053B0       DrawMenuBar
 0001:000053B8       DrawText
 0001:000053C0       EmptyClipboard
 0001:000053C8       EnableMenuItem
 0001:000053D0       EnableWindow
 0001:000053D8       EndPaint
 0001:000053E0       EnumClipboardFormats
 0001:000053E8       EnumThreadWindows
 0001:000053F0       EnumWindows
 0001:000053F8       EqualRect
 0001:00005400       FillRect
 0001:00005408       FrameRect
 0001:00005410       GetActiveWindow
 0001:00005418       GetCapture
 0001:00005420       GetClassInfo
 0001:00005428       GetClientRect
 0001:00005430       GetClipboardData
 0001:00005438       GetCursor
 0001:00005440       GetCursorPos
 0001:00005448       GetDC
 0001:00005450       GetDCEx
 0001:00005458       GetDesktopWindow
 0001:00005460       GetDoubleClickTime
 0001:00005468       GetFocus
 0001:00005470       GetForegroundWindow
 0001:00005478       GetIconInfo
 0001:00005480       GetKeyNameText
 0001:00005488       GetKeyState
 0001:00005490       GetKeyboardLayout
 0001:00005498       GetKeyboardLayoutList
 0001:000054A0       GetKeyboardState
 0001:000054A8       GetLastActivePopup
 0001:000054B0       GetMenu
 0001:000054B8       GetMenuItemCount
 0001:000054C0       GetMenuState
 0001:000054C8       GetMenuString
 0001:000054D0       GetMessageTime
 0001:000054D8       GetParent
 0001:000054E0       GetProp
 0001:000054E8       GetScrollPos
 0001:000054F0       GetScrollRange
 0001:000054F8       GetSubMenu
 0001:00005500       GetSysColor
 0001:00005508       GetSystemMenu
 0001:00005510       GetSystemMetrics
 0001:00005518       GetWindow
 0001:00005520       GetWindowDC
 0001:00005528       GetWindowLong
 0001:00005530       GetWindowPlacement
 0001:00005538       GetWindowRect
 0001:00005540       GetWindowRgn
 0001:00005548       GetWindowText
 0001:00005550       GetWindowThreadProcessId
 0001:00005558       InflateRect
 0001:00005560       InsertMenu
 0001:00005568       InsertMenuItem
 0001:00005570       IntersectRect
 0001:00005578       InvalidateRect
 0001:00005580       IsCharAlpha
 0001:00005588       IsCharAlphaNumeric
 0001:00005590       IsDialogMessage
 0001:00005598       IsIconic
 0001:000055A0       IsRectEmpty
 0001:000055A8       IsWindow
 0001:000055B0       IsWindowEnabled
 0001:000055B8       IsWindowVisible
 0001:000055C0       IsZoomed
 0001:000055C8       KillTimer
 0001:000055D0       LoadCursor
 0001:000055D8       LoadIcon
 0001:000055E0       LoadString
 0001:000055E8       MapVirtualKey
 0001:000055F0       MapWindowPoints
 0001:000055F8       MessageBeep
 0001:00005600       MessageBox
 0001:00005608       OemToAnsi
 0001:00005610       OemToChar
 0001:00005618       OemToCharBuff
 0001:00005620       OffsetRect
 0001:00005628       OpenClipboard
 0001:00005630       PeekMessage
 0001:00005638       PostMessage
 0001:00005640       PostQuitMessage
 0001:00005648       PtInRect
 0001:00005650       RegisterClass
 0001:00005658       RegisterClipboardFormat
 0001:00005660       RegisterWindowMessage
 0001:00005668       ReleaseCapture
 0001:00005670       ReleaseDC
 0001:00005678       RemoveMenu
 0001:00005680       RemoveProp
 0001:00005688       ScreenToClient
 0001:00005690       ScrollWindow
 0001:00005698       ScrollWindowEx
 0001:000056A0       SendMessage
 0001:000056A8       SetActiveWindow
 0001:000056B0       SetCapture
 0001:000056B8       SetClipboardData
 0001:000056C0       SetCursor
 0001:000056C8       SetFocus
 0001:000056D0       SetForegroundWindow
 0001:000056D8       SetKeyboardState
 0001:000056E0       SetMenu
 0001:000056E8       SetProp
 0001:000056F0       SetRect
 0001:000056F8       SetScrollInfo
 0001:00005700       SetScrollPos
 0001:00005708       SetScrollRange
 0001:00005710       SetTimer
 0001:00005718       SetWindowLong
 0001:00005720       SetWindowPlacement
 0001:00005728       SetWindowPos
 0001:00005730       SetWindowText
 0001:00005738       SetWindowsHookEx
 0001:00005740       SetWindowRgn
 0001:00005748       ShowCursor
 0001:00005750       ShowOwnedPopups
 0001:00005758       ShowWindow
 0001:00005760       SystemParametersInfo
 0001:00005768       TrackPopupMenu
 0001:00005770       TranslateMDISysAccel
 0001:00005778       TranslateMessage
 0001:00005780       UnhookWindowsHookEx
 0001:00005788       UnionRect
 0001:00005790       UnregisterClass
 0001:00005798       UpdateWindow
 0001:000057A0       ValidateRect
 0001:000057A8       WaitMessage
 0001:000057B0       WinHelp
 0001:000057B8       WindowFromPoint
 0001:000057C0       MakeLong
 0001:000057CC       HiByte
 0001:000057D4       UnlockResource
 0001:000057D8       GlobalAllocPtr
 0001:000057E8       GlobalReAllocPtr
 0001:00005804       GlobalFreePtr
 0001:00005818       MakeROP4
 0001:00005824       SmallPointToPoint
 0001:00005838       PointToSmallPoint
 0001:00005850       CreateWindow
 0001:00005884       Finalization
 0001:000058B4       Windows
 0001:000058BC       Finalization
 0001:000058EC       Messages
 0001:000063BC       DivMod
 0001:000063D8       ConvertError
 0001:000063F8       ConvertErrorFmt
 0001:00006428       AllocMem
 0001:00006450       DoExitProc
 0001:00006494       AddExitProc
 0001:000064E4       NewStr
 0001:00006524       DisposeStr
 0001:0000654C       UpperCase
 0001:000065C8       CompareStr
 0001:000065F8       CompareMem
 0001:00006618       CompareText
 0001:0000666C       AnsiUpperCase
 0001:000066AC       AnsiLowerCase
 0001:000066EC       AnsiCompareText
 0001:0000673C       AnsiStrLIComp
 0001:0000677C       Trim
 0001:00006810       IsValidIdent
 0001:0000688C       IntToStr
 0001:000068C4       StrToInt
 0001:00006940       StrToIntDef
 0001:00006970       FileOpen
 0001:000069C0       FileCreate
 0001:000069F4       FileRead
 0001:00006A2C       FileWrite
 0001:00006A64       FileSeek
 0001:00006A90       FileClose
 0001:00006AA4       AnsiLastChar
 0001:00006AEC       LastDelimiter
 0001:00006B6C       ChangeFileExt
 0001:00006C14       ExtractFileName
 0001:00006C60       ExtractFileExt
 0001:00006CC0       StrLen
 0001:00006CD8       StrEnd
 0001:00006CEC       StrMove
 0001:00006D28       StrCopy
 0001:00006D50       StrECopy
 0001:00006D7C       StrLCopy
 0001:00006DB0       StrPCopy
 0001:00006DE0       StrPLCopy
 0001:00006E10       StrComp
 0001:00006E34       StrIComp
 0001:00006E74       StrLIComp
 0001:00006EBC       StrScan
 0001:00006EDC       StrPos
 0001:00006F30       StrAlloc
 0001:00006F64       StrBufSize
 0001:00006F8C       StrNew
 0001:00006FD4       StrDispose
 0001:00006FF8       FormatError
 0001:00007070       FormatVarToStr
 0001:0000708C       FormatClearStr
 0001:000070A0       FormatBuf
 0001:000073F0       StrFmt
 0001:00007438       StrLFmt
 0001:0000747C       Format
 0001:000074A4       FmtStr
 0001:000075C0       FloatToStr
 0001:000075F0       CurrToStr
 0001:00007620       FloatToStrF
 0001:0000765C       CurrToStrF
 0001:00007698       FormatFloat
 0001:00007738       FormatCurr
 0001:000077D8       StrToFloat
 0001:00007854       StrToCurr
 0001:000078D0       DateTimeToTimeStamp
 0001:00007910       TimeStampToDateTime
 0001:00007940       MSecsToTimeStamp
 0001:0000795C       TimeStampToMSecs
 0001:00007968       DoEncodeTime
 0001:00007A20       DecodeTime
 0001:00007A80       IsLeapYear
 0001:00007ACC       DoEncodeDate
 0001:00007C1C       EncodeDate
 0001:00007C98       DecodeDate
 0001:00007E64       DayOfWeek
 0001:00007E9C       CurrentYear
 0001:00007EBC       AppendChars
 0001:00007F2C       AppendString
 0001:00007F50       AppendNumber
 0001:00007FA0       GetCount
 0001:00007FEC       GetDate
 0001:00008024       GetTime
 0001:00008064       ConvertEraString
 0001:000081F0       ConvertYearString
 0001:00008310       AppendFormat
 0001:00008ACC       DateTimeToString
 0001:00008B38       DateToStr
 0001:00008B58       DateTimeToStr
 0001:00008B74       ScanBlanks
 0001:00008BBC       ScanNumber
 0001:00008C74       ScanString
 0001:00008D14       ScanChar
 0001:00008D6C       GetDateOrder
 0001:00008DDC       ScanToNumber
 0001:00008E44       GetEraYearOffset
 0001:00008EA8       EraToYear
 0001:00008F3C       ScanDate
 0001:00009298       ScanTime
 0001:00009474       StrToDate
 0001:00009500       StrToTime
 0001:0000958C       StrToDateTime
 0001:0000965C       SysErrorMessage
 0001:000096C8       GetLocaleStr
 0001:0000972C       GetLocaleChar
 0001:00009768       LocalGetLocaleStr
 0001:000097AC       GetMonthDayNames
 0001:00009914       EnumEraNames
 0001:00009970       EnumEraYearOffsets
 0001:000099DC       GetEraNamesAndYearOffsets
 0001:00009A84       TranslateDateFormat
 0001:00009D3C       GetFormatSettings
 0001:0000A0A0       ExceptObject
 0001:0000A0D0       ExceptAddr
 0001:0000A100       ConvertAddr
 0001:0000A10C       ExceptionErrorMessage
 0001:0000A2CC       ShowException
 0001:0000A39C       ReturnAddr
 0001:0000A3A4       Abort
 0001:0000A400       Exception.Create
 0001:0000A440       Exception.CreateFmt
 0001:0000A4C8       EOutOfMemory.Destroy
 0001:0000A4EC       EOutOfMemory.FreeInstance
 0001:0000A528       CreateInOutError
 0001:0000A62C       ErrorHandler
 0001:0000A698       AssertErrorHandler
 0001:0000A754       AbstractErrorHandler
 0001:0000A7C0       MapException
 0001:0000A874       GetExceptionClass
 0001:0000A8A0       CreateAVObject
 0001:0000AA70       GetExceptionObject
 0001:0000AB40       ExceptHandler
 0001:0000AB68       InitExceptions
 0001:0000AC2C       DoneExceptions
 0001:0000AC94       InitPlatformId
 0001:0000ACFC       ByteTypeTest
 0001:0000AD88       ByteType
 0001:0000ADC8       StrByteType
 0001:0000ADF8       ByteToCharLen
 0001:0000AE34       ByteToCharIndex
 0001:0000AEC4       CountChars
 0001:0000AF80       CharToByteIndex
 0001:0000B010       CharToByteLen
 0001:0000B084       AnsiPos
 0001:0000B0E0       AnsiLowerCaseFileName
 0001:0000B1CC       AnsiUpperCaseFileName
 0001:0000B2B8       AnsiStrPos
 0001:0000B3A8       AnsiStrRScan
 0001:0000B3FC       AnsiStrScan
 0001:0000B45C       InitSysLocale
 0001:0000B548       RaiseLastWin32Error
 0001:0000B610       Win32Check
 0001:0000B634       CallTerminateProcs
 0001:0000B670       FreeTerminateProcs
 0001:0000B6A4       AL1
 0001:0000B6B4       AL2
 0001:0000B6CC       ALV
 0001:0000B720       ALR
 0001:0000B7BC       GDAL
 0001:0000B934       .
 0001:0000B956       FloatToText
 0001:0000BCBF       FloatToTextFmt
 0001:0000C094       FloatToDecimal
 0001:0000C2DB       TextToFloat
 0001:0000C424       Finalization
 0001:0000C564       SysUtils
 0001:0000C5C8       CoInitialize
 0001:0000C5D0       CoUninitialize
 0001:0000C5D8       CoCreateInstance
 0001:0000C5E0       Finalization
 0001:0000C610       ActiveX
 0001:0000C998       Finalization
 0001:0000C9C8       Consts
 0001:0000C9D0       GetTypeData
 0001:0000C9DC       GetEnumValue
 0001:0000CA28       GetPropInfo
 0001:0000CA94       GetPropInfos
 0001:0000CAE8       GetOrdProp
 0001:0000CB5C       SetOrdProp
 0001:0000CD50       SetStrProp
 0001:0000CD84       SetFloatProp
 0001:0000CE1C       SetMethodProp
 0001:0000CE54       Finalization
 0001:0000CE84       TypInfo
 0001:0000DE6C       Point
 0001:0000DE74       SmallPoint
 0001:0000DE84       Rect
 0001:0000DEA0       Bounds
 0001:0000DF4C       GetClass
 0001:0000DFB4       FindClass
 0001:0000E0A4       RegisterClass
 0001:0000E194       RegisterClasses
 0001:0000E1C4       UnRegisterModuleClasses
 0001:0000E2D8       RegisterIntegerConsts
 0001:0000E308       IdentToInt
 0001:0000E348       IntToIdent
 0001:0000E414       BeginGlobalLoading
 0001:0000E43C       NotifyGlobalLoading
 0001:0000E46C       EndGlobalLoading
 0001:0000E548       InitInheritedComponent
 0001:0000E5A0       TList.Destroy
 0001:0000E5C4       TList.Add
 0001:0000E5EC       TList.Clear
 0001:0000E608       TList.Delete
 0001:0000E68C       TList.Error
 0001:0000E6C4       TList.Expand
 0001:0000E6E0       TList.First
 0001:0000E6EC       TList.Get
 0001:0000E750       TList.Grow
 0001:0000E788       TList.IndexOf
 0001:0000E7A8       TList.Insert
 0001:0000E848       TList.Last
 0001:0000E858       TList.Move
 0001:0000E8E4       TList.Put
 0001:0000E94C       TList.Remove
 0001:0000E970       TList.SetCapacity
 0001:0000E9E4       TList.SetCount
 0001:0000EA74       TThreadList.Create
 0001:0000EAC0       TThreadList.Destroy
 0001:0000EB3C       TThreadList.Add
 0001:0000EB9C       TThreadList.LockList
 0001:0000EBB4       TThreadList.Remove
 0001:0000EC04       TThreadList.UnlockList
 0001:0000EC14       TBits.Destroy
 0001:0000ECA4       TBits.SetSize
 0001:0000ED54       TBits.SetBit
 0001:0000ED80       TBits.GetBit
 0001:0000ED98       TBits.OpenBit
 0001:0000EE18       TPersistent.Destroy
 0001:0000EE48       TPersistent.Assign
 0001:0000EF50       TPersistent.AssignTo
 0001:0000EF5C       TPersistent.DefineProperties
 0001:0000EF60       TPersistent.GetNamePath
 0001:0000F010       TPersistent.GetOwner
 0001:0000F014       TCollectionItem.Create
 0001:0000F048       TCollectionItem.Destroy
 0001:0000F078       TCollectionItem.Changed
 0001:0000F0A0       TCollectionItem.GetIndex
 0001:0000F0BC       TCollectionItem.GetDisplayName
 0001:0000F0EC       TCollectionItem.GetNamePath
 0001:0000F1A0       TCollectionItem.GetOwner
 0001:0000F1A4       TCollectionItem.SetCollection
 0001:0000F1D0       TCollectionItem.SetDisplayName
 0001:0000F1DC       TCollectionItem.SetIndex
 0001:0000F210       TCollection.Create
 0001:0000F24C       TCollection.Destroy
 0001:0000F290       TCollection.Add
 0001:0000F2A0       TCollection.Assign
 0001:0000F338       TCollection.BeginUpdate
 0001:0000F33C       TCollection.Changed
 0001:0000F350       TCollection.Clear
 0001:0000F3B8       TCollection.EndUpdate
 0001:0000F3C8       TCollection.GetAttrCount
 0001:0000F3CC       TCollection.GetAttr
 0001:0000F3DC       TCollection.GetItemAttr
 0001:0000F3FC       TCollection.GetCount
 0001:0000F404       TCollection.GetItem
 0001:0000F414       TCollection.GetNamePath
 0001:0000F4DC       TCollection.GetPropName
 0001:0000F6A8       TCollection.SetItemName
 0001:0000F6AC       TCollection.Update
 0001:0000F6B0       TStrings.Destroy
 0001:0000F6E0       TStrings.Add
 0001:0000F708       TStrings.AddObject
 0001:0000F730       TStrings.AddStrings
 0001:0000F7E8       TStrings.Assign
 0001:0000F858       TStrings.BeginUpdate
 0001:0000F8CC       TStrings.DefineProperties
 0001:0000F918       TStrings.EndUpdate
 0001:0000F930       TStrings.Equals
 0001:0000F9DC       TStrings.Error
 0001:0000FA14       TStrings.Exchange
 0001:0000FAFC       TStrings.GetCapacity
 0001:0000FB08       TStrings.GetName
 0001:0000FB58       TStrings.GetObject
 0001:0000FB5C       TStrings.GetText
 0001:0000FBB0       TStrings.GetTextStr
 0001:0000FC98       TStrings.GetValue
 0001:0000FD24       TStrings.IndexOf
 0001:0000FDA4       TStrings.IndexOfName
 0001:0000FE68       TStrings.InsertObject
 0001:0000FE98       TStrings.LoadFromFile
 0001:0000FEEC       TStrings.LoadFromStream
 0001:0000FF98       TStrings.Move
 0001:00010048       TStrings.Put
 0001:00010080       TStrings.PutObject
 0001:00010134       TStrings.SaveToFile
 0001:0001018C       TStrings.SaveToStream
 0001:000101E8       TStrings.SetCapacity
 0001:000101EC       TStrings.SetStringsAdapter
 0001:00010224       TStrings.SetText
 0001:00010274       TStrings.SetTextStr
 0001:00010334       TStrings.SetUpdateState
 0001:00010338       TStrings.SetValue
 0001:00010460       TStringList.Destroy
 0001:000104BC       TStringList.Add
 0001:00010554       TStringList.Changed
 0001:00010574       TStringList.Changing
 0001:00010594       TStringList.Clear
 0001:000105D0       TStringList.Delete
 0001:00010670       TStringList.Exchange
 0001:00010730       TStringList.Find
 0001:0001079C       TStringList.Get
 0001:0001080C       TStringList.GetCapacity
 0001:00010810       TStringList.GetCount
 0001:00010814       TStringList.GetObject
 0001:000108B4       TStringList.IndexOf
 0001:000108F4       TStringList.Insert
 0001:000109F0       TStringList.Put
 0001:00010A8C       TStringList.PutObject
 0001:00010BC0       TStringList.SetCapacity
 0001:00010BE0       TStringList.SetSorted
 0001:00010C00       TStringList.SetUpdateState
 0001:00010C18       TStringList.Sort
 0001:00010C48       TStream.GetPosition
 0001:00010C5C       TStream.SetPosition
 0001:00010C6C       TStream.GetSize
 0001:00010CA8       TStream.SetSize
 0001:00010CAC       TStream.ReadBuffer
 0001:00010D28       TStream.WriteBuffer
 0001:00010DA4       TStream.CopyFrom
 0001:00010E58       TStream.ReadComponent
 0001:00010EB8       THandleStream.Read
 0001:00010ECC       THandleStream.Write
 0001:00010EE0       THandleStream.Seek
 0001:00010EF0       THandleStream.SetSize
 0001:00010F14       TFileStream.Create
 0001:0001100C       TFileStream.Destroy
 0001:00011034       TCustomMemoryStream.SetPointer
 0001:0001103C       TCustomMemoryStream.Read
 0001:00011080       TCustomMemoryStream.Seek
 0001:000110A4       TMemoryStream.Destroy
 0001:000110D4       TMemoryStream.Clear
 0001:000110F0       TMemoryStream.SetCapacity
 0001:0001111C       TMemoryStream.SetSize
 0001:0001114C       TMemoryStream.Realloc
 0001:0001120C       TMemoryStream.Write
 0001:00011264       TResourceStream.Create
 0001:000113A4       TResourceStream.Destroy
 0001:000113DC       TResourceStream.Write
 0001:00011434       TFiler.Create
 0001:00011474       TFiler.Destroy
 0001:000115D8       GlobalFixupReferences
 0001:00011760       RemoveFixupReferences
 0001:000117C8       RemoveFixups
 0001:000118D8       TReader.Destroy
 0001:0001193C       TReader.DefineProperty
 0001:00011970       TReader.DefineBinaryProperty
 0001:00011A4C       TReader.EndOfList
 0001:00011A64       TReader.Error
 0001:00011A8C       TReader.FindMethod
 0001:00011BF8       TReader.FlushBuffer
 0001:00011C5C       TReader.GetPosition
 0001:00011C78       TReader.NextValue
 0001:00011C9C       TReader.Read
 0001:00011D60       TReader.ReadBoolean
 0001:00011D78       TReader.ReadChar
 0001:00011DFC       TReader.ReadCollection
 0001:000120A4       TReader.ReadComponent
 0001:00012360       TReader.ReadFloat
 0001:000123A4       TReader.ReadIdent
 0001:0001245C       TReader.ReadInteger
 0001:000124C8       TReader.ReadListBegin
 0001:000124D4       TReader.ReadListEnd
 0001:000124E0       TReader.ReadPrefix
 0001:00012C70       TReader.ReadRootComponent
 0001:00012F4C       TReader.ReadSignature
 0001:00012FB4       TReader.ReadStr
 0001:00012FF8       TReader.ReadString
 0001:0001305C       TReader.ReadValue
 0001:000133A4       TReader.FindAncestorComponent
 0001:00013464       TReader.ReferenceName
 0001:00013480       TReader.SetName
 0001:000134B4       TWriter.Write
 0001:0001351C       TWriter.WriteBoolean
 0001:00013538       TWriter.WriteInteger
 0001:000135B0       TWriter.WriteListBegin
 0001:000135BC       TWriter.WriteListEnd
 0001:000135C8       TWriter.WriteString
 0001:00013628       TWriter.WriteValue
 0001:00013640       TComponent.Create
 0001:00013688       TComponent.Destroy
 0001:00013714       TComponent.FreeNotification
 0001:00013810       TComponent.InsertComponent
 0001:00013868       TComponent.RemoveComponent
 0001:000138AC       TComponent.DestroyComponents
 0001:000138DC       TComponent.Destroying
 0001:00013918       TComponent.Notification
 0001:0001398C       TComponent.DefineProperties
 0001:00013A10       TComponent.HasParent
 0001:00013A14       TComponent.GetChildren
 0001:00013A1C       TComponent.GetChildOwner
 0001:00013A20       TComponent.GetChildParent
 0001:00013A24       TComponent.GetNamePath
 0001:00013A3C       TComponent.GetOwner
 0001:00013A40       TComponent.SetChildOrder
 0001:00013A44       TComponent.GetParentComponent
 0001:00013A48       TComponent.SetParentComponent
 0001:00013A4C       TComponent.Updating
 0001:00013A5C       TComponent.Updated
 0001:00013A6C       TComponent.Loaded
 0001:00013A7C       TComponent.ReadState
 0001:00013A88       TComponent.WriteState
 0001:00013A94       TComponent.ValidateRename
 0001:00013B48       TComponent.ValidateContainer
 0001:00013B60       TComponent.ValidateInsert
 0001:00013B64       TComponent.FindComponent
 0001:00013BC0       TComponent.SetName
 0001:00013C8C       TComponent.ChangeName
 0001:00013CA4       TComponent.GetComponent
 0001:00013D10       TComponent.GetComponentCount
 0001:00013D20       TComponent.SetComponentIndex
 0001:00013D78       TComponent.SetDesigning
 0001:00013E10       TComponent.SafeCallException
 0001:00013E30       TComponent.UpdateRegistry
 0001:00013E38       TStreamAdapter.Create
 0001:00013E74       TStreamAdapter.Read
 0001:00013EDC       TStreamAdapter.Write
 0001:00013F44       TStreamAdapter.Seek
 0001:00013FC4       TStreamAdapter.SetSize
 0001:00014034       TStreamAdapter.CopyTo
 0001:00014138       TStreamAdapter.Commit
 0001:00014144       TStreamAdapter.Revert
 0001:00014150       TStreamAdapter.LockRegion
 0001:0001415C       TStreamAdapter.UnlockRegion
 0001:00014168       TStreamAdapter.Stat
 0001:000141EC       TStreamAdapter.Clone
 0001:00014248       Finalization
 0001:000142C4       Classes
 0001:00015434       PaletteChanged
 0001:00015838       ColorToRGB
 0001:00015848       ColorToIdent
 0001:00015858       IdentToColor
 0001:00015868       TGraphicsObject.Changed
 0001:0001587C       TGraphicsObject.Lock
 0001:0001588C       TGraphicsObject.Unlock
 0001:00015A50       CharsetToIdent
 0001:00015A60       IdentToCharset
 0001:00015B24       TFont.Create
 0001:00015B74       TFont.Destroy
 0001:00015B98       TFont.Changed
 0001:00015BB4       TFont.Assign
 0001:00015CF0       TFont.SetColor
 0001:00015D04       TFont.GetHandle
 0001:00015EA0       TFont.SetHandle
 0001:00015EC4       TFont.GetHeight
 0001:00015ECC       TFont.SetHeight
 0001:00015EF4       TFont.GetName
 0001:00015F0C       TFont.SetName
 0001:00015F68       TFont.GetSize
 0001:00015F84       TFont.SetSize
 0001:00015FA4       TFont.GetStyle
 0001:00015FB0       TFont.SetStyle
 0001:00015FDC       TFont.GetPitch
 0001:00015FE4       TFont.SetPitch
 0001:0001600C       TFont.GetCharset
 0001:00016014       TFont.SetCharset
 0001:0001603C       TPen.Create
 0001:00016078       TPen.Destroy
 0001:0001609C       TPen.Assign
 0001:000161BC       TPen.GetColor
 0001:000161C4       TPen.SetColor
 0001:000161EC       TPen.GetHandle
 0001:00016284       TPen.SetHandle
 0001:000162A8       TPen.SetMode
 0001:000162BC       TPen.GetStyle
 0001:000162C4       TPen.SetStyle
 0001:000162EC       TPen.GetWidth
 0001:000162F4       TPen.SetWidth
 0001:00016320       TBrush.Create
 0001:00016358       TBrush.Destroy
 0001:0001637C       TBrush.Assign
 0001:00016494       TBrush.GetColor
 0001:0001649C       TBrush.SetColor
 0001:000164D0       TBrush.GetHandle
 0001:000165B0       TBrush.GetStyle
 0001:000165B8       TBrush.SetStyle
 0001:000165EC       TCanvas.Create
 0001:000166A8       TCanvas.Destroy
 0001:00016700       TCanvas.CopyRect
 0001:00016788       TCanvas.DrawFocusRect
 0001:000167BC       TCanvas.FillRect
 0001:000167F8       TCanvas.FrameRect
 0001:00016834       TCanvas.LineTo
 0001:0001686C       TCanvas.Lock
 0001:00016894       TCanvas.MoveTo
 0001:000168C0       TCanvas.Polyline
 0001:000168F8       TCanvas.Rectangle
 0001:00016940       TCanvas.Refresh
 0001:00016948       TCanvas.TextExtent
 0001:0001698C       TCanvas.TextWidth
 0001:000169A8       TCanvas.TextHeight
 0001:000169C8       TCanvas.TryLock
 0001:00016A24       TCanvas.Unlock
 0001:00016A4C       TCanvas.SetFont
 0001:00016A5C       TCanvas.SetPen
 0001:00016A68       TCanvas.SetBrush
 0001:00016A74       TCanvas.GetPenPos
 0001:00016A98       TCanvas.SetPenPos
 0001:00016AB8       TCanvas.GetPixel
 0001:00016AE4       TCanvas.GetClipRect
 0001:00016B08       TCanvas.GetHandle
 0001:00016B84       TCanvas.CreateHandle
 0001:00016B88       TCanvas.SetHandle
 0001:00016C30       TCanvas.RequiredState
 0001:00016CA4       TCanvas.Changing
 0001:00016CB8       TCanvas.Changed
 0001:000171AC       TransparentStretchBlt
 0001:00017DC0       GetDIBSizes
 0001:00017E78       GetDIB
 0001:00018098       TGraphic.Create
 0001:000180C8       TGraphic.Changed
 0001:00018138       TGraphic.DefineProperties
 0001:00018184       TGraphic.Equals
 0001:000182C8       TGraphic.GetPalette
 0001:000182CC       TGraphic.GetTransparent
 0001:000182D0       TGraphic.LoadFromFile
 0001:00018324       TGraphic.Progress
 0001:0001834C       TGraphic.ReadData
 0001:00018358       TGraphic.SaveToFile
 0001:000183B0       TGraphic.SetPalette
 0001:000183B4       TGraphic.SetTransparent
 0001:000183C4       TGraphic.WriteData
 0001:00018614       TPicture.Destroy
 0001:00018640       TPicture.AssignTo
 0001:000186D8       TPicture.GetBitmap
 0001:000186F0       TPicture.SetGraphic
 0001:0001879C       TPicture.LoadFromClipboardFormat
 0001:0001889C       TPicture.SaveToClipboardFormat
 0001:000188C8       TPicture.SupportsClipboardFormat
 0001:000188E0       TPicture.Assign
 0001:0001893C       TPicture.Changed
 0001:00018960       TPicture.Progress
 0001:00018B4C       TPicture.DefineProperties
 0001:00018B98       TMetafileImage.Destroy
 0001:00018BD0       TMetafileImage.FreeHandle
 0001:00018BD4       TMetafile.Create
 0001:00018C14       TMetafile.Destroy
 0001:00018C40       TMetafile.Assign
 0001:00018CD4       TMetafile.Draw
 0001:00018D68       TMetafile.GetEmpty
 0001:00018D70       TMetafile.GetHeight
 0001:00018DD4       TMetafile.GetPalette
 0001:00018E60       TMetafile.GetWidth
 0001:00018EC4       TMetafile.LoadFromStream
 0001:00018F40       TMetafile.ReadData
 0001:00018F9C       TMetafile.ReadEMFStream
 0001:0001906C       TMetafile.ReadWMFStream
 0001:00019194       TMetafile.SaveToFile
 0001:00019220       TMetafile.SaveToStream
 0001:0001923C       TMetafile.SetHeight
 0001:000192B0       TMetafile.SetMMHeight
 0001:000192EC       TMetafile.SetMMWidth
 0001:00019328       TMetafile.SetWidth
 0001:0001939C       TMetafile.TestEMF
 0001:00019480       TMetafile.WriteData
 0001:00019504       TMetafile.WriteEMFStream
 0001:00019588       TMetafile.WriteWMFStream
 0001:000196D0       TMetafile.LoadFromClipboardFormat
 0001:00019790       TMetafile.SaveToClipboardFormat
 0001:00019854       FreeMemoryContexts
 0001:00019B6C       TSharedImage.Reference
 0001:00019B70       TSharedImage.Release
 0001:00019B90       TBitmapImage.Destroy
 0001:00019BE0       TBitmapImage.FreeHandle
 0001:0001A368       CopyPalette
 0001:0001A5D8       TBitmap.Create
 0001:0001A63C       TBitmap.Destroy
 0001:0001A678       TBitmap.Assign
 0001:0001A82C       TBitmap.Changed
 0001:0001A838       TBitmap.Dormant
 0001:0001A854       TBitmap.Draw
 0001:0001AAA4       TBitmap.FreeImage
 0001:0001AAF4       TBitmap.GetEmpty
 0001:0001AB0C       TBitmap.GetCanvas
 0001:0001AB4C       TBitmap.GetHandle
 0001:0001AB70       TBitmap.GetHandleType
 0001:0001AB9C       TBitmap.GetHeight
 0001:0001ABAC       TBitmap.GetMaskHandle
 0001:0001ABC0       TBitmap.GetMonochrome
 0001:0001ABDC       TBitmap.GetPalette
 0001:0001ABF0       TBitmap.GetTransparentColor
 0001:0001AC38       TBitmap.GetWidth
 0001:0001ACC4       TBitmap.HandleNeeded
 0001:0001ACD4       TBitmap.MaskHandleNeeded
 0001:0001AD34       TBitmap.PaletteNeeded
 0001:0001ADEC       TBitmap.LoadFromClipboardFormat
 0001:0001AEAC       TBitmap.LoadFromStream
 0001:0001AED0       TBitmap.LoadFromResourceName
 0001:0001B01C       TBitmap.ReadData
 0001:0001B4F0       TBitmap.SetHandle
 0001:0001B5B0       TBitmap.SetHandleType
 0001:0001B6E4       TBitmap.SetHeight
 0001:0001B738       TBitmap.SetMonochrome
 0001:0001B7B8       TBitmap.SetPalette
 0001:0001B88C       TBitmap.SetTransparentColor
 0001:0001B8DC       TBitmap.SetWidth
 0001:0001B930       TBitmap.WriteData
 0001:0001BB60       TBitmap.SaveToStream
 0001:0001BB68       TBitmap.SaveToClipboardFormat
 0001:0001BC08       TIconImage.Destroy
 0001:0001BC34       TIconImage.FreeHandle
 0001:0001BC4C       TIcon.Create
 0001:0001BCA0       TIcon.Destroy
 0001:0001BCCC       TIcon.Assign
 0001:0001BD2C       TIcon.Draw
 0001:0001BD64       TIcon.GetEmpty
 0001:0001BD7C       TIcon.GetHandle
 0001:0001BD90       TIcon.GetHeight
 0001:0001BD98       TIcon.GetWidth
 0001:0001BEBC       TIcon.LoadFromStream
 0001:0001BFE4       TIcon.SetHandle
 0001:0001BFFC       TIcon.SetHeight
 0001:0001C044       TIcon.SetWidth
 0001:0001C08C       TIcon.SaveToStream
 0001:0001C0B8       TIcon.LoadFromClipboardFormat
 0001:0001C104       TIcon.SaveToClipboardFormat
 0001:0001C188       GetDefFontCharSet
 0001:0001C284       Finalization
 0001:0001C34C       Graphics
 0001:0001C438       ImageList_Create
 0001:0001C440       ImageList_Destroy
 0001:0001C448       ImageList_GetImageCount
 0001:0001C450       ImageList_Add
 0001:0001C458       ImageList_ReplaceIcon
 0001:0001C460       ImageList_SetBkColor
 0001:0001C468       ImageList_GetBkColor
 0001:0001C470       ImageList_AddIcon
 0001:0001C47C       ImageList_Draw
 0001:0001C484       ImageList_Replace
 0001:0001C48C       ImageList_DrawEx
 0001:0001C494       ImageList_Remove
 0001:0001C49C       ImageList_BeginDrag
 0001:0001C4A4       ImageList_EndDrag
 0001:0001C4AC       ImageList_DragEnter
 0001:0001C4B4       ImageList_DragLeave
 0001:0001C4BC       ImageList_DragMove
 0001:0001C4C4       ImageList_SetDragCursorImage
 0001:0001C4CC       ImageList_DragShowNolock
 0001:0001C4D4       ImageList_GetDragImage
 0001:0001C4DC       ImageList_Read
 0001:0001C4E4       ImageList_GetIconSize
 0001:0001C4EC       ImageList_SetIconSize
 0001:0001C4F4       ImageList_GetImageInfo
 0001:0001C4FC       Finalization
 0001:0001C52C       Commctrl
 0001:0001C534       Finalization
 0001:0001C564       Imm
 0001:0001C56C       ClosePrinter
 0001:0001C574       DocumentProperties
 0001:0001C57C       EnumPrinters
 0001:0001C584       OpenPrinter
 0001:0001C58C       Finalization
 0001:0001C5BC       WinSpool
 0001:0001C9DC       TPrinter.Create
 0001:0001CA18       TPrinter.Destroy
 0001:0001CC0C       TPrinter.BeginDoc
 0001:0001CCA8       TPrinter.EndDoc
 0001:0001CCE0       TPrinter.GetPrinter
 0001:0001CD8C       TPrinter.SetPrinter
 0001:0001CFC0       TPrinter.GetCanvas
 0001:0001CFE4       TPrinter.GetPageHeight
 0001:0001D004       TPrinter.GetPageWidth
 0001:0001D024       TPrinter.GetPrinterIndex
 0001:0001D040       TPrinter.GetPrinters
 0001:0001D3EC       Printer
 0001:0001D410       Finalization
 0001:0001D44C       Printers
 0001:0001E52C       InitWndProc
 0001:0001E5E4       FindControl
 0001:0001E600       SendAppMessage
 0001:0001E7B0       CursorToIdent
 0001:0001E7C0       IdentToCursor
 0001:0001E7D0       GetShortHint
 0001:0001E814       GetLongHint
 0001:0001E858       GetCaptureControl
 0001:0001E880       SetCaptureControl
 0001:0001E8C4       TDragObject.Instance
 0001:0001E8CC       TDragObject.GetName
 0001:0001E8F4       TDragObject.GetDragImages
 0001:0001E924       TDragObject.GetDragCursor
 0001:0001E93C       TDragObject.Finished
 0001:0001E944       TDragObject.HideDragImage
 0001:0001E948       TDragObject.ShowDragImage
 0001:0001E9CC       TDragControlObject.Create
 0001:0001E9EC       TDragControlObject.GetDragImages
 0001:0001E9F8       TDragControlObject.HideDragImage
 0001:0001EA18       TDragControlObject.ShowDragImage
 0001:0001EA38       TDragControlObject.GetDragCursor
 0001:0001EA50       TDragControlObject.Finished
 0001:0001EF68       CancelDrag
 0001:0001EF80       FindVCLWindow
 0001:0001EFB4       FindDragTarget
 0001:0001F040       MoveWindowOrg
 0001:0001F1D8       TControlCanvas.Destroy
 0001:0001F204       TControlCanvas.CreateHandle
 0001:0001F2A0       TControlCanvas.FreeHandle
 0001:0001F2D4       TControlCanvas.SetControl
 0001:0001F2EC       TControl.Create
 0001:0001F37C       TControl.Destroy
 0001:0001F3C8       TControl.GetDragImages
 0001:0001F3CC       TControl.GetPalette
 0001:0001F3D0       TControl.HasParent
 0001:0001F3D8       TControl.GetParentComponent
 0001:0001F3DC       TControl.SetParentComponent
 0001:0001F400       TControl.PaletteChanged
 0001:0001F47C       TControl.SetDragMode
 0001:0001F480       TControl.RequestAlign
 0001:0001F490       TControl.ReadState
 0001:0001F510       TControl.Notification
 0001:0001F53C       TControl.SetAlign
 0001:0001F5A0       TControl.SetBounds
 0001:0001F60C       TControl.SetLeft
 0001:0001F62C       TControl.SetTop
 0001:0001F64C       TControl.SetWidth
 0001:0001F66C       TControl.SetHeight
 0001:0001F68C       TControl.GetBoundsRect
 0001:0001F6AC       TControl.SetBoundsRect
 0001:0001F6D4       TControl.GetClientRect
 0001:0001F6EC       TControl.GetClientWidth
 0001:0001F704       TControl.SetClientWidth
 0001:0001F730       TControl.GetClientHeight
 0001:0001F748       TControl.SetClientHeight
 0001:0001F770       TControl.GetClientOrigin
 0001:0001F800       TControl.ClientToScreen
 0001:0001F82C       TControl.ScreenToClient
 0001:0001F858       TControl.SendCancelMode
 0001:0001F870       TControl.Changed
 0001:0001F880       TControl.ChangeScale
 0001:0001F9D0       TControl.SetName
 0001:0001FAB8       TControl.SetParent
 0001:0001FB3C       TControl.SetVisible
 0001:0001FB78       TControl.SetEnabled
 0001:0001FB90       TControl.GetTextLen
 0001:0001FBA0       TControl.GetTextBuf
 0001:0001FBAC       TControl.SetPopupMenu
 0001:0001FBBC       TControl.SetTextBuf
 0001:0001FBE0       TControl.GetText
 0001:0001FC10       TControl.SetText
 0001:0001FCB0       TControl.SetFont
 0001:0001FCBC       TControl.IsFontStored
 0001:0001FCD0       TControl.IsShowHintStored
 0001:0001FCD8       TControl.SetParentFont
 0001:0001FCF8       TControl.SetShowHint
 0001:0001FD14       TControl.SetParentShowHint
 0001:0001FD34       TControl.SetColor
 0001:0001FD50       TControl.IsColorStored
 0001:0001FD58       TControl.SetParentColor
 0001:0001FD78       TControl.SetCursor
 0001:0001FD94       TControl.GetMouseCapture
 0001:0001FDA4       TControl.SetMouseCapture
 0001:0001FDCC       TControl.BringToFront
 0001:0001FE5C       TControl.SetZOrder
 0001:0001FE80       TControl.GetDeviceContext
 0001:00020040       TControl.Invalidate
 0001:00020050       TControl.Update
 0001:00020060       TControl.Refresh
 0001:00020068       TControl.Repaint
 0001:00020160       TControl.BeginDrag
 0001:00020234       TControl.DragCanceled
 0001:00020238       TControl.Dragging
 0001:00020244       TControl.DragOver
 0001:00020280       TControl.DragDrop
 0001:000202AC       TControl.DoStartDrag
 0001:000202CC       TControl.DoEndDrag
 0001:00020390       TControl.Perform
 0001:000203C4       TControl.VisibleChanging
 0001:000203C8       TControl.WndProc
 0001:000204A8       TControl.DefaultHandler
 0001:00020570       TControl.DefineProperties
 0001:000205C0       TControl.Click
 0001:000205E0       TControl.DblClick
 0001:00020600       TControl.MouseDown
 0001:00020674       TControl.WMLButtonDown
 0001:000206C0       TControl.WMNCLButtonDown
 0001:000206DC       TControl.WMLButtonDblClk
 0001:00020730       TControl.GetPopupMenu
 0001:000207A8       TControl.WMRButtonDown
 0001:000207D0       TControl.WMRButtonDblClk
 0001:000207F8       TControl.WMMButtonDown
 0001:00020820       TControl.WMMButtonDblClk
 0001:00020848       TControl.MouseMove
 0001:00020870       TControl.WMMouseMove
 0001:000208AC       TControl.MouseUp
 0001:00020918       TControl.WMLButtonUp
 0001:0002098C       TControl.WMRButtonUp
 0001:000209BC       TControl.WMMButtonUp
 0001:000209DC       TControl.WMCancelMode
 0001:00020A14       TControl.CMVisibleChanged
 0001:00020A3C       TControl.CMEnabledChanged
 0001:00020A44       TControl.CMFontChanged
 0001:00020A4C       TControl.CMColorChanged
 0001:00020A54       TControl.CMParentColorChanged
 0001:00020A84       TControl.CMParentShowHintChanged
 0001:00020AA0       TControl.CMParentFontChanged
 0001:00020AD0       TControl.CMSysFontChanged
 0001:00020AF0       TControl.CMHitTest
 0001:00020AF8       TControl.CMMouseEnter
 0001:00020B10       TControl.CMMouseLeave
 0001:00020B28       TControl.CMDesignHitTest
 0001:00020B30       TWinControl.Create
 0001:00020BC4       TWinControl.Destroy
 0001:00020C60       TWinControl.FixupTabList
 0001:00020D34       TWinControl.ReadState
 0001:00021114       TWinControl.AlignControls
 0001:00021224       TWinControl.DisableAlign
 0001:0002122C       TWinControl.EnableAlign
 0001:0002124C       TWinControl.Realign
 0001:00021254       TWinControl.ContainsControl
 0001:0002131C       TWinControl.InsertControl
 0001:000213DC       TWinControl.RemoveControl
 0001:00021458       TWinControl.GetControl
 0001:00021488       TWinControl.GetControlCount
 0001:000214A8       TWinControl.Broadcast
 0001:000214E8       TWinControl.NotifyControls
 0001:00021510       TWinControl.CreateSubClass
 0001:00021580       TWinControl.CreateParams
 0001:000216A0       TWinControl.CreateWnd
 0001:000217F8       TWinControl.CreateWindowHandle
 0001:0002183C       TWinControl.DestroyWnd
 0001:00021894       TWinControl.DestroyWindowHandle
 0001:000218EC       TWinControl.CreateHandle
 0001:00021958       TWinControl.DestroyHandle
 0001:0002199C       TWinControl.RecreateWnd
 0001:000219B4       TWinControl.CMRecreateWnd
 0001:00021AE4       TWinControl.UpdateControlState
 0001:00021B24       TWinControl.MainWndProc
 0001:00021B9C       TWinControl.ControlAtPos
 0001:00021C5C       TWinControl.IsControlMouseMsg
 0001:00021CE8       TWinControl.WndProc
 0001:00021E10       TWinControl.DefaultHandler
 0001:00021EF8       TWinControl.PaintHandler
 0001:00022020       TWinControl.PaintWindow
 0001:0002204C       TWinControl.PaintControls
 0001:00022254       TWinControl.PaintTo
 0001:000223A4       TWinControl.WMPaint
 0001:00022500       TWinControl.WMCommand
 0001:00022520       TWinControl.WMNotify
 0001:00022544       TWinControl.WMSysColorChange
 0001:00022560       TWinControl.WMWinIniChange
 0001:00022574       TWinControl.WMFontChange
 0001:00022584       TWinControl.WMTimeChange
 0001:00022594       TWinControl.WMHScroll
 0001:000225B4       TWinControl.WMVScroll
 0001:000225D4       TWinControl.WMCompareItem
 0001:000225F8       TWinControl.WMDeleteItem
 0001:0002261C       TWinControl.WMDrawItem
 0001:00022640       TWinControl.WMMeasureItem
 0001:00022664       TWinControl.WMEraseBkgnd
 0001:000226A0       TWinControl.WMWindowPosChanged
 0001:00022730       TWinControl.WMSize
 0001:00022750       TWinControl.WMMove
 0001:00022764       TWinControl.WMSetCursor
 0001:00022850       TWinControl.WMSetFocus
 0001:00022864       TWinControl.WMKillFocus
 0001:00022878       TWinControl.WMIMEStartComp
 0001:0002288C       TWinControl.WMIMEEndComp
 0001:000228A0       TWinControl.SetIme
 0001:00022948       TWinControl.ResetIme
 0001:000229A4       TWinControl.DoEnter
 0001:000229C4       TWinControl.DoExit
 0001:000229E4       TWinControl.KeyDown
 0001:00022A0C       TWinControl.DoKeyDown
 0001:00022AA0       TWinControl.WMKeyDown
 0001:00022AC0       TWinControl.WMSysKeyDown
 0001:00022AE0       TWinControl.KeyUp
 0001:00022B08       TWinControl.DoKeyUp
 0001:00022B6C       TWinControl.WMKeyUp
 0001:00022B8C       TWinControl.WMSysKeyUp
 0001:00022BAC       TWinControl.KeyPress
 0001:00022BCC       TWinControl.DoKeyPress
 0001:00022C38       TWinControl.WMChar
 0001:00022C58       TWinControl.WMSysCommand
 0001:00022CD0       TWinControl.WMCharToItem
 0001:00022CF0       TWinControl.WMParentNotify
 0001:00022D24       TWinControl.WMVKeyToItem
 0001:00022D44       TWinControl.WMDestroy
 0001:00022D78       TWinControl.WMNCDestroy
 0001:00022D94       TWinControl.WMNCHitTest
 0001:00022DB8       TWinControl.PaletteChanged
 0001:00022E1C       TWinControl.WMQueryNewPalette
 0001:00022E40       TWinControl.WMPaletteChanged
 0001:00022E60       TWinControl.CMShowHintChanged
 0001:00022E78       TWinControl.CMEnter
 0001:00022E8C       TWinControl.CMExit
 0001:00022EA0       TWinControl.CMDesignHitTest
 0001:00022EC0       TWinControl.CMChanged
 0001:00022ED4       TWinControl.CMChildKey
 0001:00022EE8       TWinControl.CMDialogKey
 0001:00022EF0       TWinControl.CMDialogChar
 0001:00022EF8       TWinControl.CMFocusChanged
 0001:00022F00       TWinControl.CMVisibleChanged
 0001:00022F30       TWinControl.CMShowingChanged
 0001:00022F58       TWinControl.CMEnabledChanged
 0001:00022F98       TWinControl.CMColorChanged
 0001:00022FC0       TWinControl.CMFontChanged
 0001:00022FFC       TWinControl.CMCursorChanged
 0001:0002303C       TWinControl.CMCtl3DChanged
 0001:0002307C       TWinControl.CMParentCtl3DChanged
 0001:000230BC       TWinControl.CMSysColorChange
 0001:000230C4       TWinControl.CMWinIniChange
 0001:000230CC       TWinControl.CMFontChange
 0001:000230D4       TWinControl.CMTimeChange
 0001:000230DC       TWinControl.CMDrag
 0001:00023134       TWinControl.CMControlListChange
 0001:00023148       TWinControl.CMSysFontChanged
 0001:000231EC       TWinControl.CNKeyDown
 0001:000232C4       TWinControl.CNKeyUp
 0001:00023318       TWinControl.CNChar
 0001:00023364       TWinControl.CNSysKeyDown
 0001:000233C0       TWinControl.CNSysChar
 0001:000233F4       TWinControl.SetBounds
 0001:000234C4       TWinControl.ScaleControls
 0001:0002350C       TWinControl.ChangeScale
 0001:0002356C       TWinControl.ScrollBy
 0001:00023644       TWinControl.ShowControl
 0001:00023730       TWinControl.SetZOrder
 0001:00023790       TWinControl.GetDeviceContext
 0001:00023828       TWinControl.Invalidate
 0001:00023838       TWinControl.CMInvalidate
 0001:00023888       TWinControl.Update
 0001:000238A4       TWinControl.Repaint
 0001:000238F0       TWinControl.CanFocus
 0001:00023924       TWinControl.SetFocus
 0001:0002395C       TWinControl.Focused
 0001:00023980       TWinControl.HandleNeeded
 0001:000239A4       TWinControl.GetHandle
 0001:000239B8       TWinControl.GetClientOrigin
 0001:000239D8       TWinControl.GetClientRect
 0001:000239F0       TWinControl.SetCtl3D
 0001:00023A14       TWinControl.IsCtl3DStored
 0001:00023A20       TWinControl.SetParentCtl3D
 0001:00023A44       TWinControl.GetTabOrder
 0001:00023AC4       TWinControl.SetTabOrder
 0001:00023ADC       TWinControl.SetTabStop
 0001:00023B3C       TWinControl.HandleAllocated
 0001:00023BF8       TWinControl.GetTabOrderList
 0001:00023C50       TWinControl.FindNextControl
 0001:00023D54       TWinControl.SelectNext
 0001:00023D80       TWinControl.SelectFirst
 0001:00023DC4       TWinControl.GetChildren
 0001:00023E0C       TWinControl.SetChildOrder
 0001:00023E4C       TGraphicControl.Create
 0001:00023EA0       TGraphicControl.Destroy
 0001:00023ED0       TGraphicControl.WMPaint
 0001:00023F74       TGraphicControl.Paint
 0001:00023F78       THintWindow.Create
 0001:0002401C       THintWindow.CreateParams
 0001:00024048       THintWindow.WMNCHitTest
 0001:00024050       THintWindow.WMNCPaint
 0001:000240E8       THintWindow.Paint
 0001:0002417C       THintWindow.IsHintMsg
 0001:000241E0       THintWindow.ReleaseHandle
 0001:000241E8       THintWindow.CMTextChanged
 0001:00024270       THintWindow.ActivateHint
 0001:00024330       THintWindow.ActivateHintData
 0001:0002435C       THintWindow.CalcHintRect
 0001:000243B0       TCustomControl.Create
 0001:00024404       TCustomControl.Destroy
 0001:00024434       TCustomControl.WMPaint
 0001:0002443C       TCustomControl.PaintWindow
 0001:000244D4       TCustomControl.Paint
 0001:00024558       TCustomImageList.Create
 0001:0002459C       TCustomImageList.CreateSize
 0001:000245E8       TCustomImageList.Destroy
 0001:00024640       TCustomImageList.Initialize
 0001:00024700       TCustomImageList.HandleAllocated
 0001:00024708       TCustomImageList.HandleNeeded
 0001:000247F4       TCustomImageList.SetWidth
 0001:0002483C       TCustomImageList.SetHeight
 0001:00024884       TCustomImageList.SetHandle
 0001:000248C0       TCustomImageList.GetHandle
 0001:000249F4       TCustomImageList.GetImageBitmap
 0001:00024A34       TCustomImageList.GetMaskBitmap
 0001:00024A74       TCustomImageList.Add
 0001:00024B18       TCustomImageList.AddMasked
 0001:00024C30       TCustomImageList.GetCount
 0001:00024C54       TCustomImageList.ReplaceMasked
 0001:00024E50       TCustomImageList.Delete
 0001:00024EDC       TCustomImageList.Clear
 0001:00024EF8       TCustomImageList.SetBkColor
 0001:00024F34       TCustomImageList.GetBkColor
 0001:0002508C       TCustomImageList.AddImages
 0001:000250AC       TCustomImageList.Assign
 0001:00025168       TCustomImageList.AssignTo
 0001:00025350       TCustomImageList.SetDragCursor
 0001:00025368       TCustomImageList.SetDragImage
 0001:000253B0       TCustomImageList.BeginDrag
 0001:00025410       TCustomImageList.DragLock
 0001:00025474       TCustomImageList.DragUnlock
 0001:00025498       TCustomImageList.DragMove
 0001:000254DC       TCustomImageList.ShowDragImage
 0001:000254F4       TCustomImageList.HideDragImage
 0001:0002550C       TCustomImageList.EndDrag
 0001:00025554       TCustomImageList.Change
 0001:00025594       TCustomImageList.UnRegisterChanges
 0001:00025760       TCustomImageList.DefineProperties
 0001:00026064       Win32NLSEnableIME
 0001:0002607C       SetImeMode
 0001:00026158       Imm32IsIME
 0001:000262CC       Finalization
 0001:00026318       Controls
 0001:00026A20       ShortCutToText
 0001:00026C84       TextToShortCut
 0001:00026F04       TMenuItem.Create
 0001:00026F44       TMenuItem.Destroy
 0001:000273F4       TMenuItem.GetHandle
 0001:00027488       TMenuItem.DefineProperties
 0001:000274CC       TMenuItem.HasParent
 0001:000274D0       TMenuItem.SetBreak
 0001:000274E0       TMenuItem.SetCaption
 0001:00027550       TMenuItem.SetChecked
 0001:0002759C       TMenuItem.SetEnabled
 0001:00027610       TMenuItem.SetGroupIndex
 0001:00027654       TMenuItem.GetCount
 0001:00027664       TMenuItem.GetItem
 0001:00027684       TMenuItem.SetShortCut
 0001:00027690       TMenuItem.SetVisible
 0001:0002769C       TMenuItem.GetMenuIndex
 0001:000276B4       TMenuItem.SetMenuIndex
 0001:000276FC       TMenuItem.GetChildren
 0001:00027734       TMenuItem.SetChildOrder
 0001:00027754       TMenuItem.SetDefault
 0001:000277B0       TMenuItem.Insert
 0001:000278AC       TMenuItem.Delete
 0001:00027914       TMenuItem.Click
 0001:00027930       TMenuItem.IndexOf
 0001:00027948       TMenuItem.Add
 0001:00027964       TMenuItem.Remove
 0001:000279D4       TMenuItem.MenuChanged
 0001:00027A38       TMenuItem.GetParentComponent
 0001:00027A4C       TMenuItem.SetParentComponent
 0001:00027AA0       TMenuItem.SetRadioItem
 0001:00027ACC       TMenu.Create
 0001:00027B2C       TMenu.Destroy
 0001:00027B58       TMenu.GetChildren
 0001:00027B74       TMenu.GetHandle
 0001:00027B80       TMenu.SetChildOrder
 0001:00027C34       TMenu.FindItem
 0001:00027C64       TMenu.GetHelpContext
 0001:00027CD4       TMenu.DispatchCommand
 0001:00027CF8       TMenu.DispatchPopup
 0001:00027DA8       TMenu.IsShortCut
 0001:00027F68       TMenu.SetWindowHandle
 0001:00027F74       TMenu.MenuChanged
 0001:00027F78       TMainMenu.SetAutoMerge
 0001:00027F98       TMainMenu.MenuChanged
 0001:00027FB8       TMainMenu.Merge
 0001:00027FD4       TMainMenu.Unmerge
 0001:00028018       TMainMenu.GetHandle
 0001:000282F4       TPopupMenu.Create
 0001:0002834C       TPopupMenu.Destroy
 0001:00028390       TPopupMenu.GetHelpContext
 0001:00028398       TPopupMenu.SetHelpContext
 0001:000283A0       TPopupMenu.Popup
 0001:0002847C       Finalization
 0001:000284D8       Menus
 0001:00029730       DisableTaskWindows
 0001:000297E0       EnableTaskWindows
 0001:000298F8       ForegroundTask
 0001:0002999C       InitCtl3D
 0001:00029BD4       DoneCtl3D
 0001:00029BF8       Subclass3DDlg
 0001:00029C20       SetAutoSubClass
 0001:00029C90       MakeObjectInstance
 0001:00029D28       FreeObjectInstance
 0001:00029D4C       AllocateHWnd
 0001:00029E08       DeallocateHWnd
 0001:00029E30       KeysToShiftState
 0001:00029E84       KeyDataToShiftState
 0001:00029EC0       IsAccel
 0001:00029F60       GetParentForm
 0001:00029F8C       ValidParentForm
 0001:0002A058       TControlScrollBar.Assign
 0001:0002A3D0       TControlScrollBar.SetPosition
 0001:0002A4A4       TControlScrollBar.SetRange
 0001:0002A4B8       TControlScrollBar.IsRangeStored
 0001:0002A4C4       TControlScrollBar.SetVisible
 0001:0002A584       TScrollingWinControl.Create
 0001:0002A5E8       TScrollingWinControl.Destroy
 0001:0002A620       TScrollingWinControl.CreateParams
 0001:0002A630       TScrollingWinControl.CreateWnd
 0001:0002A644       TScrollingWinControl.AlignControls
 0001:0002A6EC       TScrollingWinControl.SetAutoScroll
 0001:0002A728       TScrollingWinControl.SetHorzScrollBar
 0001:0002A734       TScrollingWinControl.SetVertScrollBar
 0001:0002A838       TScrollingWinControl.AutoScrollInView
 0001:0002A850       TScrollingWinControl.ScrollInView
 0001:0002AA48       TScrollingWinControl.ChangeScale
 0001:0002AA6C       TScrollingWinControl.WMSize
 0001:0002AADC       TScrollingWinControl.WMHScroll
 0001:0002AB00       TScrollingWinControl.WMVScroll
 0001:0002AB24       TCustomForm.Create
 0001:0002ACB4       TCustomForm.CreateNew
 0001:0002ADC0       TCustomForm.Destroy
 0001:0002AEE8       TCustomForm.Loaded
 0001:0002AF20       TCustomForm.Notification
 0001:0002AFA8       TCustomForm.ReadState
 0001:0002B18C       TCustomForm.DefineProperties
 0001:0002B278       TCustomForm.ChangeScale
 0001:0002B354       TCustomForm.IsClientSizeStored
 0001:0002B364       TCustomForm.IsFormSizeStored
 0001:0002B38C       TCustomForm.IsAutoScrollStored
 0001:0002B3C0       TCustomForm.DoHide
 0001:0002B3E0       TCustomForm.DoShow
 0001:0002B400       TCustomForm.GetClientRect
 0001:0002B488       TCustomForm.GetChildren
 0001:0002B4F4       TCustomForm.SetChildOrder
 0001:0002B588       TCustomForm.SetClientWidth
 0001:0002B5B4       TCustomForm.SetClientHeight
 0001:0002B5E0       TCustomForm.SetVisible
 0001:0002B60C       TCustomForm.VisibleChanging
 0001:0002B670       TCustomForm.WantChildKey
 0001:0002B674       TCustomForm.SetParent
 0001:0002B6AC       TCustomForm.ValidateRename
 0001:0002B6E8       TCustomForm.WndProc
 0001:0002B9D8       TCustomForm.AlignControls
 0001:0002BA18       TCustomForm.SetBorderIcons
 0001:0002BA44       TCustomForm.SetBorderStyle
 0001:0002BA7C       TCustomForm.GetActiveMDIChild
 0001:0002BAB0       TCustomForm.GetMDIChildCount
 0001:0002BAFC       TCustomForm.GetMDIChildren
 0001:0002BB4C       TCustomForm.GetCanvas
 0001:0002BB54       TCustomForm.SetIcon
 0001:0002BB60       TCustomForm.IsColorStored
 0001:0002BB8C       TCustomForm.IsForm
 0001:0002BB94       TCustomForm.IsIconStored
 0001:0002BBBC       TCustomForm.SetFormStyle
 0001:0002BCB8       TCustomForm.SetObjectMenuItem
 0001:0002BCCC       TCustomForm.SetWindowMenu
 0001:0002BCF4       TCustomForm.SetMenu
 0001:0002BEB8       TCustomForm.GetPixelsPerInch
 0001:0002BECC       TCustomForm.SetPixelsPerInch
 0001:0002BF00       TCustomForm.SetPosition
 0001:0002BF1C       TCustomForm.GetScaled
 0001:0002BF28       TCustomForm.SetScaled
 0001:0002BF58       TCustomForm.CMColorChanged
 0001:0002BF94       TCustomForm.CMCtl3DChanged
 0001:0002BFDC       TCustomForm.CMFontChanged
 0001:0002BFFC       TCustomForm.CMMenuChanged
 0001:0002C018       TCustomForm.SetWindowState
 0001:0002C058       TCustomForm.CreateParams
 0001:0002C244       TCustomForm.CreateWnd
 0001:0002C384       TCustomForm.CreateWindowHandle
 0001:0002C484       TCustomForm.DestroyWindowHandle
 0001:0002C4C8       TCustomForm.DefaultHandler
 0001:0002C52C       TCustomForm.SetActiveControl
 0001:0002C5DC       TCustomForm.DefocusControl
 0001:0002C624       TCustomForm.FocusControl
 0001:0002C644       TCustomForm.SetFocusedControl
 0001:0002C8C4       TCustomForm.ActiveChanged
 0001:0002C97C       TCustomForm.SendCancelMode
 0001:0002CAD8       TCustomForm.Activate
 0001:0002CAF8       TCustomForm.Deactivate
 0001:0002CB18       TCustomForm.Paint
 0001:0002CB38       TCustomForm.Resize
 0001:0002CB74       TCustomForm.PaintWindow
 0001:0002CC24       TCustomForm.PaletteChanged
 0001:0002CCD0       TCustomForm.WMPaint
 0001:0002CD2C       TCustomForm.WMIconEraseBkgnd
 0001:0002CD8C       TCustomForm.WMEraseBkgnd
 0001:0002CDC4       TCustomForm.WMQueryDragIcon
 0001:0002CED4       TCustomForm.WMNCCreate
 0001:0002CF08       TCustomForm.WMDestroy
 0001:0002CF68       TCustomForm.WMCommand
 0001:0002CF9C       TCustomForm.WMInitMenuPopup
 0001:0002CFB4       TCustomForm.WMMenuSelect
 0001:0002D060       TCustomForm.WMActivate
 0001:0002D080       TCustomForm.WMSize
 0001:0002D0EC       TCustomForm.WMClose
 0001:0002D0F4       TCustomForm.WMQueryEndSession
 0001:0002D120       TCustomForm.CMAppSysCommand
 0001:0002D178       TCustomForm.WMSysCommand
 0001:0002D1A8       TCustomForm.WMShowWindow
 0001:0002D240       TCustomForm.WMMDIActivate
 0001:0002D298       TCustomForm.WMNextDlgCtl
 0001:0002D2C4       TCustomForm.WMEnterMenuLoop
 0001:0002D320       TCustomForm.WMHelp
 0001:0002D424       TCustomForm.CMActivate
 0001:0002D430       TCustomForm.CMDeactivate
 0001:0002D444       TCustomForm.CMDialogKey
 0001:0002D4E0       TCustomForm.CMShowingChanged
 0001:0002D898       TCustomForm.CMIconChanged
 0001:0002D8B8       TCustomForm.CMRelease
 0001:0002D8C0       TCustomForm.CMTextChanged
 0001:0002D910       TCustomForm.CMUIActivate
 0001:0002D918       TCustomForm.CMParentFontChanged
 0001:0002D984       TCustomForm.Close
 0001:0002DA2C       TCustomForm.CloseQuery
 0001:0002DB34       TCustomForm.GetFormImage
 0001:0002DC2C       TCustomForm.Print
 0001:0002DE58       TCustomForm.Hide
 0001:0002DE60       TCustomForm.Show
 0001:0002DE78       TCustomForm.SetFocus
 0001:0002DEE8       TCustomForm.Release
 0001:0002DF04       TCustomForm.ShowModal
 0001:0002E238       TScreen.Create
 0001:0002E3D4       TScreen.Destroy
 0001:0002E438       TScreen.GetHeight
 0001:0002E440       TScreen.GetWidth
 0001:0002E448       TScreen.GetForm
 0001:0002E454       TScreen.GetFormCount
 0001:0002E7F8       TScreen.GetDataModule
 0001:0002E804       TScreen.GetDataModuleCount
 0001:0002E80C       TScreen.GetCursors
 0001:0002E834       TScreen.SetCursor
 0001:0002EB70       TApplication.Create
 0001:0002ECEC       TApplication.Destroy
 0001:0002EDC4       TApplication.CreateHandle
 0001:0002EF4C       TApplication.ControlDestroyed
 0001:0002F0B0       TApplication.NormalizeTopMosts
 0001:0002F0B8       TApplication.NormalizeAllTopMosts
 0001:0002F0C0       TApplication.RestoreTopMosts
 0001:0002F884       TApplication.Minimize
 0001:0002F8CC       TApplication.Restore
 0001:0002F954       TApplication.BringToFront
 0001:0002F990       TApplication.GetTitle
 0001:0002FB90       TApplication.ProcessMessages
 0001:0002FBA0       TApplication.HandleMessage
 0001:0002FBB8       TApplication.HookMainWindow
 0001:0002FC14       TApplication.UnhookMainWindow
 0001:0002FC90       TApplication.Initialize
 0001:0002FCA8       TApplication.CreateForm
 0001:0002FD34       TApplication.Run
 0001:0002FDE8       TApplication.Terminate
 0001:0002FDFC       TApplication.HandleException
 0001:0002FE8C       TApplication.MessageBox
 0001:0002FF00       TApplication.ShowException
 0001:00030104       TApplication.HelpContext
 0001:00030110       TApplication.HelpCommand
 0001:00030118       TApplication.SetShowHint
 0001:00030364       TApplication.SetHint
 0001:000304A8       TApplication.HintMouseMessage
 0001:00030598       TApplication.HideHint
 0001:000305D4       TApplication.CancelHint
 0001:00030B00       Finalization
 0001:00030B54       Forms
 0001:00030B74       PrintDlg
 0001:00030B7C       Finalization
 0001:00030BAC       CommDlg
 0001:00032670       TCustomGroupBox.Create
 0001:000326C8       TCustomGroupBox.AlignControls
 0001:00032730       TCustomGroupBox.CreateParams
 0001:00032744       TCustomGroupBox.Paint
 0001:000328CC       TCustomGroupBox.CMDialogChar
 0001:00032948       TCustomGroupBox.CMTextChanged
 0001:00032960       TCustomGroupBox.CMCtl3DChanged
 0001:00032980       TCustomGroupBox.WMSize
 0001:00032998       TCustomLabel.Create
 0001:00032A04       TCustomLabel.GetLabelText
 0001:00032B80       TCustomLabel.Paint
 0001:00032C74       TCustomLabel.Loaded
 0001:00032D2C       TCustomLabel.SetAlignment
 0001:00032D4C       TCustomLabel.SetAutoSize
 0001:00032D64       TCustomLabel.GetTransparent
 0001:00032D70       TCustomLabel.SetFocusControl
 0001:00032D88       TCustomLabel.SetShowAccelChar
 0001:00032DA8       TCustomLabel.SetTransparent
 0001:00032DF0       TCustomLabel.SetLayout
 0001:00032E10       TCustomLabel.SetWordWrap
 0001:00032E38       TCustomLabel.Notification
 0001:00032E6C       TCustomLabel.CMTextChanged
 0001:00032E84       TCustomLabel.CMFontChanged
 0001:00032E9C       TCustomLabel.CMDialogChar
 0001:00032F28       TCustomEdit.Create
 0001:00032FD0       TCustomEdit.DoSetMaxLength
 0001:00032FF4       TCustomEdit.SetAutoSize
 0001:0003300C       TCustomEdit.SetBorderStyle
 0001:00033034       TCustomEdit.SetCharCase
 0001:0003304C       TCustomEdit.SetHideSelection
 0001:00033064       TCustomEdit.SetMaxLength
 0001:00033094       TCustomEdit.SetOEMConvert
 0001:000330AC       TCustomEdit.GetModified
 0001:000330E8       TCustomEdit.SetModified
 0001:00033124       TCustomEdit.SetPasswordChar
 0001:000331AC       TCustomEdit.SetReadOnly
 0001:000331EC       TCustomEdit.GetSelStart
 0001:00033214       TCustomEdit.SetSelStart
 0001:00033238       TCustomEdit.GetSelLength
 0001:00033268       TCustomEdit.SetSelLength
 0001:000332CC       TCustomEdit.Clear
 0001:000332EC       TCustomEdit.CopyToClipboard
 0001:0003330C       TCustomEdit.SelectAll
 0001:0003332C       TCustomEdit.GetSelTextBuf
 0001:000333C8       TCustomEdit.GetSelText
 0001:00033464       TCustomEdit.CreateParams
 0001:00033524       TCustomEdit.CreateWnd
 0001:000335D4       TCustomEdit.DestroyWnd
 0001:000336E8       TCustomEdit.Change
 0001:00033710       TCustomEdit.DefaultHandler
 0001:00033760       TCustomEdit.WMSetFont
 0001:000337A4       TCustomEdit.CMCtl3DChanged
 0001:000337DC       TCustomEdit.CMFontChanged
 0001:00033808       TCustomEdit.CNCommand
 0001:0003382C       TCustomEdit.CMEnter
 0001:0003386C       TCustomEdit.CMTextChanged
 0001:000338A8       TButtonControl.WndProc
 0001:00033918       TButton.Create
 0001:0003397C       TButton.Click
 0001:000339A4       TButton.SetButtonStyle
 0001:00033A00       TButton.SetDefault
 0001:00033A38       TButton.CreateParams
 0001:00033A78       TButton.CreateWnd
 0001:00033A94       TButton.CNCommand
 0001:00033AAC       TButton.CMDialogKey
 0001:00033B18       TButton.CMDialogChar
 0001:00033B98       TButton.CMFocusChanged
 0001:00033BEC       TButton.WMEraseBkgnd
 0001:00033C04       Finalization
 0001:00033C34       StdCtrls
 0001:000346BC       Frame3D
 0001:0003471C       TBevel.Create
 0001:00034784       TBevel.SetStyle
 0001:000347A0       TBevel.SetShape
 0001:000348EC       TBevel.Paint
 0001:00034AE8       TCustomPanel.Create
 0001:00034B74       TCustomPanel.CreateParams
 0001:00034BC8       TCustomPanel.CMTextChanged
 0001:00034BD4       TCustomPanel.CMCtl3DChanged
 0001:00034C00       TCustomPanel.CMIsToolControl
 0001:00034C14       TCustomPanel.Resize
 0001:00034C34       TCustomPanel.WMWindowPosChanged
 0001:00034D44       TCustomPanel.AlignControls
 0001:00034DC8       TCustomPanel.Paint
 0001:00034F24       TCustomPanel.SetAlignment
 0001:00034F38       TCustomPanel.SetBevelInner
 0001:00034F54       TCustomPanel.SetBevelOuter
 0001:00034F70       TCustomPanel.SetBevelWidth
 0001:00034F8C       TCustomPanel.SetBorderWidth
 0001:00034FA8       TCustomPanel.SetBorderStyle
 0001:00034FBC       Finalization
 0001:00034FEC       ExtCtrls
 0001:00034FF4       Finalization
 0001:00035024       Dlgs
 0001:00035330       TCommonDialog.Create
 0001:00035378       TCommonDialog.Destroy
 0001:000353AC       TCommonDialog.MessageHook
 0001:000353D8       TCommonDialog.DefaultHandler
 0001:00035414       TCommonDialog.WndProc
 0001:00035420       TCommonDialog.WMDestroy
 0001:00035440       TCommonDialog.WMInitDialog
 0001:0003545C       TCommonDialog.WMNCDestroy
 0001:00035474       TCommonDialog.TaskModalDialog
 0001:00035530       TCommonDialog.DoClose
 0001:00035548       TCommonDialog.DoShow
 0001:00035770       TPrinterSetupDialog.Execute
 0001:00035914       InputQuery
 0001:00035C00       InputBox
 0001:00035D80       Finalization
 0001:00035DDC       Dialogs
 0001:00035E78       TClipboard.Clear
 0001:00035EDC       TClipboard.Close
 0001:00035F0C       TClipboard.Open
 0001:00035F74       TClipboard.GetAsText
 0001:000361AC       TClipboard.AssignTo
 0001:00036320       TClipboard.Assign
 0001:00036370       Clipboard
 0001:00036394       Finalization
 0001:000363D0       Clipbrd
 0001:00036A18       MaskGetMaskSave
 0001:00036AA4       MaskGetMaskBlank
 0001:00036F4C       FormatMaskText
 0001:00036F84       TCustomMaskEdit.Create
 0001:00036FD0       TCustomMaskEdit.KeyDown
 0001:000370C4       TCustomMaskEdit.KeyUp
 0001:0003710C       TCustomMaskEdit.KeyPress
 0001:0003714C       TCustomMaskEdit.WMLButtonDown
 0001:0003716C       TCustomMaskEdit.WMLButtonUp
 0001:000371CC       TCustomMaskEdit.WMSetFocus
 0001:000371F0       TCustomMaskEdit.SetEditText
 0001:00037258       TCustomMaskEdit.GetEditText
 0001:00037270       TCustomMaskEdit.GetTextLen
 0001:000372C0       TCustomMaskEdit.GetText
 0001:0003734C       TCustomMaskEdit.SetText
 0001:00037454       TCustomMaskEdit.WMCut
 0001:0003748C       TCustomMaskEdit.WMPaste
 0001:00037574       TCustomMaskEdit.GetMasked
 0001:00037588       TCustomMaskEdit.ReformatText
 0001:00037648       TCustomMaskEdit.SetEditMask
 0001:00037718       TCustomMaskEdit.GetMaxLength
 0001:00037720       TCustomMaskEdit.SetMaxLength
 0001:00037750       TCustomMaskEdit.GetSel
 0001:00037778       TCustomMaskEdit.SetSel
 0001:000377A0       TCustomMaskEdit.SetCursor
 0001:00037948       TCustomMaskEdit.CheckCursor
 0001:0003798C       TCustomMaskEdit.EditCanModify
 0001:00037990       TCustomMaskEdit.Reset
 0001:00037DCC       TCustomMaskEdit.GetNextEditChar
 0001:00037DF8       TCustomMaskEdit.GetPriorEditChar
 0001:00038010       TCustomMaskEdit.CMEnter
 0001:000380A0       TCustomMaskEdit.CMTextChanged
 0001:00038130       TCustomMaskEdit.CMWantSpecialKey
 0001:0003816C       TCustomMaskEdit.CMExit
 0001:000381A4       TCustomMaskEdit.ValidateEdit
 0001:00038238       TCustomMaskEdit.ValidateError
 0001:00038DCC       Finalization
 0001:00038DFC       Mask
 0001:0003A3EC       TInplaceEdit.Create
 0001:0003A444       TInplaceEdit.CreateParams
 0001:0003A460       TInplaceEdit.CMShowingChanged
 0001:0003A464       TInplaceEdit.WMGetDlgCode
 0001:0003A490       TInplaceEdit.WMPaste
 0001:0003A4B4       TInplaceEdit.WMClear
 0001:0003A4D8       TInplaceEdit.WMCut
 0001:0003A4FC       TInplaceEdit.DblClick
 0001:0003A514       TInplaceEdit.EditCanModify
 0001:0003A670       TInplaceEdit.KeyDown
 0001:0003A87C       TInplaceEdit.KeyPress
 0001:0003A964       TInplaceEdit.KeyUp
 0001:0003A984       TInplaceEdit.WndProc
 0001:0003A9FC       TInplaceEdit.Deselect
 0001:0003AA20       TInplaceEdit.Invalidate
 0001:0003AAAC       TInplaceEdit.Hide
 0001:0003ABB8       TInplaceEdit.BoundsChanged
 0001:0003AC14       TInplaceEdit.UpdateLoc
 0001:0003AC20       TInplaceEdit.Visible
 0001:0003AC3C       TInplaceEdit.Move
 0001:0003AC48       TInplaceEdit.UpdateContents
 0001:0003ACFC       TCustomGrid.Create
 0001:0003AE44       TCustomGrid.Destroy
 0001:0003AFB8       TCustomGrid.AdjustSize
 0001:0003B11C       TCustomGrid.BoxRect
 0001:0003B150       TCustomGrid.DoExit
 0001:0003B170       TCustomGrid.CellRect
 0001:0003B194       TCustomGrid.CanEditAcceptKey
 0001:0003B198       TCustomGrid.CanGridAcceptKey
 0001:0003B19C       TCustomGrid.CanEditModify
 0001:0003B1A4       TCustomGrid.CanEditShow
 0001:0003B258       TCustomGrid.GetEditMask
 0001:0003B268       TCustomGrid.GetEditText
 0001:0003B278       TCustomGrid.SetEditText
 0001:0003B280       TCustomGrid.GetEditLimit
 0001:0003B284       TCustomGrid.HideEditor
 0001:0003B298       TCustomGrid.ShowEditor
 0001:0003B2AC       TCustomGrid.ShowEditorChar
 0001:0003B2E8       TCustomGrid.InvalidateEditor
 0001:0003B4B0       TCustomGrid.DefineProperties
 0001:0003B550       TCustomGrid.MoveColumn
 0001:0003B620       TCustomGrid.ColumnMoved
 0001:0003B624       TCustomGrid.MoveRow
 0001:0003B6AC       TCustomGrid.RowMoved
 0001:0003B6B0       TCustomGrid.MouseCoord
 0001:0003B704       TCustomGrid.SelectCell
 0001:0003B708       TCustomGrid.SizeChanged
 0001:0003B70C       TCustomGrid.Sizing
 0001:0003B764       TCustomGrid.TopLeftChanged
 0001:0003BCF4       TCustomGrid.Paint
 0001:0003CE1C       TCustomGrid.InvalidateCell
 0001:0003D764       TCustomGrid.ScrollData
 0001:0003DDA8       TCustomGrid.CreateEditor
 0001:0003DDBC       TCustomGrid.CreateParams
 0001:0003DEE8       TCustomGrid.KeyDown
 0001:0003E2F4       TCustomGrid.KeyPress
 0001:0003E334       TCustomGrid.MouseDown
 0001:0003E638       TCustomGrid.MouseMove
 0001:0003E7C4       TCustomGrid.MouseUp
 0001:0003EA64       TCustomGrid.GetColWidths
 0001:0003EA84       TCustomGrid.GetRowHeights
 0001:0003EAA4       TCustomGrid.GetSelection
 0001:0003EAC4       TCustomGrid.GetTabStops
 0001:0003EAD8       TCustomGrid.GetVisibleColCount
 0001:0003EAFC       TCustomGrid.GetVisibleRowCount
 0001:0003EB20       TCustomGrid.SetBorderStyle
 0001:0003EB38       TCustomGrid.SetCol
 0001:0003EB54       TCustomGrid.SetColCount
 0001:0003EBB4       TCustomGrid.SetColWidths
 0001:0003EC68       TCustomGrid.SetDefaultColWidth
 0001:0003ECA8       TCustomGrid.SetDefaultRowHeight
 0001:0003ECE8       TCustomGrid.SetFixedColor
 0001:0003ED00       TCustomGrid.SetFixedCols
 0001:0003ED90       TCustomGrid.SetFixedRows
 0001:0003EE20       TCustomGrid.SetEditorMode
 0001:0003EE50       TCustomGrid.SetGridLineWidth
 0001:0003EE68       TCustomGrid.SetOptions
 0001:0003EEE0       TCustomGrid.SetRow
 0001:0003EEFC       TCustomGrid.SetRowCount
 0001:0003EF3C       TCustomGrid.SetRowHeights
 0001:0003EFF0       TCustomGrid.SetScrollBars
 0001:0003F238       TCustomGrid.WMChar
 0001:0003F268       TCustomGrid.WMCommand
 0001:0003F2A0       TCustomGrid.WMGetDlgCode
 0001:0003F2D0       TCustomGrid.WMKillFocus
 0001:0003F320       TCustomGrid.WMLButtonDown
 0001:0003F34C       TCustomGrid.WMNCHitTest
 0001:0003F394       TCustomGrid.WMSetCursor
 0001:0003F43C       TCustomGrid.WMSetFocus
 0001:0003F48C       TCustomGrid.WMSize
 0001:0003F4A4       TCustomGrid.WMVScroll
 0001:0003F4BC       TCustomGrid.WMHScroll
 0001:0003F4D4       TCustomGrid.CMCancelMode
 0001:0003F4FC       TCustomGrid.CMFontChanged
 0001:0003F524       TCustomGrid.CMCtl3DChanged
 0001:0003F53C       TCustomGrid.CMDesignHitTest
 0001:0003F560       TCustomGrid.CMWantSpecialKey
 0001:0003F58C       TCustomGrid.TimedScroll
 0001:0003F634       TCustomGrid.WMTimer
 0001:0003F728       TCustomGrid.ColWidthsChanged
 0001:0003F740       TCustomGrid.RowHeightsChanged
 0001:0003F758       TCustomGrid.UpdateDesigner
 0001:0003F798       TDrawGrid.CellRect
 0001:0003F7BC       TDrawGrid.MouseToCell
 0001:0003F7F4       TDrawGrid.ColumnMoved
 0001:0003F818       TDrawGrid.GetEditMask
 0001:0003F858       TDrawGrid.GetEditText
 0001:0003F898       TDrawGrid.RowMoved
 0001:0003F8BC       TDrawGrid.SelectCell
 0001:0003F8F0       TDrawGrid.SetEditText
 0001:0003F91C       TDrawGrid.DrawCell
 0001:0003F964       TDrawGrid.TopLeftChanged
 0001:00040534       TStringGridStrings.Create
 0001:00040578       TStringGridStrings.Assign
 0001:000406B0       TStringGridStrings.Add
 0001:00040760       TStringGridStrings.Clear
 0001:000407D4       TStringGridStrings.Delete
 0001:0004081C       TStringGridStrings.Get
 0001:0004085C       TStringGridStrings.GetCount
 0001:00040880       TStringGridStrings.GetObject
 0001:000408B4       TStringGridStrings.Insert
 0001:00040900       TStringGridStrings.Put
 0001:00040930       TStringGridStrings.PutObject
 0001:00040960       TStringGridStrings.SetUpdateState
 0001:00040970       TStringGrid.Create
 0001:000409BC       TStringGrid.Destroy
 0001:00040A6C       TStringGrid.ColumnMoved
 0001:00040AA4       TStringGrid.RowMoved
 0001:00040AD8       TStringGrid.GetEditText
 0001:00040B1C       TStringGrid.SetEditText
 0001:00040C74       TStringGrid.DrawCell
 0001:00040EA4       TStringGrid.GetCells
 0001:00040EE8       TStringGrid.GetCols
 0001:00040EF4       TStringGrid.GetObjects
 0001:00040F24       TStringGrid.GetRows
 0001:00040F30       TStringGrid.SetCells
 0001:00040F80       TStringGrid.SetObjects
 0001:00040FD0       Finalization
 0001:00041000       Grids
 0001:00041188       Finalization
 0001:000411B8       DbConsts
 0001:00043A58       DatabaseError
 0001:00043A74       DatabaseErrorFmt
 0001:00043A9C       DisposeMem
 0001:00043AB4       BuffersEqual
 0001:00043AC8       ExtractFieldName
 0001:00043B58       TDataSetDesigner.BeginDesign
 0001:00043B90       TDataSetDesigner.EndDesign
 0001:00043C08       TFieldDef.Create
 0001:00043C90       TFieldDef.Destroy
 0001:00043CC4       TFieldDef.CreateField
 0001:00043DDC       TFieldDef.GetFieldClass
 0001:00043DF4       TFieldDefs.Create
 0001:00043E30       TFieldDefs.Destroy
 0001:00043E60       TFieldDefs.Clear
 0001:00043E84       TFieldDefs.Find
 0001:00043F18       TFieldDefs.GetCount
 0001:00043F20       TFieldDefs.GetItem
 0001:00043F30       TFieldDefs.IndexOf
 0001:00043F74       TFieldDefs.Update
 0001:00043F84       TLookupList.Create
 0001:00043FBC       TLookupList.Destroy
 0001:00043FEC       TLookupList.Add
 0001:00044030       TLookupList.Clear
 0001:0004406C       TLookupList.ValueOfKey
 0001:000440DC       TField.Create
 0001:00044148       TField.Destroy
 0001:0004418C       TField.AccessError
 0001:00044234       TField.Assign
 0001:0004439C       TField.Change
 0001:000443C0       TField.CheckInactive
 0001:000443D8       TField.Clear
 0001:000444AC       TField.DefineProperties
 0001:00044570       TField.FieldKindStored
 0001:00044578       TField.FocusControl
 0001:000445A8       TField.FreeBuffers
 0001:000445AC       TField.GetAsBoolean
 0001:000445DC       TField.GetAsCurrency
 0001:00044604       TField.GetAsDateTime
 0001:00044640       TField.GetAsFloat
 0001:00044678       TField.GetAsInteger
 0001:000446A8       TField.GetAsString
 0001:000447F8       TField.GetAsVariant
 0001:00044828       TField.GetCalculated
 0001:00044830       TField.GetCanModify
 0001:00044874       TField.GetData
 0001:00044938       TField.GetDataSize
 0001:0004493C       TField.GetDefaultWidth
 0001:00044944       TField.GetDisplayLabel
 0001:0004495C       TField.GetDisplayName
 0001:00044988       TField.GetDisplayWidth
 0001:000449A0       TField.GetHasConstraints
 0001:000449C4       TField.GetIndex
 0001:000449E0       TField.GetIsIndexField
 0001:000449FC       TField.IsBlob
 0001:00044A00       TField.GetIsNull
 0001:00044A14       TField.GetLookup
 0001:00044A1C       TField.GetLookupList
 0001:00044A40       TField.GetText
 0001:00044A90       TField.HasParent
 0001:00044A94       TField.GetParentComponent
 0001:00044A98       TField.SetParentComponent
 0001:00044AC4       TField.IsValidChar
 0001:00044AD4       TField.IsDisplayLabelStored
 0001:00044AE4       TField.IsDisplayWidthStored
 0001:00044AEC       TField.Notification
 0001:00044B18       TField.PropertyChanged
 0001:00044BD8       TField.ReadState
 0001:00044C10       TField.RefreshLookupList
 0001:00044D3C       TField.SetAsBoolean
 0001:00044D6C       TField.SetAsCurrency
 0001:00044D98       TField.SetAsDateTime
 0001:00044DD0       TField.SetAsFloat
 0001:00044E04       TField.SetAsInteger
 0001:00044E34       TField.SetAsString
 0001:00044E64       TField.SetAsVariant
 0001:00044F38       TField.SetAlignment
 0001:00044F4C       TField.SetData
 0001:00044FE0       TField.SetDataSet
 0001:00045034       TField.SetDataType
 0001:00045038       TField.SetDisplayLabel
 0001:000450B0       TField.SetDisplayWidth
 0001:000450C4       TField.SetEditMask
 0001:000450E4       TField.SetFieldKind
 0001:0004514C       TField.SetFieldName
 0001:0004519C       TField.SetFieldType
 0001:000451A0       TField.SetIndex
 0001:00045200       TField.SetLookupDataSet
 0001:00045264       TField.SetLookupKeyFields
 0001:00045284       TField.SetLookupResultField
 0001:000452A4       TField.SetKeyFields
 0001:000452C4       TField.SetLookupCache
 0001:000452DC       TField.CheckTypeSize
 0001:0004533C       TField.SetSize
 0001:0004535C       TField.SetText
 0001:0004536C       TField.SetReadOnly
 0001:00045380       TField.SetVarValue
 0001:000453B0       TField.SetVisible
 0001:000453C4       TField.Validate
 0001:0004551C       TStringField.Create
 0001:0004556C       TStringField.CheckTypeSize
 0001:000455C4       TStringField.GetAsBoolean
 0001:00045630       TStringField.GetAsDateTime
 0001:00045688       TStringField.GetAsFloat
 0001:000456E0       TStringField.GetAsInteger
 0001:00045730       TStringField.GetAsString
 0001:00045754       TStringField.GetAsVariant
 0001:000457B8       TStringField.GetDataSize
 0001:000457C0       TStringField.GetDefaultWidth
 0001:000457C8       TStringField.GetText
 0001:00045854       TStringField.GetValue
 0001:000458CC       TStringField.SetAsBoolean
 0001:00045924       TStringField.SetAsDateTime
 0001:00045978       TStringField.SetAsFloat
 0001:000459D0       TStringField.SetAsInteger
 0001:00045A20       TStringField.SetAsString
 0001:00045A8C       TStringField.SetVarValue
 0001:00045ADC       TNumericField.Create
 0001:00045B18       TNumericField.RangeError
 0001:00045BB4       TNumericField.SetDisplayFormat
 0001:00045BE8       TNumericField.SetEditFormat
 0001:00045C1C       TIntegerField.Create
 0001:00045CEC       TIntegerField.GetAsFloat
 0001:00045D10       TIntegerField.GetAsInteger
 0001:00045D34       TIntegerField.GetAsString
 0001:00045D7C       TIntegerField.GetAsVariant
 0001:00045DB4       TIntegerField.GetDataSize
 0001:00045DBC       TIntegerField.GetText
 0001:00045EA0       TIntegerField.GetValue
 0001:00045EE4       TIntegerField.SetAsFloat
 0001:00045F00       TIntegerField.SetAsInteger
 0001:00045F58       TIntegerField.SetAsString
 0001:0004600C       TIntegerField.SetMaxValue
 0001:00046038       TIntegerField.SetMinValue
 0001:00046064       TIntegerField.SetVarValue
 0001:00046084       TSmallintField.Create
 0001:000460D4       TSmallintField.GetDataSize
 0001:000460DC       TWordField.Create
 0001:0004612C       TWordField.GetDataSize
 0001:00046134       TAutoIncField.Create
 0001:00046170       TFloatField.Create
 0001:0004620C       TFloatField.GetAsFloat
 0001:00046234       TFloatField.GetAsInteger
 0001:0004624C       TFloatField.GetAsString
 0001:00046288       TFloatField.GetAsVariant
 0001:000462C4       TFloatField.GetDataSize
 0001:000462CC       TFloatField.GetText
 0001:000463DC       TFloatField.SetAsFloat
 0001:00046444       TFloatField.SetAsInteger
 0001:00046464       TFloatField.SetAsString
 0001:00046520       TFloatField.SetCurrency
 0001:0004653C       TFloatField.SetMaxValue
 0001:0004655C       TFloatField.SetMinValue
 0001:0004657C       TFloatField.SetPrecision
 0001:000465AC       TFloatField.SetVarValue
 0001:00046608       TCurrencyField.Create
 0001:0004664C       TBooleanField.Create
 0001:00046690       TBooleanField.GetAsBoolean
 0001:000466B8       TBooleanField.GetAsString
 0001:000466FC       TBooleanField.GetAsVariant
 0001:0004673C       TBooleanField.GetDataSize
 0001:00046744       TBooleanField.GetDefaultWidth
 0001:000467B0       TBooleanField.SetAsBoolean
 0001:000467D4       TBooleanField.SetAsString
 0001:00046914       TBooleanField.SetDisplayValues
 0001:000469A4       TBooleanField.SetVarValue
 0001:000469C4       TDateTimeField.Create
 0001:00046A00       TDateTimeField.GetAsDateTime
 0001:00046A28       TDateTimeField.GetAsFloat
 0001:00046A40       TDateTimeField.GetAsString
 0001:00046A50       TDateTimeField.GetAsVariant
 0001:00046A8C       TDateTimeField.GetDataSize
 0001:00046A94       TDateTimeField.GetText
 0001:00046BF4       TDateTimeField.SetAsDateTime
 0001:00046C48       TDateTimeField.SetAsFloat
 0001:00046C5C       TDateTimeField.SetAsString
 0001:00046CC0       TDateTimeField.SetDisplayFormat
 0001:00046CF4       TDateTimeField.SetVarValue
 0001:00046D18       TDateField.Create
 0001:00046D54       TDateField.GetDataSize
 0001:00046D5C       TTimeField.Create
 0001:00046D98       TTimeField.GetDataSize
 0001:00046DA0       TBinaryField.Create
 0001:00046DD4       TBinaryField.CheckTypeSize
 0001:00046E20       TBinaryField.GetAsString
 0001:00046E50       TBinaryField.SetAsString
 0001:00046F30       TBinaryField.GetAsVariant
 0001:00046FC0       TBinaryField.SetVarValue
 0001:000470AC       TBinaryField.GetText
 0001:000470FC       TBinaryField.SetText
 0001:0004712C       TBytesField.Create
 0001:00047178       TBytesField.GetDataSize
 0001:00047180       TVarBytesField.Create
 0001:000471CC       TVarBytesField.GetDataSize
 0001:000471D8       TBCDField.Create
 0001:00047278       TBCDField.CheckTypeSize
 0001:000472C8       TBCDField.GetAsCurrency
 0001:000472F0       TBCDField.GetAsFloat
 0001:00047320       TBCDField.GetAsInteger
 0001:0004734C       TBCDField.GetAsString
 0001:00047384       TBCDField.GetAsVariant
 0001:000473C0       TBCDField.GetDataSize
 0001:000473C8       TBCDField.GetDefaultWidth
 0001:000473E4       TBCDField.GetText
 0001:00047520       TBCDField.GetValue
 0001:000475E8       TBCDField.SetAsCurrency
 0001:000476A4       TBCDField.SetAsFloat
 0001:000476C4       TBCDField.SetAsInteger
 0001:000476F0       TBCDField.SetAsString
 0001:000477A8       TBCDField.SetCurrency
 0001:000477C4       TBCDField.SetMaxValue
 0001:000477E4       TBCDField.SetMinValue
 0001:00047804       TBCDField.SetVarValue
 0001:00047860       TBlobField.Create
 0001:0004789C       TBlobField.Assign
 0001:00047938       TBlobField.AssignTo
 0001:000479AC       TBlobField.Clear
 0001:000479CC       TBlobField.FreeBuffers
 0001:000479F0       TBlobField.GetAsString
 0001:00047A60       TBlobField.GetAsVariant
 0001:00047AB0       TBlobField.GetBlobSize
 0001:00047B08       TBlobField.GetBlobType
 0001:00047B0C       TBlobField.GetIsNull
 0001:00047B80       TBlobField.GetModified
 0001:00047BA0       TBlobField.GetText
 0001:00047BF0       TBlobField.IsBlob
 0001:00047DF0       TBlobField.SaveToStream
 0001:00047E9C       TBlobField.SetAsString
 0001:00047EF8       TBlobField.SetBlobType
 0001:00047F0C       TBlobField.SetFieldType
 0001:00047F20       TBlobField.SetModified
 0001:00047F3C       TBlobField.SetText
 0001:00047F6C       TBlobField.SetVarValue
 0001:00047FBC       TMemoField.Create
 0001:00048000       TGraphicField.Create
 0001:0004803C       TIndexDef.Create
 0001:0004809C       TIndexDef.Destroy
 0001:000480D0       TIndexDef.GetFields
 0001:000480F8       TIndexDefs.Create
 0001:00048134       TIndexDefs.Destroy
 0001:00048164       TIndexDefs.Add
 0001:000481F0       TIndexDefs.Clear
 0001:00048214       TIndexDefs.FindIndexForFields
 0001:000482A0       TIndexDefs.GetCount
 0001:000482A8       TIndexDefs.GetIndexForFields
 0001:000483DC       TIndexDefs.GetItem
 0001:000483EC       TIndexDefs.IndexOf
 0001:00048430       TIndexDefs.Update
 0001:00048440       TDataLink.Create
 0001:0004847C       TDataLink.Destroy
 0001:00048514       TDataLink.GetDataSet
 0001:00048524       TDataLink.SetDataSource
 0001:00048628       TDataLink.UpdateRecord
 0001:0004876C       TDataLink.ActiveChanged
 0001:00048770       TDataLink.CheckBrowseMode
 0001:00048774       TDataLink.DataSetChanged
 0001:00048780       TDataLink.DataSetScrolled
 0001:0004878C       TDataLink.EditingChanged
 0001:00048790       TDataLink.FocusControl
 0001:00048794       TDataLink.LayoutChanged
 0001:000487A0       TDataLink.RecordChanged
 0001:000487A4       TDataLink.UpdateData
 0001:000487A8       TDataSource.Create
 0001:000487F4       TDataSource.Destroy
 0001:000488C8       TDataSource.IsLinkedTo
 0001:000488F8       TDataSource.SetDataSet
 0001:00048970       TDataSource.SetEnabled
 0001:00048AC8       TCheckConstraint.Assign
 0001:00048B14       TCheckConstraint.GetDisplayName
 0001:00048B48       TCheckConstraint.SetImportedConstraint
 0001:00048B74       TCheckConstraint.SetCustomConstraint
 0001:00048BA0       TCheckConstraint.SetErrorMessage
 0001:00048BCC       TCheckConstraints.Create
 0001:00048C0C       TCheckConstraints.GetOwner
 0001:00048C10       TCheckConstraints.GetItem
 0001:00048C28       TDataSet.Create
 0001:00048CA8       TDataSet.Destroy
 0001:00048D34       TDataSet.SetName
 0001:00048EB8       TDataSet.GetChildren
 0001:00048F00       TDataSet.SetChildOrder
 0001:00048F34       TDataSet.Loaded
 0001:00048F9C       TDataSet.SetState
 0001:00048FB8       TDataSet.GetFound
 0001:00048FBC       TDataSet.SetFound
 0001:00048FC0       TDataSet.SetTempState
 0001:00048FD0       TDataSet.RestoreState
 0001:00048FDC       TDataSet.Open
 0001:00048FE8       TDataSet.Close
 0001:00048FF4       TDataSet.CheckInactive
 0001:0004905C       TDataSet.CheckActive
 0001:000490AC       TDataSet.GetActive
 0001:000490B4       TDataSet.SetActive
 0001:000491FC       TDataSet.OpenCursor
 0001:00049220       TDataSet.CloseCursor
 0001:0004922C       TDataSet.InitFieldDefs
 0001:0004927C       TDataSet.GetFieldClass
 0001:00049288       TDataSet.CreateFields
 0001:000492C4       TDataSet.DestroyFields
 0001:000492F4       TDataSet.BindFields
 0001:00049504       TDataSet.FreeFieldBuffers
 0001:00049558       TDataSet.GetFieldCount
 0001:00049560       TDataSet.GetField
 0001:00049570       TDataSet.GetFieldValue
 0001:00049688       TDataSet.FieldByName
 0001:00049710       TDataSet.FieldByNumber
 0001:00049748       TDataSet.FindField
 0001:00049798       TDataSet.SetConstraints
 0001:000498A4       TDataSet.GetStateFieldValue
 0001:00049918       TDataSet.SetStateFieldValue
 0001:000499C0       TDataSet.CloseBlob
 0001:000499C4       TDataSet.CreateBlobStream
 0001:000499C8       TDataSet.BCDToCurr
 0001:000499CC       TDataSet.CurrToBCD
 0001:000499D8       TDataSet.GetIsIndexField
 0001:000499DC       TDataSet.UpdateIndexDefs
 0001:000499E0       TDataSet.GetDataSource
 0001:000499E4       TDataSet.IsLinkedTo
 0001:00049A68       TDataSet.DataEvent
 0001:00049B58       TDataSet.DisableControls
 0001:00049B6C       TDataSet.EnableControls
 0001:00049BB4       TDataSet.UpdateRecord
 0001:00049C14       TDataSet.SetBufListSize
 0001:00049F00       TDataSet.SetCurrentRecord
 0001:00049F60       TDataSet.GetNextRecord
 0001:0004A004       TDataSet.GetPriorRecord
 0001:0004A07C       TDataSet.Resync
 0001:0004A280       TDataSet.ActiveBuffer
 0001:0004A28C       TDataSet.TempBuffer
 0001:0004A298       TDataSet.ClearBuffers
 0001:0004A2B4       TDataSet.ActivateBuffers
 0001:0004A2D0       TDataSet.UpdateCursorPos
 0001:0004A2E8       TDataSet.CursorPosChanged
 0001:0004A2F0       TDataSet.GetCurrentRecord
 0001:0004A2F4       TDataSet.GetNextRecords
 0001:0004A348       TDataSet.GetPriorRecords
 0001:0004A39C       TDataSet.InitRecord
 0001:0004A3D0       TDataSet.IsEmpty
 0001:0004A3DC       TDataSet.GetCalcFields
 0001:0004A440       TDataSet.CalculateFields
 0001:0004A48C       TDataSet.ClearCalcFields
 0001:0004A490       TDataSet.RefreshInternalCalcFields
 0001:0004A518       TDataSet.First
 0001:0004A5A0       TDataSet.MoveBy
 0001:0004A72C       TDataSet.Next
 0001:0004A73C       TDataSet.Post
 0001:0004A7C0       TDataSet.Cancel
 0001:0004A980       TDataSet.BookmarkAvailable
 0001:0004A9BC       TDataSet.GetBookmark
 0001:0004A9F8       TDataSet.GetBookmarkStr
 0001:0004AA38       TDataSet.GotoBookmark
 0001:0004AA84       TDataSet.SetBookmarkStr
 0001:0004AA90       TDataSet.BookmarkValid
 0001:0004AA94       TDataSet.CompareBookmarks
 0001:0004AA98       TDataSet.FreeBookmark
 0001:0004AAA4       TDataSet.InternalCancel
 0001:0004AAA8       TDataSet.InternalEdit
 0001:0004AAAC       TDataSet.InternalRefresh
 0001:0004AAB0       TDataSet.Translate
 0001:0004AAC8       TDataSet.FindRecord
 0001:0004AACC       TDataSet.SetFiltered
 0001:0004AAD0       TDataSet.SetFilterOptions
 0001:0004AADC       TDataSet.SetFilterText
 0001:0004AAF4       TDataSet.SetOnFilterRecord
 0001:0004AB10       TDataSet.Locate
 0001:0004AB1C       TDataSet.Lookup
 0001:0004AB30       TDataSet.CheckBrowseMode
 0001:0004AB8C       TDataSet.GetCanModify
 0001:0004AB90       TDataSet.GetFieldList
 0001:0004AC0C       TDataSet.GetRecordCount
 0001:0004AC10       TDataSet.GetRecNo
 0001:0004AC14       TDataSet.SetRecNo
 0001:0004AC18       TDataSet.IsSequenced
 0001:0004AC1C       TDataSet.DoAfterCancel
 0001:0004AC40       TDataSet.DoAfterClose
 0001:0004AC64       TDataSet.DoAfterDelete
 0001:0004AC88       TDataSet.DoAfterEdit
 0001:0004ACAC       TDataSet.DoAfterInsert
 0001:0004ACD0       TDataSet.DoAfterOpen
 0001:0004ACF4       TDataSet.DoAfterPost
 0001:0004AD18       TDataSet.DoAfterScroll
 0001:0004AD3C       TDataSet.DoBeforeCancel
 0001:0004AD60       TDataSet.DoBeforeClose
 0001:0004AD84       TDataSet.DoBeforeDelete
 0001:0004ADA8       TDataSet.DoBeforeEdit
 0001:0004ADCC       TDataSet.DoBeforeInsert
 0001:0004ADF0       TDataSet.DoBeforeOpen
 0001:0004AE0C       TDataSet.DoBeforePost
 0001:0004AE30       TDataSet.DoBeforeScroll
 0001:0004AE54       TDataSet.DoOnCalcFields
 0001:0004AE78       TDataSet.DoOnNewRecord
 0001:0004AE9C       Finalization
 0001:0004AECC       Db
 0001:0004AED4       ErrCat
 0001:0004AEDC       DbiInit
 0001:0004C6B6       DbiCheckSQLExpression
 0001:0004C6BC       DbiEndConstraintLayer
 0001:0004C6C2       DsResolver
 0001:0004C6C8       DsProviderGetDataPacket
 0001:0004C6CE       DbiBeginConstraintLayer
 0001:0004C6DA       DbiSQLTextToCanEx
 0001:0004C704       DbiImportODBC
 0001:0004C70A       DbiDeleteDriver
 0001:0004C710       DbiAddDriver
 0001:0004C728       DbiSchemaCacheFlush
 0001:0004C72E       DbiDRDrop
 0001:0004C734       DbiDRAdd
 0001:0004C73A       DbiDRGetRelatedObject
 0001:0004C740       DbiOpenSessionRepository
 0001:0004C752       DbiGetDefaultRepository
 0001:0004C758       DbiSetDefaultRepository
 0001:0004C75E       DbiOpenRepositoryList
 0001:0004C776       DbiDRGetEnumAttrDomain
 0001:0004C77C       DbiDRDeleteEnumAttrDomain
 0001:0004C782       DbiDRModifyEnumAttrDomain
 0001:0004C788       DbiDRCreateEnumAttrDomain
 0001:0004C78E       DbiDeleteAlias
 0001:0004C7A6       DbiAddAlias
 0001:0004C7B2       DbiOpenFunctionArgList
 0001:0004C7B8       DbiOpenFunctionList
 0001:0004C7BE       DbiDRDelete
 0001:0004C7C4       DbiDRCreate
 0001:0004C7CA       DbiDRLoadDBObject
 0001:0004C7D0       DbiDRSetToObjName
 0001:0004C7D6       DbiDRSetToObjID
 0001:0004C7DC       DbiDRGetObjID
 0001:0004C7E2       DbiDROpenRelSet
 0001:0004C7E8       DbiDROpenObjSet
 0001:0004C7EE       DbiDRGetRelTypeInfo
 0001:0004C7F4       DbiDRGetAttrDescs
 0001:0004C7FA       DbiDRGetObjTypeInfo
 0001:0004C800       DbiDROpenRelTypeList
 0001:0004C806       DbiDROpenAttrTypeList
 0001:0004C80C       DbiDROpenObjectTypeList
 0001:0004C812       DbiDRDeleteObjectType
 0001:0004C818       DbiDRDeleteRelationType
 0001:0004C81E       DbiDRCreateRelationType
 0001:0004C824       DbiDRDropAttr
 0001:0004C82A       DbiDRAddAttr
 0001:0004C830       DbiDRCreateObjectType
 0001:0004C836       DbiDRExportToFile
 0001:0004C83C       DbiDRImportFromFile
 0001:0004C842       DbiDRClose
 0001:0004C848       DbiDROpen
 0001:0004C84E       DbiDRGetDesc
 0001:0004C854       DbiApplyDelayedUpdates
 0001:0004C85A       DbiEndDelayedUpdates
 0001:0004C860       DbiBeginDelayedUpdates
 0001:0004C908       DbiQPrepareExt
 0001:0004C90E       DbiQExecProcDirect
 0001:0004C914       DbiQSetProcParams
 0001:0004C91A       DbiQPrepareProc
 0001:0004C920       DbiOpenSPParamList
 0001:0004C926       DbiOpenSPList
 0001:0004C980       DbiGetRintDesc
 0001:0004C986       DbiGetVchkDesc
 0001:0004C998       DbiOpenFieldXlt
 0001:0004C99E       DbiValidateProp
 0001:0004C9AA       DbiCloseFieldXlt
 0001:0004C9B0       DbiTranslateField
 0001:0004C9B6       DbiTranslateRecordStructure
 0001:0004C9BC       DbiGetFilterInfo
 0001:0004C9C8       DbiGetObjFromObj
 0001:0004C9F8       DbiBcdFromFloat
 0001:0004C9FE       DbiBcdToFloat
 0001:0004CA16       DbiGetObjFromName
 0001:0004CA1C       DbiSetProp
 0001:0004CA22       DbiGetProp
 0001:0004CA28       DbiAnsiToNative
 0001:0004CA2E       DbiNativeToAnsi
 0001:0004CA34       DbiMakePermanent
 0001:0004CA3A       DbiGetIndexDescs
 0001:0004CA46       DbiCloseConfigFile
 0001:0004CA4C       DbiOpenConfigFile
 0001:0004CA52       DbiOpenCfgInfoList
 0001:0004CA88       OsLdBuildCharSetXform
 0001:0004CBA2       OsLdStrnColli
 0001:0004CBC0       OsLdStrnColl
 0001:0004CBC6       OsLdExStrCmp
 0001:0004CBD2       OsLdLoadByDriverId
 0001:0004CBD8       OsLdGetDriverId
 0001:0004CC1A       OsLdGetFuncAddrLdStrnCmpi_
 0001:0004CC56       OsLdGetFuncAddrLdStrnColl_
 0001:0004CC5C       OsLdGetFuncAddrLdStrnColli_
 0001:0004CDD6       DbiGetExactRecordCount
 0001:0004CE06       DbiGetLdNameFromDb
 0001:0004CE18       DbiSortTable
 0001:0004CE1E       DbiGetTranInfo
 0001:0004CE24       DbiEndTran
 0001:0004CE2A       DbiBeginTran
 0001:0004CE3C       DbiBatchMove
 0001:0004CE48       DbiDeactivateFilter
 0001:0004CE4E       DbiActivateFilter
 0001:0004CE54       DbiDropFilter
 0001:0004CE5A       DbiAddFilter
 0001:0004CE66       DbiGetLdName
 0001:0004CE72       DbiUndeleteRecord
 0001:0004CE7E       DbiGetClientInfo
 0001:0004CEA2       OsLdSetConvChars
 0001:0004CEA8       OsLdGetMinMax
 0001:0004CEAE       OsLdGetProductID
 0001:0004CEB4       OsLdSearchEnd
 0001:0004CEBA       OsLdLoadByLCID
 0001:0004CEC6       OsLdSearchNext
 0001:0004CECC       OsLdSearchInit
 0001:0004CED2       OsLdGetDescName
 0001:0004CED8       OsLdCharToLower
 0001:0004CEDE       OsLdCharToUpper
 0001:0004CEE4       OsLdIsDigit
 0001:0004CEEA       OsLdIsAlpha
 0001:0004CEF0       OsLdUnloadObj
 0001:0004CEF6       OsLdOemCharToAnsi
 0001:0004CEFC       OsLdAnsiCharToOem
 0001:0004CF02       OsLdIsOemCharInAnsiCp
 0001:0004CF08       OsLdIsAnsiCharInOemCp
 0001:0004CF0E       OsLdOemToAnsi
 0001:0004CF14       OsLdAnsiToOem
 0001:0004CF1A       OsLdGetFName
 0001:0004CF20       OsLdGetCodePage
 0001:0004CF26       OsLdGetSortsig
 0001:0004CF2C       OsLdGetSymbName
 0001:0004CF32       OsLdStrnToUpper
 0001:0004CF38       OsLdStrToUpper
 0001:0004CF3E       OsLdStrnCmpi
 0001:0004CF44       OsLdStrCmpi
 0001:0004CF4A       OsLdStrnToLower
 0001:0004CF50       OsLdStrToLower
 0001:0004CF56       OsLdStrCmp
 0001:0004CF5C       OsLdStrnCmp
 0001:0004CF62       OsLdLoadBySymbName
 0001:0004CF68       OsLdLoadByFName
 0001:0004CF6E       OsLdLoadBySortSig
 0001:0004CF74       OsLdExit
 0001:0004CF7A       OsLdGetDefaultObj
 0001:0004CF80       OsLdInit
 0001:0004D1D8       DbiDebugLayerOptions
 0001:0004D1DE       DbiSetNumberFormat
 0001:0004D1E4       DbiGetNumberFormat
 0001:0004D1EA       DbiSetTimeFormat
 0001:0004D1F0       DbiGetTimeFormat
 0001:0004D1F6       DbiSetDateFormat
 0001:0004D1FC       DbiGetDateFormat
 0001:0004D202       DbiCfgMerge
 0001:0004D208       DbiCfgGetHelp
 0001:0004D20E       DbiCfgTranslate
 0001:0004D214       DbiCfgDropRecord
 0001:0004D21A       DbiCfgModifyRecord
 0001:0004D220       DbiCfgAddRecord
 0001:0004D226       DbiCfgGetRecord
 0001:0004D22C       DbiCfgGetNextNode
 0001:0004D232       DbiCfgPosition
 0001:0004D238       DbiCfgBuildPath
 0001:0004D23E       DbiCfgSave
 0001:0004D2AA       DbiGetCallBack
 0001:0004D2B0       DbiCheckRefresh
 0001:0004D2CE       DbiGetErrorEntry
 0001:0004D2D4       DbiGetErrorContext
 0001:0004D2DA       DbiGetErrorString
 0001:0004D2E0       DbiFormFullName
 0001:0004D2EC       DbiCreateTempTable
 0001:0004D2F2       DbiUseIdleTime
 0001:0004D2F8       DbiGetLdObj
 0001:0004D304       DbiGetErrorInfo
 0001:0004D30A       DbiSetFieldMap
 0001:0004D310       DbiGetRecordForKey
 0001:0004D316       DbiCompareKeys
 0001:0004D31C       DbiAppendRecord
 0001:0004D328       DbiRegenIndexes
 0001:0004D32E       DbiRegenIndex
 0001:0004D334       DbiEmptyTable
 0001:0004D33A       DbiPackTable
 0001:0004D340       DbiTimeStampDecode
 0001:0004D346       DbiTimeStampEncode
 0001:0004D34C       DbiTimeDecode
 0001:0004D352       DbiTimeEncode
 0001:0004D358       DbiDoRestructure
 0001:0004D35E       DbiSetToRecordNo
 0001:0004D364       DbiGetIndexSeqNo
 0001:0004D36A       DbiGetIndexForField
 0001:0004D370       DbiDeleteIndex
 0001:0004D376       DbiAddIndex
 0001:0004D37C       DbiDeleteTable
 0001:0004D382       DbiRenameTable
 0001:0004D388       DbiCopyTable
 0001:0004D38E       DbiCreateTable
 0001:0004D394       DbiVerifyField
 0001:0004D39A       DbiSetToSeqNo
 0001:0004D3A0       DbiInitRecord
 0001:0004D3A6       DbiCloneCursor
 0001:0004D3AC       DbiCompareBookMarks
 0001:0004D3B2       DbiSetToBookMark
 0001:0004D3B8       DbiGetBookMark
 0001:0004D3BE       DbiExtractKey
 0001:0004D3C4       DbiGetIndexDesc
 0001:0004D3CA       DbiSwitchToIndex
 0001:0004D3D0       DbiCloseIndex
 0001:0004D3D6       DbiOpenIndex
 0001:0004D3DC       DbiDateDecode
 0001:0004D3E2       DbiDateEncode
 0001:0004D3E8       DbiPutField
 0001:0004D3EE       DbiGetField
 0001:0004D3F4       DbiRegisterCallBack
 0001:0004D3FA       DbiQGetBaseDescs
 0001:0004D400       DbiQAlloc
 0001:0004D406       DbiQFree
 0001:0004D40C       DbiQInstantiateAnswer
 0001:0004D412       DbiQSetParams
 0001:0004D418       DbiQExec
 0001:0004D41E       DbiQPrepare
 0001:0004D424       DbiQExecDirect
 0001:0004D43C       DbiGetNetUserName
 0001:0004D442       DbiGetSesInfo
 0001:0004D44E       DbiGetSysInfo
 0001:0004D454       DbiGetSysConfig
 0001:0004D45A       DbiGetSysVersion
 0001:0004D466       DbiGetBlobHeading
 0001:0004D46C       DbiFreeBlob
 0001:0004D472       DbiTruncateBlob
 0001:0004D478       DbiPutBlob
 0001:0004D47E       DbiGetBlob
 0001:0004D484       DbiGetBlobSize
 0001:0004D48A       DbiOpenBlob
 0001:0004D490       DbiGetTableOpenCount
 0001:0004D496       DbiLoadDriver
 0001:0004D4A8       DbiGetIndexTypeDesc
 0001:0004D4AE       DbiOpenIndexTypesList
 0001:0004D4B4       DbiGetFieldTypeDesc
 0001:0004D4BA       DbiOpenFieldTypesList
 0001:0004D4C0       DbiGetTableTypeDesc
 0001:0004D4C6       DbiOpenTableTypesList
 0001:0004D4CC       DbiGetDatabaseDesc
 0001:0004D4D2       DbiOpenDatabaseList
 0001:0004D4D8       DbiGetDriverDesc
 0001:0004D4DE       DbiOpenDriverList
 0001:0004D4E4       DbiSetLockRetry
 0001:0004D4EA       DbiSetPrivateDir
 0001:0004D4F0       DbiOpenLockList
 0001:0004D4F6       DbiOpenUserList
 0001:0004D4FC       DbiDropPassword
 0001:0004D502       DbiAddPassword
 0001:0004D508       DbiCloseSession
 0001:0004D50E       DbiGetCurrSession
 0001:0004D514       DbiSetCurrSession
 0001:0004D51A       DbiStartSession
 0001:0004D520       DbiForceRecordReread
 0001:0004D526       DbiGetCursorForTable
 0001:0004D52C       DbiForceReread
 0001:0004D532       DbiSaveChanges
 0001:0004D538       DbiRelPersistTableLock
 0001:0004D53E       DbiAcqPersistTableLock
 0001:0004D544       DbiRelRecordLock
 0001:0004D54A       DbiRelTableLock
 0001:0004D550       DbiAcqTableLock
 0001:0004D55C       DbiLinkDetailToExp
 0001:0004D562       DbiIsTableShared
 0001:0004D568       DbiIsTableLocked
 0001:0004D56E       DbiIsRecordLocked
 0001:0004D574       DbiGetLinkStatus
 0001:0004D57A       DbiUnlinkDetail
 0001:0004D580       DbiLinkDetail
 0001:0004D586       DbiEndLinkMode
 0001:0004D58C       DbiBeginLinkMode
 0001:0004D592       DbiWriteBlock
 0001:0004D598       DbiReadBlock
 0001:0004D59E       DbiCreateInMemTable
 0001:0004D5A4       DbiOpenSecurityList
 0001:0004D5BC       DbiOpenFamilyList
 0001:0004D5C2       DbiOpenRintList
 0001:0004D5C8       DbiOpenVchkList
 0001:0004D5CE       DbiOpenLdList
 0001:0004D5D4       DbiOpenFieldList
 0001:0004D5DA       DbiOpenIndexList
 0001:0004D5E0       DbiOpenFileList
 0001:0004D5E6       DbiOpenTableList
 0001:0004D5EC       DbiSetDirectory
 0001:0004D5F2       DbiGetDirectory
 0001:0004D5F8       DbiSetToKey
 0001:0004D5FE       DbiResetRange
 0001:0004D604       DbiSetRange
 0001:0004D60A       DbiGetSeqNo
 0001:0004D610       DbiDeleteRecord
 0001:0004D616       DbiModifyRecord
 0001:0004D61C       DbiInsertRecord
 0001:0004D622       DbiGetRecordCount
 0001:0004D628       DbiGetRelativeRecord
 0001:0004D62E       DbiGetRecord
 0001:0004D634       DbiGetPriorRecord
 0001:0004D63A       DbiGetNextRecord
 0001:0004D640       DbiSetToCursor
 0001:0004D646       DbiSetToEnd
 0001:0004D64C       DbiSetToBegin
 0001:0004D652       DbiCloseCursor
 0001:0004D658       DbiGetFieldDescs
 0001:0004D65E       DbiGetCursorProps
 0001:0004D664       DbiOpenTable
 0001:0004D66A       DbiCloseDatabase
 0001:0004D670       DbiOpenDatabase
 0001:0004E8E6       DbiInitFn
 0001:0004E9E1       DbiExit
 0001:0004EA61       DbiDLLExit
 0001:0004EAC8       Finalization
 0001:0004EAF8       Bde
 0001:0004ECA4       FMTBCDToCurr
 0001:0004ED3C       CurrToFMTBCD
 0001:0004EDC8       TFilterExpr.Create
 0001:0004EDF4       TFilterExpr.Destroy
 0001:0004EF04       TFilterExpr.GetFilterData
 0001:0004EF5C       TFilterExpr.NewCompareNode
 0001:0004EFEC       TFilterExpr.NewNode
 0001:0004FAB0       TExprParser.Create
 0001:0004FBA0       TExprParser.Destroy
 0001:000502A0       TMasterDataLink.Create
 0001:000502E8       TMasterDataLink.Destroy
 0001:00050318       TMasterDataLink.ActiveChanged
 0001:000503E4       TMasterDataLink.CheckBrowseMode
 0001:00050404       TMasterDataLink.LayoutChanged
 0001:00050410       TMasterDataLink.RecordChanged
 0001:0005045C       TMasterDataLink.SetFieldNames
 0001:00050488       Finalization
 0001:000504B8       DBCommon
 0001:000504F0       Finalization
 0001:00050520       SMIntf
 0001:00050558       Finalization
 0001:00050588       StdVCL
 0001:00050788       PasswordDialog
 0001:000507F4       TPasswordDialog.EditChange
 0001:0005087C       TPasswordDialog.AddButtonClick
 0001:000508FC       TPasswordDialog.RemoveButtonClick
 0001:00050978       TPasswordDialog.RemoveAllButtonClick
 0001:000509A4       TPasswordDialog.OKButtonClick
 0001:00050A04       Finalization
 0001:00050A34       DBPWDlg
 0001:00050BCC       LoginDialogEx
 0001:00050CF0       TLoginDialog.FormShow
 0001:00050D3C       Finalization
 0001:00050D6C       DBLogDlg
 0001:00050E14       Finalization
 0001:00050E44       BdeConst
 0001:00052738       TBDECallback.Create
 0001:000527D0       TBDECallback.Destroy
 0001:00052878       TBDECallback.Invoke
 0001:000528F0       AnsiToNative
 0001:00052948       NativeToAnsi
 0001:00052984       AnsiToNativeBuf
 0001:000529B4       NativeToAnsiBuf
 0001:00052BCC       DbiError
 0001:00052BE8       Check
 0001:00052BF8       TDBError.Create
 0001:00052CE4       EDBEngineError.Create
 0001:00052FBC       EDBEngineError.Destroy
 0001:00053014       EDBEngineError.GetError
 0001:00053024       TSessionList.Create
 0001:00053080       TSessionList.Destroy
 0001:00053110       TSessionList.GetSessionByName
 0001:00053194       TSessionList.FindSession
 0001:000531F0       TSession.Create
 0001:00053270       TSession.Destroy
 0001:000532E8       TSession.AddPassword
 0001:00053420       TSession.CloseDatabase
 0001:00053754       TSession.FindDatabase
 0001:0005387C       TSession.GetActive
 0001:00053884       TSession.GetAliasDriverName
 0001:00053988       TSession.GetAliasParams
 0001:00053B50       TSession.GetConfigParams
 0001:00053CD0       TSession.GetDriverParams
 0001:00053EC8       TSession.GetHandle
 0001:00053EF4       TSession.GetNetFileDir
 0001:00053FEC       TSession.GetPrivateDir
 0001:000540CC       TSession.GetPassword
 0001:00054504       TSession.Loaded
 0001:000545F0       TSession.Notification
 0001:000546E8       TSession.OpenDatabase
 0001:000546F4       TSession.SessionNameStored
 0001:00054A34       TSession.RemoveAllPasswords
 0001:00054A78       TSession.RemovePassword
 0001:00054B64       TSession.SetActive
 0001:00054B90       TSession.SetAutoSessionName
 0001:00054CA4       TSession.GetConfigMode
 0001:00054CFC       TSession.SetConfigMode
 0001:00054D5C       TSession.SetName
 0001:00054D7C       TSession.SetNetFileDir
 0001:00054E0C       TSession.SetPrivateDir
 0001:00054E8C       TSession.SetSessionName
 0001:00054FD8       TSession.SetTraceFlags
 0001:00055450       TDatabase.Create
 0001:00055504       TDatabase.Destroy
 0001:000556BC       TDatabase.Close
 0001:0005577C       TDatabase.CloseDataSets
 0001:000557A4       TDatabase.GetAliasName
 0001:000557CC       TDatabase.GetConnected
 0001:000557D4       TDatabase.GetDriverName
 0001:00055874       TDatabase.Loaded
 0001:000558EC       TDatabase.Notification
 0001:00055EC4       TDatabase.Open
 0001:0005610C       TDatabase.SetAliasName
 0001:00056118       TDatabase.SetConnected
 0001:00056138       TDatabase.SetDatabaseName
 0001:000561A8       TDatabase.SetDirectory
 0001:00056208       TDatabase.SetDriverName
 0001:00056214       TDatabase.SetHandle
 0001:000562E4       TDatabase.SetKeepConnection
 0001:00056300       TDatabase.SetParams
 0001:00056320       TDatabase.SetSessionName
 0001:00056368       TDatabase.SetTraceFlags
 0001:0005639C       TDatabase.ValidateName
 0001:00056440       TBDEDataSet.Create
 0001:00056488       TBDEDataSet.Destroy
 0001:000564C4       TBDEDataSet.OpenCursor
 0001:000565A4       TBDEDataSet.CloseCursor
 0001:000565F4       TBDEDataSet.CreateHandle
 0001:000565F8       TBDEDataSet.DestroyHandle
 0001:0005661C       TBDEDataSet.InternalInitFieldDefs
 0001:00056768       TBDEDataSet.InternalOpen
 0001:000568C4       TBDEDataSet.InternalClose
 0001:00056968       TBDEDataSet.PrepareCursor
 0001:0005696C       TBDEDataSet.IsCursorOpen
 0001:00056978       TBDEDataSet.InternalHandleException
 0001:0005698C       TBDEDataSet.SetLocale
 0001:00056A14       TBDEDataSet.AllocRecordBuffer
 0001:00056A4C       TBDEDataSet.FreeRecordBuffer
 0001:00056A80       TBDEDataSet.InternalInitRecord
 0001:00056AD0       TBDEDataSet.ClearCalcFields
 0001:00056AF8       TBDEDataSet.InitRecord
 0001:00056B30       TBDEDataSet.GetRecord
 0001:00056C3C       TBDEDataSet.GetCurrentRecord
 0001:00056D28       TBDEDataSet.GetRecordCount
 0001:00056D5C       TBDEDataSet.GetRecNo
 0001:00056D8C       TBDEDataSet.SetRecNo
 0001:00056DF0       TBDEDataSet.GetRecordSize
 0001:00056ED0       TBDEDataSet.AddFieldDesc
 0001:000570A4       TBDEDataSet.GetFieldData
 0001:00057144       TBDEDataSet.SetFieldData
 0001:000573C0       TBDEDataSet.CreateBlobStream
 0001:000573EC       TBDEDataSet.CloseBlob
 0001:00057414       TBDEDataSet.BCDToCurr
 0001:00057424       TBDEDataSet.CurrToBCD
 0001:00057440       TBDEDataSet.GetStateFieldValue
 0001:0005746C       TBDEDataSet.SetStateFieldValue
 0001:000574DC       TBDEDataSet.Translate
 0001:00057534       TBDEDataSet.InternalFirst
 0001:00057550       TBDEDataSet.InternalLast
 0001:0005756C       TBDEDataSet.InternalEdit
 0001:000575A4       TBDEDataSet.InternalPost
 0001:000575EC       TBDEDataSet.InternalDelete
 0001:0005761C       TBDEDataSet.IsSequenced
 0001:00057634       TBDEDataSet.GetCanModify
 0001:00057658       TBDEDataSet.InternalRefresh
 0001:00057674       TBDEDataSet.Post
 0001:00057694       TBDEDataSet.Cancel
 0001:000576B4       TBDEDataSet.InternalCancel
 0001:000576C8       TBDEDataSet.InternalAddRecord
 0001:00057704       TBDEDataSet.InternalGotoBookmark
 0001:00057724       TBDEDataSet.InternalSetToRecord
 0001:00057740       TBDEDataSet.GetBookmarkFlag
 0001:00057750       TBDEDataSet.SetBookmarkFlag
 0001:00057760       TBDEDataSet.GetBookmarkData
 0001:0005777C       TBDEDataSet.SetBookmarkData
 0001:00057798       TBDEDataSet.CompareBookmarks
 0001:000577F0       TBDEDataSet.BookmarkValid
 0001:00057844       TBDEDataSet.GetIndexInfo
 0001:000578D0       TBDEDataSet.SwitchToIndex
 0001:000579D0       TBDEDataSet.GetIndexField
 0001:00057A84       TBDEDataSet.SetIndexField
 0001:00057AA8       TBDEDataSet.AllocKeyBuffers
 0001:00057B18       TBDEDataSet.FreeKeyBuffers
 0001:00057B48       TBDEDataSet.InitKeyBuffer
 0001:00057B7C       TBDEDataSet.SetCursorRange
 0001:00057D7C       TBDEDataSet.ResetCursorRange
 0001:00057DD4       TBDEDataSet.SetLinkRanges
 0001:00057EA0       TBDEDataSet.PostKeyBuffer
 0001:00057EFC       TBDEDataSet.GetIsIndexField
 0001:00057F50       TBDEDataSet.MapsToIndex
 0001:00057FB4       TBDEDataSet.ActivateFilters
 0001:00058074       TBDEDataSet.DeactivateFilters
 0001:000580B8       TBDEDataSet.CreateExprFilter
 0001:00058138       TBDEDataSet.CreateFuncFilter
 0001:0005816C       TBDEDataSet.CreateLookupFilter
 0001:000582EC       TBDEDataSet.SetFilterHandle
 0001:00058364       TBDEDataSet.SetFilterData
 0001:000583EC       TBDEDataSet.SetFilterText
 0001:000583FC       TBDEDataSet.SetFiltered
 0001:00058468       TBDEDataSet.SetFilterOptions
 0001:00058480       TBDEDataSet.SetOnFilterRecord
 0001:00058508       TBDEDataSet.FindRecord
 0001:000586BC       TBDEDataSet.LocateRecord
 0001:00058960       TBDEDataSet.Lookup
 0001:000589F8       TBDEDataSet.Locate
 0001:00058A4C       TBDEDataSet.GetLookupCursor
 0001:00058A50       TBDEDataSet.DestroyLookupCursor
 0001:00058F7C       TBDEDataSet.ConstraintCallBack
 0001:0005903C       TBDEDataSet.AllocCachedUpdateBuffers
 0001:000590C4       TBDEDataSet.CheckCachedUpdateMode
 0001:00059118       TBDEDataSet.UpdateCallbackRequired
 0001:00059144       TBDEDataSet.ForceUpdateCallback
 0001:00059200       TBDEDataSet.SetCachedUpdates
 0001:00059308       TBDEDataSet.SetupCallBack
 0001:0005936C       TBDEDataSet.CachedUpdateCallBack
 0001:000594EC       TBDEDataSet.SetUpdateObject
 0001:00059570       TBDEDataSet.SetOnUpdateError
 0001:000595A8       TBDEDataSet.YieldCallBack
 0001:000595EC       TDBDataSet.OpenCursor
 0001:00059620       TDBDataSet.CloseCursor
 0001:000596A4       TDBDataSet.CheckOpen
 0001:000596EC       TDBDataSet.ConstraintsStored
 0001:00059704       TDBDataSet.Disconnect
 0001:00059710       TDBDataSet.GetDBHandle
 0001:00059724       TDBDataSet.GetDBLocale
 0001:00059738       TDBDataSet.GetDBSession
 0001:00059768       TDBDataSet.GetProvider
 0001:00059800       TDBDataSet.OpenDatabase
 0001:00059828       TDBDataSet.SetDatabaseName
 0001:000598B0       TDBDataSet.SetDBFlag
 0001:000599AC       TDBDataSet.SetSessionName
 0001:000599D8       TDBDataSet.SetUpdateMode
 0001:00059A2C       TIndexFiles.Create
 0001:00059A68       TIndexFiles.Add
 0001:00059AA4       TIndexFiles.Clear
 0001:00059B34       TIndexFiles.Insert
 0001:00059B6C       TIndexFiles.Delete
 0001:00059BEC       TTable.Create
 0001:00059C78       TTable.Destroy
 0001:00059CC0       TTable.GetHandle
 0001:00059E30       TTable.CreateHandle
 0001:00059F18       TTable.GetLanguageDriverName
 0001:0005A25C       TTable.PrepareCursor
 0001:0005A2D8       TTable.InitFieldDefs
 0001:0005A53C       TTable.DestroyHandle
 0001:0005A6EC       TTable.GetIndexFieldNames
 0001:0005A718       TTable.GetIndexName
 0001:0005AA84       TTable.SetIndexFieldNames
 0001:0005AAA0       TTable.SetIndexName
 0001:0005AAAC       TTable.SetIndexFiles
 0001:0005AABC       TTable.OpenIndexFile
 0001:0005AAF4       TTable.CloseIndexFile
 0001:0005ABC0       TTable.UpdateIndexDefs
 0001:0005AE10       TTable.IsProductionIndex
 0001:0005AEE4       TTable.ApplyRange
 0001:0005AF08       TTable.CancelRange
 0001:0005AF54       TTable.GetLookupCursor
 0001:0005B09C       TTable.DestroyLookupCursor
 0001:0005B12C       TTable.GetDataSource
 0001:0005B138       TTable.SetDataSource
 0001:0005B1A4       TTable.GetMasterFields
 0001:0005B1C4       TTable.SetMasterFields
 0001:0005B1D4       TTable.DoOnNewRecord
 0001:0005B22C       TTable.DataEvent
 0001:0005B248       TTable.GetCanModify
 0001:0005B3B8       TTable.SetExclusive
 0001:0005B3D4       TTable.SetReadOnly
 0001:0005B3F0       TTable.SetTableName
 0001:0005B43C       TTable.SetTableType
 0001:0005B458       TBlobStream.Create
 0001:0005B638       TBlobStream.Destroy
 0001:0005B704       TBlobStream.Read
 0001:0005B8E0       TBlobStream.Write
 0001:0005BA00       TBlobStream.Seek
 0001:0005BA38       TBlobStream.Truncate
 0001:0005BB10       Finalization
 0001:0005BB80       DBTables
 0001:0005BBFC       Finalization
 0001:0005BC44       Registry
 0001:0005BD0C       Finalization
 0001:0005BD7C       DsgnIntf
 0001:0005C4BC       cleanlist
 0001:0005C508       cleanlist_pstring
 0001:0005C54C       cleanlist_object
 0001:0005C604       TMyFont.Changed
 0001:0005C698       TMyBrush.Changed
 0001:0005C6A8       TNewInplaceEdit.CreateParams
 0001:0005C6D0       TNewInplaceEdit.SetAlignment
 0001:0005C6FC       TNewInplaceEdit.Create
 0001:0005C738       TNewInplaceEdit.KeyPress
 0001:0005C7C0       TStringAlignGrid.Create
 0001:0005C89C       TStringAlignGrid.Destroy
 0001:0005CE54       TStringAlignGrid.Initialize
 0001:0005D118       GetItemCol
 0001:0005D158       SetItemCol
 0001:0005D1D0       MoveItemCol
 0001:0005D218       GetItemCell
 0001:0005D27C       SetItemCell
 0001:0005D350       MoveItemColRow
 0001:0005D3E4       TStringAlignGrid.GetAlign
 0001:0005D3EC       TStringAlignGrid.SetAlign
 0001:0005D404       TStringAlignGrid.GetAlignCell
 0001:0005D4AC       TStringAlignGrid.SetFixAlignCol
 0001:0005D4F4       TStringAlignGrid.SetFixAlignRow
 0001:0005D53C       TStringAlignGrid.GetEditCell
 0001:0005D598       TStringAlignGrid.GetBrushCell
 0001:0005D5A4       TStringAlignGrid.GetBrushCol
 0001:0005D5B8       TStringAlignGrid.GetBrushFixedCol
 0001:0005D5CC       TStringAlignGrid.GetBrushRow
 0001:0005D5E0       TStringAlignGrid.GetBrushFixedRow
 0001:0005D5F4       TStringAlignGrid.GetColorCell
 0001:0005D618       TStringAlignGrid.SetColorCell
 0001:0005D648       TStringAlignGrid.SetColorCol
 0001:0005D670       TStringAlignGrid.SetFixColorCol
 0001:0005D698       TStringAlignGrid.SetColorRow
 0001:0005D6C0       TStringAlignGrid.SetFixColorRow
 0001:0005D6E8       TStringAlignGrid.SetFixedColor
 0001:0005D714       TStringAlignGrid.SetSelCellColor
 0001:0005D72C       TStringAlignGrid.SetSelFontColor
 0001:0005D744       TStringAlignGrid.GetSelColorCell
 0001:0005D7A0       TStringAlignGrid.GetSelFontColorCell
 0001:0005D7FC       TStringAlignGrid.GetHintCell
 0001:0005D830       TStringAlignGrid.InsertCol
 0001:0005DA04       TStringAlignGrid.InsertRow
 0001:0005DD90       TStringAlignGrid.RowMoved
 0001:0005DEA4       TStringAlignGrid.ColumnMoved
 0001:0005DFB8       TStringAlignGrid.GetBrushColRowInternal
 0001:0005E020       TStringAlignGrid.GetBrushCellInternal
 0001:0005E094       TStringAlignGrid.GetFontCellComplete
 0001:0005E12C       TStringAlignGrid.GetBrushCellComplete
 0001:0005E1D4       TStringAlignGrid.FontChanged
 0001:0005E1E0       TStringAlignGrid.BrushChanged
 0001:0005E1EC       TStringAlignGrid.ShowHintCell
 0001:0005E2DC       TStringAlignGrid.MouseMove
 0001:0005E36C       TStringAlignGrid.CreateEditor
 0001:0005E398       TStringAlignGrid.CanEditShow
 0001:0005E5A4       TStringAlignGrid.ShowEdit
 0001:0005E5BC       TStringAlignGrid.HideEdit
 0001:0005E630       TStringAlignGrid.doExit
 0001:0005E6AC       TStringAlignGrid.doEnter
 0001:0005E6E4       TStringAlignGrid.mcn_edit_return
 0001:0005E7A4       TStringAlignGrid.mcn_edit_cancel
 0001:0005E7E0       TStringAlignGrid.mcn_edit_exit
 0001:0005E81C       TStringAlignGrid.mcn_edit_show
 0001:0005E858       TStringAlignGrid.mcn_edit_show_it
 0001:0005E890       TStringAlignGrid.DefineProperties
 0001:0005EE14       TStringAlignGrid.Loaded
 0001:0005EE98       TStringAlignGrid.ReadAlignCell
 0001:0005EF3C       TStringAlignGrid.WriteAlignCell
 0001:0005EFF8       TStringAlignGrid.ReadAlignCol
 0001:0005F01C       TStringAlignGrid.ReadFixedAlignCol
 0001:0005F040       TStringAlignGrid.ReadAlignRow
 0001:0005F064       TStringAlignGrid.ReadFixedAlignRow
 0001:0005F088       TStringAlignGrid.WriteAlignCol
 0001:0005F0AC       TStringAlignGrid.WriteFixedAlignCol
 0001:0005F0D0       TStringAlignGrid.WriteAlignRow
 0001:0005F0F4       TStringAlignGrid.WriteFixedAlignRow
 0001:0005F118       TStringAlignGrid.ReadAlignColRow
 0001:0005F1A4       TStringAlignGrid.WriteAlignColRow
 0001:0005F204       TStringAlignGrid.ReadEditCell
 0001:0005F2A8       TStringAlignGrid.WriteEditCell
 0001:0005F364       TStringAlignGrid.ReadEditCol
 0001:0005F388       TStringAlignGrid.ReadEditRow
 0001:0005F3AC       TStringAlignGrid.WriteEditCol
 0001:0005F3D0       TStringAlignGrid.WriteEditRow
 0001:0005F3F4       TStringAlignGrid.ReadEditColRow
 0001:0005F480       TStringAlignGrid.WriteEditColRow
 0001:0005F4E0       TStringAlignGrid.ReadHint
 0001:0005F588       TStringAlignGrid.WriteHint
 0001:0005F638       TStringAlignGrid.ReadCells
 0001:0005F6E0       TStringAlignGrid.WriteCells
 0001:0005F7B8       TStringAlignGrid.ListToCells
 0001:0005F848       TStringAlignGrid.ReadFontCell
 0001:0005F86C       TStringAlignGrid.ReadFontCol
 0001:0005F890       TStringAlignGrid.ReadFontRow
 0001:0005F8B4       TStringAlignGrid.ReadFixedFontCol
 0001:0005F8D8       TStringAlignGrid.ReadFixedFontRow
 0001:0005F8FC       TStringAlignGrid.WriteFontCell
 0001:0005F930       TStringAlignGrid.WriteFontCol
 0001:0005F954       TStringAlignGrid.WriteFontRow
 0001:0005F978       TStringAlignGrid.WriteFixedFontCol
 0001:0005F99C       TStringAlignGrid.WriteFixedFontRow
 0001:0005F9C0       TStringAlignGrid.ReadFontCellInt
 0001:0005FA34       TStringAlignGrid.WriteFontCellInt
 0001:0005FAC8       TStringAlignGrid.ReadFontColRow
 0001:0005FB30       TStringAlignGrid.WriteFontColRow
 0001:0005FB9C       TStringAlignGrid.WriteFont
 0001:0005FC34       TStringAlignGrid.ReadFont
 0001:0005FCEC       TStringAlignGrid.ReadBrushCell
 0001:0005FD10       TStringAlignGrid.ReadBrushCol
 0001:0005FD34       TStringAlignGrid.ReadBrushRow
 0001:0005FD58       TStringAlignGrid.ReadFixedBrushCol
 0001:0005FD7C       TStringAlignGrid.ReadFixedBrushRow
 0001:0005FDA0       TStringAlignGrid.WriteBrushCell
 0001:0005FDD4       TStringAlignGrid.WriteBrushCol
 0001:0005FDF8       TStringAlignGrid.WriteBrushRow
 0001:0005FE1C       TStringAlignGrid.WriteFixedBrushCol
 0001:0005FE40       TStringAlignGrid.WriteFixedBrushRow
 0001:0005FE64       TStringAlignGrid.ReadBrushCellInt
 0001:0005FED8       TStringAlignGrid.WriteBrushCellInt
 0001:0005FF6C       TStringAlignGrid.ReadBrushColRow
 0001:0005FFD4       TStringAlignGrid.WriteBrushColRow
 0001:00060040       TStringAlignGrid.WriteBrush
 0001:00060070       TStringAlignGrid.ReadBrush
 0001:000600BC       TStringAlignGrid.ReadColorCell
 0001:0006011C       TStringAlignGrid.ReadColorCol
 0001:00060128       TStringAlignGrid.ReadColorRow
 0001:00060134       TStringAlignGrid.ReadFixedColorCol
 0001:00060140       TStringAlignGrid.ReadFixedColorRow
 0001:0006014C       TStringAlignGrid.ReadColorColRow
 0001:0006020C       TStringAlignGrid.ReadSelColorCell
 0001:00060290       TStringAlignGrid.ReadSelColorCol
 0001:000602B4       TStringAlignGrid.ReadSelColorRow
 0001:000602D8       TStringAlignGrid.WriteSelColorCell
 0001:00060388       TStringAlignGrid.WriteSelColorCol
 0001:000603AC       TStringAlignGrid.WriteSelColorRow
 0001:000603D0       TStringAlignGrid.ReadSelColorColRow
 0001:00060448       TStringAlignGrid.WriteSelColorColRow
 0001:000604A4       TStringAlignGrid.CompareColString
 0001:00060558       TStringAlignGrid.CompareRowString
 0001:0006060C       TStringAlignGrid.is_fixed
 0001:00060634       TStringAlignGrid.NextEditableCell
 0001:00060690       TStringAlignGrid.NextCell
 0001:00060B60       TStringAlignGrid.WMChar
 0001:00060BB0       TStringAlignGrid.KeyDown
 0001:00060CD0       TStringAlignGrid.ColWidthsChanged
 0001:00060CF8       TStringAlignGrid.RowHeightsChanged
 0001:00060D20       DrawCellText
 0001:0006105C       TStringAlignGrid.DrawCell
 0001:00061268       TObjectList.Destroy
 0001:000612C0       TObjectList.Delete
 0001:000612E4       TObjectList.Remove
 0001:000613A0       TDummyObject.ShowHint
 0001:00061400       compare_method
 0001:00061420       AddShowHintProc
 0001:0006147C       RemoveShowHintProc
 0001:000614E8       DoneUnit
 0001:000615C0       Finalization
 0001:00061660       Aligrid
 0001:00062C90       TBitBtn.Create
 0001:00062D34       TBitBtn.Destroy
 0001:00062D6C       TBitBtn.CreateHandle
 0001:00062D94       TBitBtn.CreateParams
 0001:00062DA4       TBitBtn.SetButtonStyle
 0001:00062DB8       TBitBtn.Click
 0001:00062E24       TBitBtn.CNMeasureItem
 0001:00062E34       TBitBtn.CNDrawItem
 0001:000630BC       TBitBtn.CMFontChanged
 0001:000630D0       TBitBtn.CMEnabledChanged
 0001:000630E4       TBitBtn.WMLButtonDblClk
 0001:000630F8       TBitBtn.GetPalette
 0001:0006310C       TBitBtn.SetGlyph
 0001:0006312C       TBitBtn.GetGlyph
 0001:00063144       TBitBtn.IsCustom
 0001:00063158       TBitBtn.SetStyle
 0001:00063174       TBitBtn.SetKind
 0001:00063284       TBitBtn.IsCustomCaption
 0001:00063300       TBitBtn.GetKind
 0001:0006336C       TBitBtn.SetLayout
 0001:00063388       TBitBtn.GetNumGlyphs
 0001:00063394       TBitBtn.SetNumGlyphs
 0001:000633C0       TBitBtn.SetSpacing
 0001:000633DC       TBitBtn.SetMargin
 0001:00063494       Finalization
 0001:000634CC       Buttons
 0001:00063698       TForm1.FormCreate
 0001:00063E34       TForm1.stampaClick
 0001:00063E50       Finalization
 0001:00063EA0       ml980726
 0001:00063EA8       Finalization
 0001:00064020       totbgt
 0002:00000000       Default8087CW
 0002:00000004       HeapAllocFlags
 0002:00000008       DebugHook
 0002:0000000C       LibModuleList
 0002:00000010       ModuleUnloadList
 0002:00000108       EmptyStr
 0002:0000010C       NullStr
 0002:00000110       Win32Platform
 0002:00000114       Win32MajorVersion
 0002:00000118       Win32MinorVersion
 0002:0000011C       Win32BuildNumber
 0002:00000120       Win32CSDVersion
 0002:00000124       MonthDays
 0002:00000154       LeadBytes
 0002:00000174       ExitProcList
 0002:00000178       AccessMode
 0002:00000184       ShareMode
 0002:00000198       FormatErrorStrs
 0002:000001A0       FMSecsPerDay
 0002:000001A4       IMSecsPerDay
 0002:000001A8       Format
 0002:000001AC       DefShortMonthNames
 0002:000001DC       DefLongMonthNames
 0002:0000020C       DefShortDayNames
 0002:00000228       DefLongDayNames
 0002:00000244       ErrorMap
 0002:0000027C       ExceptMap
 0002:00000324       TerminateProcList
 0002:00000328       AL1s
 0002:00000334       AL2s
 0002:0000035C       DefFontData
 0002:00000388       DDBsOnly
 0002:00000614       CreationControl
 0002:00000788       Ctl3DBtnWndProc
 0002:0000078C       Ctl3DDlgFramePaint
 0002:00000790       Ctl3DCtlColorEx
 0002:00000794       HintWindowClass
 0002:00000954       DefaultBlank
 0002:00000958       MaskFieldSeparator
 0002:0000095C       MaskNoSave
 0002:00000968       DefaultFieldClasses
 0002:00001600       DataTypeMap
 0002:00001614       BlobTypeMap
 0002:00001668       Class_SMClient
 0002:00001678       CreateProviderProc
 0002:0000170C       Alignments
 0002:00001718       align_str
 0002:00001728       edit_str
 0002:00001734       align_cap
 0002:00001748       edit_cap
 0002:00001754       font_str
 0002:0000175C       ShowHintProcs
 0002:00001760       IdleProcs
 0002:00001764       Dummy
 0002:00001768       WndProcs
 0002:0000176C       WndWnds
 0002:00002000       ExceptProc
 0002:00002004       ErrorProc
 0002:00002008       ExceptClsProc
 0002:0000200C       ExceptObjProc
 0002:00002010       ExceptionClass
 0002:00002014       AssertErrorProc
 0002:00002018       AbstractErrorProc
 0002:0000201C       MainInstance
 0002:00002020       IsLibrary
 0002:00002024       CmdShow
 0002:00002028       CmdLine
 0002:0000202C       InitProc
 0002:00002030       ExitCode
 0002:00002034       ExitProc
 0002:00002038       ErrorAddr
 0002:0000203C       RandSeed
 0002:00002040       IsConsole
 0002:00002041       IsMultiThread
 0002:00002042       FileMode
 0002:00002043       Test8086
 0002:00002044       Test8087
 0002:00002048       Input
 0002:00002214       Output
 0002:000023E0       Unassigned
 0002:000023F0       Null
 0002:00002400       AllocMemCount
 0002:00002404       AllocMemSize
 0002:000024AC       ModuleIsLib
 0002:000024B0       TlsIndex
 0002:000024B8       HInstance
 0002:000024CC       CurrencyString
 0002:000024D0       CurrencyFormat
 0002:000024D1       NegCurrFormat
 0002:000024D2       ThousandSeparator
 0002:000024D3       DecimalSeparator
 0002:000024D4       CurrencyDecimals
 0002:000024D5       DateSeparator
 0002:000024D8       ShortDateFormat
 0002:000024DC       LongDateFormat
 0002:000024E0       TimeSeparator
 0002:000024E4       TimeAMString
 0002:000024E8       TimePMString
 0002:000024EC       ShortTimeFormat
 0002:000024F0       LongTimeFormat
 0002:000024F4       ShortMonthNames
 0002:00002524       LongMonthNames
 0002:00002554       ShortDayNames
 0002:00002570       LongDayNames
 0002:0000258C       SysLocale
 0002:00002598       EraNames
 0002:000025B4       EraYearOffsets
 0002:000025D0       .1
 0002:000025D4       OutOfMemory
 0002:000025D8       InvalidPointer
 0002:000025E0       .1
 0002:000025E8       MainThreadID
 0002:000025EC       FindGlobalComponent
 0002:00002600       SystemPalette16
 0002:0000266C       NewStyleControls
 0002:000026E8       Application
 0002:000026EC       Screen
 0002:00002748       CF_PICTURE
 0002:0000274A       CF_COMPONENT
 0002:00002798       Session
 0002:0000279C       Sessions
 0002:000027CC       .1
 0002:000027D0       t
 0002:00002808       Form1
 0002:0000280C       subtot
 0002:00002DAC       cau
 0002:00002E24       n1
 0002:00002E28       tot
 0002:00002E2C       din
 0002:00002E34       dfin
 0002:00002E3C       dd
 0002:00002E44       in1
 0002:00002E48       .1


Line numbers for SysUtils(SysUtils.pas) segment .text

  1942 0001:000063BC  1943 0001:000063BF  1944 0001:000063C0  1945 0001:000063C2
  1946 0001:000063C4  1947 0001:000063C7  1948 0001:000063CA  1949 0001:000063CD
  1950 0001:000063D0  1951 0001:000063D3  1952 0001:000063D4  1955 0001:000063D8
  1956 0001:000063DF  1957 0001:000063F3  1960 0001:000063F8  1961 0001:00006407
  1962 0001:00006423  1967 0001:00006428  1968 0001:00006431  1969 0001:0000643C
  1970 0001:0000644C  1989 0001:00006450  1990 0001:00006456  1991 0001:0000645E
  1992 0001:00006468  1993 0001:00006475  1994 0001:0000647E  1995 0001:0000648B
  1996 0001:0000648E  2001 0001:00006494  2002 0001:0000649D  2003 0001:000064AA
  2004 0001:000064B4  2005 0001:000064C1  2006 0001:000064CA  2007 0001:000064D2
  2008 0001:000064DD  2013 0001:000064E4  2014 0001:000064ED  2016 0001:000064FD
  2017 0001:00006510  2019 0001:0000651E  2022 0001:00006524  2023 0001:0000652B
  2024 0001:00006547  2045 0001:0000654C  2046 0001:00006558  2047 0001:00006563
  2048 0001:0000656E  2049 0001:00006574  2050 0001:0000657C  2052 0001:00006582
  2053 0001:0000658A  2054 0001:000065A1  2055 0001:000065A9  2056 0001:000065AD
  2057 0001:000065B1  2050 0001:000065BC  2059 0001:000065C2  2084 0001:000065C8
  2085 0001:000065C9  2086 0001:000065CA  2087 0001:000065CC  2088 0001:000065CE
  2089 0001:000065D0  2090 0001:000065D2  2091 0001:000065D5  2092 0001:000065D7
  2093 0001:000065D9  2094 0001:000065DC  2095 0001:000065DE  2096 0001:000065E0
  2097 0001:000065E2  2098 0001:000065E4  2099 0001:000065E6  2100 0001:000065E8
  2101 0001:000065EA  2102 0001:000065EE  2103 0001:000065F2  2104 0001:000065F4
  2105 0001:000065F5  2106 0001:000065F6  2110 0001:000065F8  2111 0001:000065F9
  2112 0001:000065FA  2113 0001:000065FC  2114 0001:000065FE  2115 0001:00006600
  2116 0001:00006602  2117 0001:00006605  2118 0001:00006607  2119 0001:00006609
  2120 0001:0000660B  2121 0001:0000660D  2122 0001:0000660F  2123 0001:00006611
  2124 0001:00006613  2125 0001:00006614  2126 0001:00006615  2127 0001:00006616
  2131 0001:00006618  2132 0001:00006619  2133 0001:0000661A  2134 0001:0000661B
  2135 0001:0000661D  2136 0001:0000661F  2137 0001:00006621  2138 0001:00006623
  2139 0001:00006626  2140 0001:00006628  2141 0001:0000662A  2142 0001:0000662D
  2143 0001:0000662F  2144 0001:00006631  2145 0001:00006633  2146 0001:00006635
  2147 0001:00006637  2148 0001:00006639  2149 0001:0000663B  2150 0001:0000663E
  2151 0001:00006641  2152 0001:00006643  2153 0001:00006646  2154 0001:00006648
  2155 0001:0000664B  2156 0001:0000664E  2157 0001:00006651  2158 0001:00006653
  2159 0001:00006656  2160 0001:00006658  2161 0001:0000665B  2162 0001:0000665D
  2163 0001:0000665F  2164 0001:00006662  2165 0001:00006665  2166 0001:00006667
  2167 0001:00006668  2168 0001:00006669  2169 0001:0000666A  2174 0001:0000666C
  2175 0001:00006678  2176 0001:00006683  2177 0001:00006698  2178 0001:000066A7
  2183 0001:000066AC  2184 0001:000066B8  2185 0001:000066C3  2186 0001:000066D8
  2187 0001:000066E7  2196 0001:000066EC  2197 0001:000066F8  2199 0001:00006738
  2219 0001:0000673C  2220 0001:0000674B  2222 0001:00006777  2239 0001:0000677C
  2240 0001:00006788  2241 0001:00006793  2242 0001:0000679C  2243 0001:000067BC
  2245 0001:000067CE  2246 0001:000067E6  2248 0001:0000680C  2426 0001:00006810
  2427 0001:00006819  2428 0001:0000681D  2429 0001:0000683E  2430 0001:0000687E
  2431 0001:00006885  2434 0001:0000688C  2435 0001:00006898  2436 0001:000068B4
  2446 0001:000068C4  2447 0001:000068E0  2448 0001:000068EE  2449 0001:0000693A
  2454 0001:00006940  2455 0001:0000694C  2456 0001:0000695A  2457 0001:00006969
  2515 0001:00006970  2516 0001:0000697C  2519 0001:000069BC  2522 0001:000069C0
  2523 0001:000069C9  2525 0001:000069EF  2528 0001:000069F4  2529 0001:00006A03
  2530 0001:00006A28  2533 0001:00006A2C  2534 0001:00006A3B  2535 0001:00006A60
  2538 0001:00006A64  2539 0001:00006A73  2540 0001:00006A8C  2543 0001:00006A90
  2544 0001:00006A97  2545 0001:00006AA0  2678 0001:00006AA4  2679 0001:00006AAD
  2680 0001:00006AB8  2682 0001:00006ABE  2683 0001:00006ACB  2686 0001:00006AE0
  2687 0001:00006AE8  2692 0001:00006AEC  2693 0001:00006AF8  2694 0001:00006B03
  2695 0001:00006B0E  2697 0001:00006B14  2698 0001:00006B37  2699 0001:00006B46
  2702 0001:00006B51  2695 0001:00006B5C  2704 0001:00006B65  2709 0001:00006B6C
  2710 0001:00006B8F  2711 0001:00006B9F  2712 0001:00006BB9  2713 0001:00006C02
  2758 0001:00006C14  2759 0001:00006C20  2760 0001:00006C30  2761 0001:00006C4E
  2766 0001:00006C60  2767 0001:00006C6C  2768 0001:00006C7C  2769 0001:00006C8F
  2770 0001:00006CA5  2771 0001:00006CAD  3029 0001:00006CC0  3030 0001:00006CC2
  3031 0001:00006CC4  3032 0001:00006CC9  3033 0001:00006CCB  3034 0001:00006CCD
  3035 0001:00006CD2  3036 0001:00006CD4  3037 0001:00006CD6  3041 0001:00006CD8
  3042 0001:00006CDA  3043 0001:00006CDC  3044 0001:00006CE1  3045 0001:00006CE3
  3046 0001:00006CE5  3047 0001:00006CE8  3048 0001:00006CEA  3052 0001:00006CEC
  3053 0001:00006CED  3054 0001:00006CEE  3055 0001:00006CF0  3056 0001:00006CF2
  3057 0001:00006CF4  3058 0001:00006CF6  3059 0001:00006CF8  3060 0001:00006CFA
  3061 0001:00006CFD  3062 0001:00006CFF  3063 0001:00006D01  3064 0001:00006D04
  3065 0001:00006D06  3066 0001:00006D09  3067 0001:00006D0D  3068 0001:00006D11
  3069 0001:00006D14  3070 0001:00006D15  3071 0001:00006D17  3072 0001:00006D1A
  3073 0001:00006D1D  3074 0001:00006D1F  3075 0001:00006D22  3076 0001:00006D24
  3077 0001:00006D25  3078 0001:00006D26  3079 0001:00006D27  3083 0001:00006D28
  3084 0001:00006D29  3085 0001:00006D2A  3086 0001:00006D2C  3087 0001:00006D2E
  3088 0001:00006D33  3089 0001:00006D35  3090 0001:00006D37  3091 0001:00006D39
  3092 0001:00006D3B  3093 0001:00006D3D  3094 0001:00006D3F  3095 0001:00006D41
  3096 0001:00006D44  3097 0001:00006D46  3098 0001:00006D48  3099 0001:00006D4B
  3100 0001:00006D4D  3101 0001:00006D4E  3102 0001:00006D4F  3106 0001:00006D50
  3107 0001:00006D51  3108 0001:00006D52  3109 0001:00006D54  3110 0001:00006D56
  3111 0001:00006D5B  3112 0001:00006D5D  3113 0001:00006D5F  3114 0001:00006D61
  3115 0001:00006D63  3116 0001:00006D65  3117 0001:00006D67  3118 0001:00006D6A
  3119 0001:00006D6C  3120 0001:00006D6E  3121 0001:00006D71  3122 0001:00006D73
  3123 0001:00006D76  3124 0001:00006D77  3125 0001:00006D78  3129 0001:00006D7C
  3130 0001:00006D7D  3131 0001:00006D7E  3132 0001:00006D7F  3133 0001:00006D81
  3134 0001:00006D83  3135 0001:00006D85  3136 0001:00006D87  3137 0001:00006D89
  3138 0001:00006D8B  3139 0001:00006D8D  3140 0001:00006D8F  3141 0001:00006D90
  3142 0001:00006D92  3143 0001:00006D94  3144 0001:00006D96  3145 0001:00006D98
  3146 0001:00006D9A  3147 0001:00006D9D  3148 0001:00006D9F  3149 0001:00006DA1
  3150 0001:00006DA4  3151 0001:00006DA6  3152 0001:00006DA7  3153 0001:00006DA9
  3154 0001:00006DAA  3155 0001:00006DAB  3156 0001:00006DAC  3159 0001:00006DB0
  3160 0001:00006DBC  3161 0001:00006DD9  3165 0001:00006DE0  3166 0001:00006DEF
  3167 0001:00006E0A  3198 0001:00006E10  3199 0001:00006E11  3200 0001:00006E12
  3201 0001:00006E14  3202 0001:00006E16  3203 0001:00006E1B  3204 0001:00006E1D
  3205 0001:00006E1F  3206 0001:00006E21  3207 0001:00006E23  3208 0001:00006E25
  3209 0001:00006E27  3210 0001:00006E2A  3211 0001:00006E2D  3212 0001:00006E2F
  3213 0001:00006E30  3214 0001:00006E31  3218 0001:00006E34  3219 0001:00006E35
  3220 0001:00006E36  3221 0001:00006E38  3222 0001:00006E3A  3223 0001:00006E3F
  3224 0001:00006E41  3225 0001:00006E43  3226 0001:00006E45  3227 0001:00006E47
  3228 0001:00006E49  3229 0001:00006E4B  3230 0001:00006E4D  3231 0001:00006E50
  3232 0001:00006E53  3233 0001:00006E55  3234 0001:00006E58  3235 0001:00006E5A
  3236 0001:00006E5D  3237 0001:00006E60  3238 0001:00006E63  3239 0001:00006E65
  3240 0001:00006E68  3241 0001:00006E6A  3242 0001:00006E6D  3243 0001:00006E6F
  3244 0001:00006E71  3245 0001:00006E72  3246 0001:00006E73  3275 0001:00006E74
  3276 0001:00006E75  3277 0001:00006E76  3278 0001:00006E77  3279 0001:00006E79
  3280 0001:00006E7B  3281 0001:00006E7D  3282 0001:00006E7F  3283 0001:00006E81
  3284 0001:00006E83  3285 0001:00006E85  3286 0001:00006E87  3287 0001:00006E89
  3288 0001:00006E8B  3289 0001:00006E8D  3290 0001:00006E8F  3291 0001:00006E91
  3292 0001:00006E94  3293 0001:00006E97  3294 0001:00006E99  3295 0001:00006E9C
  3296 0001:00006E9E  3297 0001:00006EA1  3298 0001:00006EA4  3299 0001:00006EA7
  3300 0001:00006EA9  3301 0001:00006EAC  3302 0001:00006EAE  3303 0001:00006EB1
  3304 0001:00006EB3  3305 0001:00006EB5  3306 0001:00006EB6  3307 0001:00006EB7
  3308 0001:00006EB8  3312 0001:00006EBC  3313 0001:00006EBD  3314 0001:00006EBE
  3315 0001:00006EC0  3316 0001:00006EC5  3317 0001:00006EC7  3318 0001:00006EC9
  3319 0001:00006ECB  3320 0001:00006ECC  3321 0001:00006ECE  3322 0001:00006ED0
  3323 0001:00006ED5  3324 0001:00006ED7  3325 0001:00006ED9  3326 0001:00006EDA
  3327 0001:00006EDB  3351 0001:00006EDC  3352 0001:00006EDD  3353 0001:00006EDE
  3354 0001:00006EDF  3355 0001:00006EE1  3356 0001:00006EE3  3357 0001:00006EE5
  3358 0001:00006EE7  3359 0001:00006EE9  3360 0001:00006EEB  3361 0001:00006EED
  3362 0001:00006EF2  3363 0001:00006EF4  3364 0001:00006EF6  3365 0001:00006EF7
  3366 0001:00006EF9  3367 0001:00006EFB  3368 0001:00006EFD  3369 0001:00006F02
  3370 0001:00006F04  3371 0001:00006F06  3372 0001:00006F08  3373 0001:00006F0A
  3374 0001:00006F0C  3375 0001:00006F0F  3376 0001:00006F11  3377 0001:00006F12
  3378 0001:00006F14  3379 0001:00006F16  3380 0001:00006F18  3381 0001:00006F19
  3382 0001:00006F1B  3383 0001:00006F1D  3384 0001:00006F1E  3385 0001:00006F20
  3386 0001:00006F22  3387 0001:00006F25  3388 0001:00006F27  3389 0001:00006F29
  3390 0001:00006F2A  3391 0001:00006F2B  3392 0001:00006F2C  3438 0001:00006F30
  3439 0001:00006F39  3440 0001:00006F44  3441 0001:00006F4F  3442 0001:00006F57
  3443 0001:00006F5E  3446 0001:00006F64  3447 0001:00006F6D  3448 0001:00006F71
  3449 0001:00006F86  3454 0001:00006F8C  3455 0001:00006F95  3457 0001:00006FA2
  3458 0001:00006FB7  3460 0001:00006FD0  3463 0001:00006FD4  3464 0001:00006FDB
  3466 0001:00006FE1  3467 0001:00006FE5  3469 0001:00006FF2  3480 0001:00006FF8
  3481 0001:00007007  3482 0001:00007014  3483 0001:00007038  3484 0001:00007046
  3485 0001:0000704E  3486 0001:0000706C  3489 0001:00007070  3490 0001:0000707C
  3491 0001:00007087  3494 0001:0000708C  3495 0001:00007093  3496 0001:0000709B
  3508 0001:000070A0  3509 0001:000070AC  3510 0001:000070AD  3511 0001:000070AE
  3512 0001:000070AF  3513 0001:000070B1  3514 0001:000070B3  3515 0001:000070B6
  3516 0001:000070B9  3517 0001:000070BB  3518 0001:000070BE  3519 0001:000070C1
  3522 0001:000070C4  3523 0001:000070C6  3526 0001:000070C8  3527 0001:000070CA
  3528 0001:000070CC  3529 0001:000070CD  3530 0001:000070D0  3533 0001:000070D2
  3534 0001:000070D3  3535 0001:000070D4  3538 0001:000070D6  3539 0001:000070D8
  3540 0001:000070DB  3543 0001:000070E0  3544 0001:000070E2  3545 0001:000070E4
  3546 0001:000070E5  3547 0001:000070E8  3548 0001:000070EA  3549 0001:000070ED
  3550 0001:000070F0  3551 0001:000070F3  3552 0001:000070F6  3553 0001:000070F8
  3554 0001:000070FA  3555 0001:000070FC  3556 0001:000070FD  3557 0001:00007102
  3558 0001:00007105  3559 0001:00007107  3560 0001:0000710A  3561 0001:0000710C
  3562 0001:0000710E  3563 0001:0000710F  3564 0001:00007111  3565 0001:00007114
  3566 0001:00007119  3567 0001:0000711C  3568 0001:0000711E  3569 0001:00007120
  3570 0001:00007122  3571 0001:00007123  3572 0001:00007128  3573 0001:0000712B
  3574 0001:0000712E  3575 0001:0000712F  3576 0001:00007130  3577 0001:00007135
  3578 0001:00007136  3579 0001:00007139  3580 0001:0000713B  3581 0001:0000713D
  3582 0001:0000713F  3583 0001:00007143  3584 0001:00007145  3585 0001:00007147
  3586 0001:00007149  3587 0001:0000714B  3588 0001:0000714D  3589 0001:0000714F
  3590 0001:00007151  3591 0001:00007153  3592 0001:00007155  3593 0001:00007157
  3594 0001:00007159  3595 0001:0000715B  3596 0001:0000715D  3597 0001:0000715F
  3598 0001:00007161  3599 0001:00007163  3600 0001:00007165  3601 0001:00007167
  3602 0001:00007169  3603 0001:0000716D  3604 0001:0000716F  3605 0001:00007170
  3606 0001:00007173  3607 0001:00007178  3608 0001:00007179  3609 0001:0000717A
  3610 0001:0000717D  3613 0001:00007182  3614 0001:00007184  3615 0001:00007187
  3616 0001:00007189  3617 0001:0000718C  3618 0001:0000718E  3619 0001:00007191
  3620 0001:00007193  3621 0001:00007196  3622 0001:00007199  3623 0001:0000719C
  3624 0001:0000719E  3625 0001:000071A0  3626 0001:000071A2  3627 0001:000071A3
  3628 0001:000071A5  3629 0001:000071A6  3630 0001:000071AB  3631 0001:000071AE
  3632 0001:000071B1  3633 0001:000071B3  3634 0001:000071B6  3635 0001:000071B9
  3636 0001:000071BE  3637 0001:000071C1  3638 0001:000071C3  3639 0001:000071C5
  3640 0001:000071C7  3641 0001:000071C9  3642 0001:000071CA  3645 0001:000071CB
  3646 0001:000071CD  3647 0001:000071CF  3648 0001:000071D4  3649 0001:000071D7
  3650 0001:000071DA  3651 0001:000071DC  3652 0001:000071DF  3653 0001:000071E2
  3654 0001:000071E5  3655 0001:000071E7  3656 0001:000071EB  3659 0001:000071F2
  3660 0001:000071F6  3661 0001:000071FA  3662 0001:000071FE  3663 0001:00007202
  3664 0001:00007206  3665 0001:0000720A  3666 0001:0000720E  3667 0001:00007212
  3668 0001:00007216  3669 0001:0000721A  3670 0001:0000721E  3671 0001:00007222
  3672 0001:00007226  3673 0001:0000722A  3674 0001:0000722E  3682 0001:00007232
  3685 0001:00007234  3686 0001:00007239  3687 0001:0000723C  3688 0001:0000723F
  3689 0001:00007241  3693 0001:00007246  3694 0001:00007249  3695 0001:0000724B
  3696 0001:0000724E  3697 0001:00007250  3698 0001:00007253  3699 0001:00007255
  3700 0001:0000725A  3701 0001:0000725C  3702 0001:0000725E  3703 0001:00007260
  3704 0001:00007262  3705 0001:00007267  3706 0001:00007269  3707 0001:0000726A
  3708 0001:0000726B  3709 0001:0000726D  3710 0001:0000726E  3713 0001:00007273
  3714 0001:00007276  3715 0001:00007278  3716 0001:0000727A  3717 0001:0000727D
  3718 0001:00007280  3719 0001:00007282  3720 0001:00007285  3721 0001:00007286
  3722 0001:00007288  3723 0001:0000728A  3724 0001:0000728C  3725 0001:0000728F
  3726 0001:00007291  3727 0001:00007294  3728 0001:00007297  3729 0001:00007299
  3730 0001:0000729A  3731 0001:0000729C  3732 0001:0000729E  3733 0001:000072A0
  3734 0001:000072A2  3735 0001:000072A3  3736 0001:000072A5  3737 0001:000072A6
  3738 0001:000072A8  3741 0001:000072A9  3742 0001:000072AC  3743 0001:000072AE
  3744 0001:000072B3  3747 0001:000072B4  3748 0001:000072B7  3749 0001:000072BD
  3750 0001:000072C1  3751 0001:000072C3  3752 0001:000072C5  3753 0001:000072C8
  3754 0001:000072CD  3755 0001:000072D0  3758 0001:000072D2  3759 0001:000072D4
  3762 0001:000072D5  3763 0001:000072D8  3764 0001:000072DE  3765 0001:000072E0
  3766 0001:000072E1  3767 0001:000072E4  3770 0001:000072E6  3771 0001:000072EB
  3774 0001:000072ED  3777 0001:000072F2  3778 0001:000072F5  3779 0001:000072FB
  3780 0001:000072FD  3781 0001:00007300  3782 0001:00007302  3783 0001:00007305
  3784 0001:00007307  3787 0001:00007309  3788 0001:0000730C  3789 0001:00007312
  3792 0001:00007314  3793 0001:00007316  3794 0001:00007318  3797 0001:0000731B
  3798 0001:0000731E  3799 0001:00007320  3800 0001:00007321  3801 0001:00007324
  3804 0001:00007325  3805 0001:00007328  3806 0001:0000732E  3807 0001:00007330
  3808 0001:00007331  3809 0001:00007333  3810 0001:00007335  3811 0001:00007338
  3812 0001:0000733A  3813 0001:0000733C  3814 0001:0000733E  3815 0001:0000733F
  3816 0001:00007341  3817 0001:00007343  3818 0001:00007344  3821 0001:00007345
  3822 0001:00007348  3823 0001:0000734E  3824 0001:00007355  3825 0001:0000735A
  3828 0001:0000735F  3829 0001:00007361  3832 0001:00007363  3835 0001:00007365
  3836 0001:00007367  3837 0001:00007369  3838 0001:0000736C  3839 0001:0000736E
  3840 0001:00007370  3841 0001:00007373  3842 0001:00007375  3843 0001:00007377
  3844 0001:0000737A  3845 0001:0000737C  3846 0001:0000737E  3847 0001:00007381
  3848 0001:00007383  3849 0001:00007386  3850 0001:0000738C  3851 0001:0000738E
  3852 0001:00007393  3853 0001:00007396  3854 0001:00007398  3855 0001:0000739A
  3856 0001:0000739F  3857 0001:000073A2  3858 0001:000073A4  3859 0001:000073AB
  3860 0001:000073AD  3861 0001:000073B0  3862 0001:000073B5  3863 0001:000073B8
  3864 0001:000073BA  3865 0001:000073BF  3866 0001:000073C0  3867 0001:000073C1
  3868 0001:000073C2  3869 0001:000073C5  3870 0001:000073C7  3871 0001:000073CA
  3872 0001:000073CF  3873 0001:000073D1  3874 0001:000073D4  3877 0001:000073D5
  3878 0001:000073D6  3879 0001:000073D9  3880 0001:000073DE  3881 0001:000073DF
  3884 0001:000073E0  3885 0001:000073E5  3886 0001:000073E6  3887 0001:000073E7
  3888 0001:000073E8  3891 0001:000073F0  3892 0001:000073FF  3893 0001:00007427
  3894 0001:00007430  3898 0001:00007438  3899 0001:00007447  3900 0001:0000746D
  3901 0001:00007476  3904 0001:0000747C  3905 0001:0000748B  3906 0001:0000749D
  3913 0001:000074A4  3914 0001:000074BA  3915 0001:000074C1  3916 0001:000074E6
  3920 0001:00007517  3921 0001:00007522  3923 0001:00007528  3927 0001:0000753C
  3928 0001:00007549  3929 0001:00007551  3930 0001:0000755C  3925 0001:0000758A
  3933 0001:0000759C  3936 0001:000075A9  3937 0001:000075BA  3958 0001:000075C0
  3959 0001:000075C9  3961 0001:000075E9  3966 0001:000075F0  3967 0001:000075F9
  3969 0001:00007619  3975 0001:00007620  3976 0001:0000762F  3978 0001:00007655
  3984 0001:0000765C  3985 0001:0000766B  3987 0001:0000768F  3992 0001:00007698
  3993 0001:000076BD  3994 0001:000076E7  3996 0001:00007730  4001 0001:00007738
  4002 0001:0000775D  4003 0001:00007787  4005 0001:000077D0  4008 0001:000077D8
  4009 0001:000077F4  4010 0001:0000780A  4011 0001:00007850  4014 0001:00007854
  4015 0001:00007870  4016 0001:00007886  4017 0001:000078CC  4026 0001:000078D0
  4027 0001:000078D3  4028 0001:000078D5  4029 0001:000078D8  4030 0001:000078DE
  4031 0001:000078E1  4032 0001:000078E4  4033 0001:000078E5  4034 0001:000078E6
  4035 0001:000078E7  4036 0001:000078E9  4037 0001:000078EB  4038 0001:000078ED
  4039 0001:000078EF  4040 0001:000078F2  4041 0001:000078F8  4042 0001:000078FA
  4043 0001:000078FC  4044 0001:00007902  4045 0001:00007907  4046 0001:00007909
  4047 0001:0000790C  4051 0001:00007910  4052 0001:00007912  4053 0001:00007915
  4054 0001:0000791A  4055 0001:00007920  4056 0001:00007922  4057 0001:00007924
  4058 0001:00007926  4059 0001:00007929  4060 0001:0000792B  4061 0001:0000792D
  4062 0001:00007930  4063 0001:00007931  4064 0001:00007932  4065 0001:00007935
  4066 0001:0000793B  4067 0001:0000793E  4070 0001:00007940  4071 0001:00007943
  4072 0001:00007945  4073 0001:00007948  4074 0001:0000794B  4075 0001:00007951
  4076 0001:00007953  4077 0001:00007956  4081 0001:0000795C  4082 0001:0000795F
  4083 0001:00007965  4084 0001:00007967  4089 0001:00007968  4090 0001:0000797A
  4091 0001:0000797E  4093 0001:0000799F  4094 0001:00007A05  4096 0001:00007A0C
  4107 0001:00007A20  4108 0001:00007A2F  4109 0001:00007A50  4110 0001:00007A64
  4111 0001:00007A78  4116 0001:00007A80  4117 0001:00007A88  4118 0001:00007AC8
  4124 0001:00007ACC  4125 0001:00007ADF  4126 0001:00007AE3  4127 0001:00007B03
  4130 0001:00007B51  4131 0001:00007B8B  4132 0001:00007B9C  4133 0001:00007C0E
  4135 0001:00007C15  4138 0001:00007C1C  4139 0001:00007C42  4140 0001:00007C5B
  4141 0001:00007C90  4153 0001:00007C98  4154 0001:00007CA7  4155 0001:00007CBB
  4157 0001:00007CC1  4158 0001:00007CC9  4159 0001:00007CD1  4162 0001:00007CDE
  4163 0001:00007CE9  4164 0001:00007CEF  4166 0001:00007CF8  4167 0001:00007D06
  4164 0001:00007D13  4169 0001:00007D1C  4170 0001:00007D2F  4172 0001:00007D36
  4173 0001:00007D42  4175 0001:00007D4F  4176 0001:00007D68  4177 0001:00007D7C
  4178 0001:00007D95  4179 0001:00007DA9  4181 0001:00007DB0  4182 0001:00007DBC
  4184 0001:00007DC9  4185 0001:00007DD8  4186 0001:00007DF8  4189 0001:00007DFE
  4190 0001:00007E0E  4191 0001:00007E18  4192 0001:00007E27  4187 0001:00007E33
  4194 0001:00007E35  4195 0001:00007E3F  4196 0001:00007E49  4198 0001:00007E5D
  4217 0001:00007E64  4218 0001:00007E6A  4219 0001:00007E93  4267 0001:00007E9C
  4268 0001:00007EA2  4269 0001:00007EAB  4270 0001:00007EB7  4283 0001:00007EBC
  4284 0001:00007EC8  4285 0001:00007EE0  4286 0001:00007EEE  4287 0001:00007F12
  4288 0001:00007F25  4291 0001:00007F2C  4292 0001:00007F33  4293 0001:00007F4A
  4300 0001:00007F50  4301 0001:00007F5C  4303 0001:00007F99  4317 0001:00007FA0
  4318 0001:00007FA4  4319 0001:00007FAF  4320 0001:00007FC6  4321 0001:00007FE6
  4324 0001:00007FEC  4325 0001:00007FEF  4327 0001:00007FF8  4328 0001:0000801B
  4330 0001:00008022  4333 0001:00008024  4334 0001:00008027  4336 0001:00008030
  4337 0001:0000805A  4339 0001:00008061  4347 0001:00008064  4348 0001:0000808C
  4351 0001:00008094  4352 0001:0000809F  4353 0001:000080AA  4356 0001:000080B5
  4357 0001:000080C2  4360 0001:000080F0  4361 0001:00008103  4363 0001:0000810D
  4365 0001:00008123  4367 0001:00008149  4370 0001:0000816E  4371 0001:0000818B
  4376 0001:000081DE  4383 0001:000081F0  4384 0001:00008212  4387 0001:0000821A
  4388 0001:00008225  4389 0001:00008230  4392 0001:0000823B  4393 0001:00008241
  4395 0001:00008250  4397 0001:0000825D  4400 0001:00008287  4401 0001:0000829A
  4402 0001:000082AA  4404 0001:000082F0  4406 0001:00008310  4407 0001:0000832C
  4409 0001:00008346  4410 0001:00008357  4411 0001:0000835B  4412 0001:0000835F
  4413 0001:00008363  4416 0001:0000836C  4417 0001:00008374  4418 0001:00008378
  4420 0001:00008389  4421 0001:00008395  4422 0001:00008399  4423 0001:0000839D
  4425 0001:000083A2  4426 0001:000083A8  4427 0001:000083BC  4429 0001:000083C5
  4430 0001:000083D5  4432 0001:000083DB  4435 0001:0000846D  4436 0001:00008474
  4437 0001:0000847B  4438 0001:00008481  4439 0001:000084A3  4443 0001:000084BB
  4444 0001:000084C2  4445 0001:000084C9  4449 0001:000084E8  4450 0001:000084EF
  4451 0001:000084F6  4455 0001:00008515  4456 0001:0000851C  4457 0001:00008523
  4458 0001:00008530  4459 0001:00008546  4461 0001:00008560  4466 0001:0000857A
  4467 0001:00008581  4470 0001:00008594  4471 0001:0000859B  4473 0001:000085B1
  4474 0001:000085D5  4475 0001:000085F9  4477 0001:0000860D  4482 0001:00008621
  4483 0001:00008628  4484 0001:0000862F  4485 0001:00008633  4488 0001:0000863E
  4490 0001:00008651  4491 0001:00008655  4492 0001:00008661  4493 0001:00008665
  4495 0001:0000866A  4497 0001:00008698  4499 0001:0000869E  4502 0001:000086E0
  4503 0001:000086E4  4507 0001:000086E6  4509 0001:000086EE  4486 0001:000086F2
  4511 0001:000086FE  4512 0001:00008706  4513 0001:0000870C  4514 0001:0000872E
  4515 0001:0000873B  4519 0001:00008751  4520 0001:00008758  4521 0001:0000875F
  4522 0001:0000876C  4526 0001:00008782  4527 0001:00008789  4528 0001:00008790
  4529 0001:0000879D  4533 0001:000087B3  4534 0001:000087BA  4535 0001:000087C0
  4536 0001:000087D4  4540 0001:000087E8  4541 0001:000087EF  4542 0001:000087F8
  4544 0001:0000880E  4545 0001:00008819  4546 0001:0000882B  4547 0001:0000882F
  4549 0001:00008838  4551 0001:0000884E  4552 0001:00008859  4553 0001:0000886B
  4554 0001:0000886F  4556 0001:00008878  4558 0001:0000888E  4559 0001:00008895
  4560 0001:000088A6  4561 0001:000088B5  4562 0001:000088B9  4564 0001:000088C2
  4566 0001:000088D8  4567 0001:000088DF  4568 0001:000088FE  4570 0001:00008907
  4572 0001:0000891D  4573 0001:00008924  4574 0001:00008943  4576 0001:0000894C
  4580 0001:00008963  4581 0001:0000896A  4582 0001:00008979  4583 0001:00008980
  4585 0001:00008999  4586 0001:000089AD  4590 0001:000089C1  4592 0001:000089DA
  4595 0001:000089F0  4598 0001:000089F8  4600 0001:00008A0B  4601 0001:00008A0F
  4603 0001:00008A17  4596 0001:00008A1B  4605 0001:00008A2D  4606 0001:00008A47
  4609 0001:00008A55  4414 0001:00008A67  4612 0001:00008A73  4614 0001:00008AA1
  4616 0001:00008ACC  4617 0001:00008AE1  4618 0001:00008AE9  4619 0001:00008AF1
  4620 0001:00008B15  4621 0001:00008B2C  4624 0001:00008B38  4625 0001:00008B3F
  4626 0001:00008B53  4634 0001:00008B58  4635 0001:00008B5F  4636 0001:00008B6F
  4651 0001:00008B74  4652 0001:00008B80  4653 0001:00008B8A  4654 0001:00008BAF
  4655 0001:00008BB7  4662 0001:00008BBC  4663 0001:00008BCB  4664 0001:00008BCF
  4665 0001:00008BDA  4666 0001:00008BE2  4669 0001:00008BEA  4670 0001:00008C1A
  4667 0001:00008C25  4672 0001:00008C4A  4674 0001:00008C54  4675 0001:00008C5C
  4676 0001:00008C66  4678 0001:00008C6D  4682 0001:00008C74  4683 0001:00008C97
  4684 0001:00008C9B  4686 0001:00008CA1  4687 0001:00008CAC  4689 0001:00008CD6
  4690 0001:00008CEA  4693 0001:00008D0E  4696 0001:00008D14  4697 0001:00008D23
  4698 0001:00008D27  4699 0001:00008D32  4701 0001:00008D52  4702 0001:00008D5F
  4704 0001:00008D66  4709 0001:00008D6C  4710 0001:00008D75  4711 0001:00008D79
  4714 0001:00008D82  4715 0001:00008DA0  4716 0001:00008DA6  4717 0001:00008DAC
  4718 0001:00008DB2  4720 0001:00008DB8  4712 0001:00008DC3  4725 0001:00008DD0
  4726 0001:00008DD7  4729 0001:00008DDC  4732 0001:00008DEA  4733 0001:00008E11
  4730 0001:00008E1E  4735 0001:00008E3F  4740 0001:00008E44  4741 0001:00008E4D
  4742 0001:00008E52  4744 0001:00008E59  4745 0001:00008E66  4747 0001:00008E88
  4748 0001:00008E95  4750 0001:00008E97  4742 0001:00008E9A  4751 0001:00008EA3
  4762 0001:00008EA8  4763 0001:00008EB1  4765 0001:00008EBB  4766 0001:00008EC1
  4767 0001:00008EFB  4768 0001:00008F04  4771 0001:00008F13  4772 0001:00008F21
  4773 0001:00008F37  4775 0001:00008F3C  4776 0001:00008F62  4777 0001:00008F68
  4778 0001:00008F6E  4779 0001:00008F74  4780 0001:00008F78  4781 0001:00008F85
  4782 0001:00008F8A  4784 0001:00008F94  4785 0001:00008F9F  4786 0001:00008FCA
  4789 0001:00008FD7  4790 0001:00008FEB  4791 0001:00008FF3  4793 0001:00009038
  4795 0001:00009051  4796 0001:00009067  4797 0001:00009076  4798 0001:00009090
  4799 0001:000090AA  4801 0001:000090C2  4802 0001:000090D7  4805 0001:00009105
  4806 0001:0000910E  4808 0001:00009114  4811 0001:00009126  4814 0001:00009136
  4815 0001:00009147  4816 0001:00009152  4818 0001:00009177  4819 0001:00009184
  4822 0001:00009196  4823 0001:000091C1  4824 0001:000091CC  4828 0001:0000923B
  4829 0001:00009278  4836 0001:00009298  4837 0001:000092A7  4838 0001:000092AB
  4839 0001:000092B2  4840 0001:000092DB  4841 0001:000092E2  4842 0001:0000930B
  4843 0001:00009312  4844 0001:00009323  4845 0001:00009339  4846 0001:0000933F
  4847 0001:00009354  4848 0001:0000936A  4849 0001:00009370  4850 0001:00009385
  4851 0001:0000939B  4852 0001:000093A1  4853 0001:000093CA  4855 0001:000093D1
  4856 0001:000093FA  4857 0001:00009401  4859 0001:00009407  4860 0001:00009415
  4861 0001:00009422  4863 0001:00009430  4864 0001:0000943B  4865 0001:00009458
  4870 0001:00009474  4871 0001:00009490  4872 0001:00009497  4873 0001:000094B6
  4874 0001:000094FC  4879 0001:00009500  4880 0001:0000951C  4881 0001:00009523
  4882 0001:00009542  4883 0001:00009588  4889 0001:0000958C  4890 0001:000095A8
  4891 0001:000095AF  4892 0001:000095B7  4894 0001:000095E8  4895 0001:0000960E
  4896 0001:0000961C  4897 0001:00009628  4898 0001:00009652  4906 0001:0000965C
  4907 0001:0000966B  4910 0001:00009690  4911 0001:000096B3  4912 0001:000096C4
  4920 0001:000096C8  4921 0001:000096DA  4922 0001:000096F6  4923 0001:00009724
  4928 0001:0000972C  4929 0001:0000973B  4930 0001:00009752  4931 0001:0000975A
  4932 0001:00009763  4962 0001:00009768  4963 0001:00009777  4964 0001:0000978B
  4965 0001:000097A4  4967 0001:000097AC  4968 0001:000097C5  4969 0001:000097CD
  4971 0001:000097D4  4973 0001:00009812  4975 0001:00009850  4969 0001:00009853
  4976 0001:0000985D  4978 0001:00009864  4979 0001:0000987C  4980 0001:000098B0
  4981 0001:000098E4  4976 0001:000098E7  4982 0001:0000990E  4991 0001:00009914
  4992 0001:0000991A  4994 0001:00009921  4995 0001:00009933  4996 0001:0000994F
  4997 0001:0000995A  4998 0001:00009962  4999 0001:0000996A  5005 0001:00009970
  5006 0001:00009976  5008 0001:0000997D  5009 0001:00009992  5010 0001:000099A4
  5011 0001:000099B9  5012 0001:000099C4  5013 0001:000099CC  5014 0001:000099D4
  5016 0001:000099DC  5017 0001:000099F5  5019 0001:00009A1D  5022 0001:00009A28
  5023 0001:00009A3E  5026 0001:00009A71  5033 0001:00009A84  5034 0001:00009AA3
  5035 0001:00009AAA  5036 0001:00009AB2  5038 0001:00009ADA  5040 0001:00009AE9
  5041 0001:00009B07  5045 0001:00009B0F  5046 0001:00009B21  5047 0001:00009B41
  5043 0001:00009B4C  5051 0001:00009B5E  5052 0001:00009B69  5057 0001:00009B6E
  5059 0001:00009B86  5060 0001:00009BA8  5063 0001:00009BB8  5065 0001:00009BD5
  5066 0001:00009BE5  5068 0001:00009BF5  5070 0001:00009C12  5071 0001:00009C22
  5073 0001:00009C2F  5075 0001:00009C4C  5076 0001:00009C5C  5078 0001:00009C69
  5079 0001:00009C7B  5081 0001:00009C8D  5082 0001:00009CAD  5055 0001:00009CB8
  5085 0001:00009CE6  5091 0001:00009D3C  5092 0001:00009D55  5093 0001:00009D5D
  5094 0001:00009D7D  5095 0001:00009DA2  5096 0001:00009DC7  5097 0001:00009DDB
  5098 0001:00009DEF  5099 0001:00009E14  5100 0001:00009E28  5101 0001:00009E56
  5102 0001:00009E84  5103 0001:00009E98  5104 0001:00009EBB  5105 0001:00009EDE
  5106 0001:00009EE6  5107 0001:00009EEE  5108 0001:00009F12  5109 0001:00009F21
  5110 0001:00009F2E  5111 0001:00009F52  5112 0001:00009F76  5114 0001:00009F85
  5115 0001:00009F92  5116 0001:00009FAF  5117 0001:00009FFB  5137 0001:0000A0A0
  5138 0001:0000A0A4  5139 0001:0000A0B2  5140 0001:0000A0C5  5141 0001:0000A0CD
  5146 0001:0000A0D0  5147 0001:0000A0D4  5148 0001:0000A0E2  5149 0001:0000A0F5
  5150 0001:0000A0FD  5156 0001:0000A100  5157 0001:0000A102  5158 0001:0000A104
  5160 0001:0000A109  5175 0001:0000A10C  5176 0001:0000A11E  5177 0001:0000A130
  5180 0001:0000A158  5181 0001:0000A171  5184 0001:0000A17E  5185 0001:0000A191
  5186 0001:0000A1B3  5187 0001:0000A1BB  5188 0001:0000A1C3  5190 0001:0000A1D5
  5191 0001:0000A1E3  5192 0001:0000A1EE  5194 0001:0000A209  5196 0001:0000A230
  5198 0001:0000A2B0  5199 0001:0000A2BE  5207 0001:0000A2CC  5208 0001:0000A2F1
  5209 0001:0000A307  5210 0001:0000A311  5214 0001:0000A32D  5215 0001:0000A35F
  5217 0001:0000A396  5224 0001:0000A39C  5226 0001:0000A39F  5227 0001:0000A3A2
  5229 0001:0000A3A4  5230 0001:0000A3B7  5231 0001:0000A3FD  5243 0001:0000A400
  5244 0001:0000A41B  5245 0001:0000A43C  5249 0001:0000A440  5250 0001:0000A46F
  5251 0001:0000A4BF  5294 0001:0000A4C8  5295 0001:0000A4E5  5298 0001:0000A4EC
  5299 0001:0000A4F3  5300 0001:0000A4FC  5301 0001:0000A504  5322 0001:0000A528
  5323 0001:0000A541  5324 0001:0000A548  5325 0001:0000A570  5326 0001:0000A576
  5327 0001:0000A591  5328 0001:0000A5C8  5329 0001:0000A5D9  5330 0001:0000A606
  5367 0001:0000A62C  5368 0001:0000A638  5369 0001:0000A649  5370 0001:0000A653
  5371 0001:0000A65D  5373 0001:0000A681  5375 0001:0000A689  5376 0001:0000A694
  5384 0001:0000A698  5385 0001:0000A6BE  5386 0001:0000A6DE  5388 0001:0000A74B
  5393 0001:0000A754  5394 0001:0000A76D  5395 0001:0000A7BA  5398 0001:0000A7C0
  5399 0001:0000A7C9  5401 0001:0000A827  5403 0001:0000A82D  5405 0001:0000A833
  5409 0001:0000A839  5411 0001:0000A83F  5413 0001:0000A845  5416 0001:0000A84B
  5418 0001:0000A851  5420 0001:0000A857  5422 0001:0000A85D  5424 0001:0000A863
  5426 0001:0000A869  5428 0001:0000A870  5433 0001:0000A874  5434 0001:0000A87D
  5435 0001:0000A888  5436 0001:0000A89A  5448 0001:0000A8A0  5449 0001:0000A8C8
  5451 0001:0000A8D1  5452 0001:0000A8DA  5453 0001:0000A8E9  5454 0001:0000A8F6
  5455 0001:0000A8FF  5456 0001:0000A911  5458 0001:0000A93B  5461 0001:0000A9D8
  5464 0001:0000AA69  5466 0001:0000AA70  5467 0001:0000AA8C  5468 0001:0000AA9C
  5470 0001:0000AAAF  5471 0001:0000AAD3  5473 0001:0000AADF  5475 0001:0000AB10
  5477 0001:0000AB39  5482 0001:0000AB40  5483 0001:0000AB4C  5484 0001:0000AB57
  5485 0001:0000AB61  5488 0001:0000AB68  5489 0001:0000AB7B  5490 0001:0000AB9C
  5491 0001:0000ABBD  5492 0001:0000ABC8  5493 0001:0000ABD3  5494 0001:0000ABE0
  5495 0001:0000ABEB  5496 0001:0000ABF6  5497 0001:0000AC01  5498 0001:0000AC29
  5501 0001:0000AC2C  5502 0001:0000AC2F  5503 0001:0000AC38  5504 0001:0000AC42
  5505 0001:0000AC49  5506 0001:0000AC53  5507 0001:0000AC5A  5508 0001:0000AC63
  5509 0001:0000AC6C  5510 0001:0000AC75  5511 0001:0000AC7E  5512 0001:0000AC87
  5513 0001:0000AC90  5518 0001:0000AC94  5519 0001:0000AC9D  5520 0001:0000ACA7
  5523 0001:0000ACB7  5524 0001:0000ACC2  5525 0001:0000ACCD  5526 0001:0000ACD8
  5527 0001:0000ACE3  5529 0001:0000ACF5  5539 0001:0000ACFC  5540 0001:0000AD08
  5541 0001:0000AD0C  5543 0001:0000AD12  5547 0001:0000AD2F  5548 0001:0000AD60
  5549 0001:0000AD66  5550 0001:0000AD7D  5552 0001:0000AD84  5555 0001:0000AD88
  5556 0001:0000AD94  5557 0001:0000AD98  5558 0001:0000ADA1  5559 0001:0000ADC1
  5562 0001:0000ADC8  5563 0001:0000ADD4  5564 0001:0000ADD8  5565 0001:0000ADE1
  5566 0001:0000ADF2  5569 0001:0000ADF8  5570 0001:0000AE04  5571 0001:0000AE1C
  5572 0001:0000AE2D  5577 0001:0000AE34  5578 0001:0000AE40  5579 0001:0000AE45
  5580 0001:0000AE58  5581 0001:0000AE5E  5582 0001:0000AE67  5583 0001:0000AE6E
  5584 0001:0000AE73  5586 0001:0000AE7B  5587 0001:0000AE9E  5588 0001:0000AEA9
  5584 0001:0000AEB4  5590 0001:0000AEBF  5595 0001:0000AEC4  5596 0001:0000AED3
  5597 0001:0000AEDE  5598 0001:0000AEE5  5601 0001:0000AEEE  5602 0001:0000AEF9
  5603 0001:0000AF1C  5599 0001:0000AF27  5605 0001:0000AF37  5606 0001:0000AF6A
  5607 0001:0000AF72  5608 0001:0000AF7A  5613 0001:0000AF80  5614 0001:0000AF8C
  5615 0001:0000AF91  5616 0001:0000AFA4  5618 0001:0000AFB3  5619 0001:0000AFCF
  5620 0001:0000AFEE  5622 0001:0000AFF5  5625 0001:0000B002  5626 0001:0000B00B
  5631 0001:0000B010  5632 0001:0000B01C  5633 0001:0000B021  5634 0001:0000B027
  5635 0001:0000B03F  5637 0001:0000B048  5638 0001:0000B05A  5639 0001:0000B067
  5642 0001:0000B074  5643 0001:0000B07D  5661 0001:0000B084  5662 0001:0000B090
  5663 0001:0000B095  5664 0001:0000B0AF  5665 0001:0000B0B5  5666 0001:0000B0D9
  5676 0001:0000B0E0  5677 0001:0000B0ED  5679 0001:0000B0FA  5680 0001:0000B105
  5681 0001:0000B110  5682 0001:0000B117  5684 0001:0000B123  5685 0001:0000B13C
  5687 0001:0000B154  5688 0001:0000B15F  5691 0001:0000B17A  5692 0001:0000B1A3
  5682 0001:0000B1AE  5696 0001:0000B1BC  5697 0001:0000B1C7  5702 0001:0000B1CC
  5703 0001:0000B1D9  5705 0001:0000B1E6  5706 0001:0000B1F1  5707 0001:0000B1FC
  5708 0001:0000B203  5710 0001:0000B20F  5711 0001:0000B228  5713 0001:0000B240
  5714 0001:0000B24B  5717 0001:0000B266  5718 0001:0000B28F  5708 0001:0000B29A
  5722 0001:0000B2A8  5723 0001:0000B2B3  5729 0001:0000B2B8  5730 0001:0000B2C4
  5731 0001:0000B2C9  5732 0001:0000B2F5  5733 0001:0000B300  5734 0001:0000B30B
  5737 0001:0000B31B  5738 0001:0000B333  5740 0001:0000B35A  5741 0001:0000B364
  5742 0001:0000B368  5735 0001:0000B376  5744 0001:0000B39A  5745 0001:0000B3A2
  5748 0001:0000B3A8  5749 0001:0000B3B4  5750 0001:0000B3C2  5751 0001:0000B3C8
  5753 0001:0000B3CE  5755 0001:0000B3D4  5756 0001:0000B3DA  5757 0001:0000B3DE
  5753 0001:0000B3EC  5760 0001:0000B3F5  5763 0001:0000B3FC  5764 0001:0000B408
  5765 0001:0000B416  5767 0001:0000B41C  5769 0001:0000B439  5771 0001:0000B43D
  5772 0001:0000B441  5765 0001:0000B44F  5774 0001:0000B458  5783 0001:0000B45C
  5785 0001:0000B462  5786 0001:0000B46C  5787 0001:0000B475  5788 0001:0000B47E
  5790 0001:0000B485  5791 0001:0000B48D  5793 0001:0000B49B  5794 0001:0000B4A2
  5796 0001:0000B4A9  5797 0001:0000B4B7  5800 0001:0000B4C4  5801 0001:0000B4D5
  5803 0001:0000B4DE  5806 0001:0000B4E9  5809 0001:0000B4F0  5810 0001:0000B509
  5809 0001:0000B51B  5811 0001:0000B520  5807 0001:0000B52B  5814 0001:0000B541
  6125 0001:0000B548  6126 0001:0000B564  6127 0001:0000B56C  6128 0001:0000B572
  6131 0001:0000B5B8  6132 0001:0000B5D7  6133 0001:0000B5E0  6134 0001:0000B60A
  6139 0001:0000B610  6140 0001:0000B619  6141 0001:0000B624  6142 0001:0000B62D
  6167 0001:0000B634  6168 0001:0000B63B  6169 0001:0000B63F  6172 0001:0000B649
  6173 0001:0000B652  6170 0001:0000B65A  6175 0001:0000B669  6180 0001:0000B670
  6183 0001:0000B676  6184 0001:0000B67E  6185 0001:0000B688  6181 0001:0000B695
  6187 0001:0000B69E  6193 0001:0000B6A4  6194 0001:0000B6A6  6195 0001:0000B6A9
  6196 0001:0000B6AC  6197 0001:0000B6AF  6198 0001:0000B6B1  6202 0001:0000B6B4
  6203 0001:0000B6B6  6204 0001:0000B6B9  6205 0001:0000B6BC  6206 0001:0000B6BF
  6207 0001:0000B6C2  6208 0001:0000B6C5  6209 0001:0000B6C8  6210 0001:0000B6CA
  6217 0001:0000B6CC  6218 0001:0000B6DF  6219 0001:0000B71D  6224 0001:0000B720
  6225 0001:0000B726  6226 0001:0000B730  6230 0001:0000B757  6231 0001:0000B75C
  6232 0001:0000B766  6233 0001:0000B76C  6235 0001:0000B772  6237 0001:0000B795
  6232 0001:0000B79B  6240 0001:0000B7A1  6241 0001:0000B7AF  6251 0001:0000B7BC
  6252 0001:0000B7C2  6253 0001:0000B7CA  6254 0001:0000B7D5  6255 0001:0000B7E0
  6256 0001:0000B7E6  6257 0001:0000B7ED  6258 0001:0000B7F4  6259 0001:0000B808
  6260 0001:0000B81E  6261 0001:0000B834  6262 0001:0000B83C  6289 0001:0000C424
  6290 0001:0000C446  6292 0001:0000C562  6280 0001:0000C564  6281 0001:0000C588
  6282 0001:0000C58D  6283 0001:0000C592  6284 0001:0000C597  6285 0001:0000C5A5
  6286 0001:0000C5AA  6288 0001:0000C5C4

Line numbers for Consts(Consts.pas) segment .text

   260 0001:0000C9CF

Line numbers for Aligrid(Aligrid.pas) segment .text

   692 0001:0005C4BC   693 0001:0005C4C8   694 0001:0005C4CC   695 0001:0005C4E0
   696 0001:0005C4ED   694 0001:0005C4FF   698 0001:0005C502   704 0001:0005C508
   705 0001:0005C510   706 0001:0005C514   707 0001:0005C528   708 0001:0005C535
   706 0001:0005C544   710 0001:0005C547   716 0001:0005C54C   717 0001:0005C554
   718 0001:0005C558   719 0001:0005C56C   718 0001:0005C57B   721 0001:0005C57E
   845 0001:0005C604   846 0001:0005C607   847 0001:0005C60B   848 0001:0005C610
   862 0001:0005C698   863 0001:0005C69B   864 0001:0005C69F   865 0001:0005C6A4
   873 0001:0005C6A8   874 0001:0005C6B1   875 0001:0005C6BA   879 0001:0005C6CC
   883 0001:0005C6D0   884 0001:0005C6D6   885 0001:0005C6DE   886 0001:0005C6E4
   887 0001:0005C6EB   889 0001:0005C6F7   893 0001:0005C6FC   894 0001:0005C711
   895 0001:0005C71A   896 0001:0005C731   900 0001:0005C738   901 0001:0005C741
   902 0001:0005C756   903 0001:0005C75B   904 0001:0005C77C   905 0001:0005C781
   906 0001:0005C78E   907 0001:0005C7AF   909 0001:0005C7B2   910 0001:0005C7BB
   918 0001:0005C7C0   919 0001:0005C7D5   920 0001:0005C7DE   921 0001:0005C7E5
   922 0001:0005C7EC   923 0001:0005C7F3   924 0001:0005C7FA   926 0001:0005C801
   927 0001:0005C808   928 0001:0005C80F   930 0001:0005C816   931 0001:0005C81D
   932 0001:0005C824   934 0001:0005C82B   935 0001:0005C832   936 0001:0005C839
   938 0001:0005C840   939 0001:0005C847   940 0001:0005C84E   941 0001:0005C855
   942 0001:0005C85C   944 0001:0005C863   945 0001:0005C86A   947 0001:0005C871
   949 0001:0005C878   951 0001:0005C87F   952 0001:0005C896   958 0001:0005C89C
   960 0001:0005C8A8   961 0001:0005C8B2   962 0001:0005C8BC   963 0001:0005C8C7
   966 0001:0005C8CF   967 0001:0005C8D9   968 0001:0005C8E3   969 0001:0005C8EE
   972 0001:0005C8F6   973 0001:0005C900   974 0001:0005C914   975 0001:0005C92B
   976 0001:0005C93D   973 0001:0005C93E   977 0001:0005C941   978 0001:0005C94C
   981 0001:0005C954   982 0001:0005C95E   983 0001:0005C968   984 0001:0005C973
   987 0001:0005C97B   988 0001:0005C985   989 0001:0005C98F   990 0001:0005C99A
   994 0001:0005C9A2   995 0001:0005C9AC   996 0001:0005C9B6   997 0001:0005C9C1
  1000 0001:0005C9C9  1001 0001:0005C9D3  1002 0001:0005C9DD  1003 0001:0005C9E8
  1006 0001:0005C9F0  1007 0001:0005C9FA  1008 0001:0005CA0E  1009 0001:0005CA25
  1010 0001:0005CA37  1007 0001:0005CA38  1011 0001:0005CA3B  1012 0001:0005CA46
  1016 0001:0005CA4E  1017 0001:0005CA58  1018 0001:0005CA62  1019 0001:0005CA6D
  1022 0001:0005CA75  1023 0001:0005CA7F  1024 0001:0005CA89  1025 0001:0005CA94
  1028 0001:0005CA9C  1029 0001:0005CAA6  1030 0001:0005CABA  1031 0001:0005CAD1
  1032 0001:0005CAE3  1029 0001:0005CAE4  1033 0001:0005CAE7  1034 0001:0005CAF2
  1038 0001:0005CAFA  1039 0001:0005CB04  1040 0001:0005CB0E  1041 0001:0005CB19
  1044 0001:0005CB21  1045 0001:0005CB2B  1046 0001:0005CB35  1047 0001:0005CB40
  1050 0001:0005CB48  1051 0001:0005CB52  1052 0001:0005CB66  1053 0001:0005CB7D
  1054 0001:0005CB8F  1051 0001:0005CB90  1055 0001:0005CB93  1056 0001:0005CB9E
  1060 0001:0005CBA6  1061 0001:0005CBB0  1062 0001:0005CBB5  1063 0001:0005CBC0
  1066 0001:0005CBC8  1067 0001:0005CBD2  1068 0001:0005CBD7  1069 0001:0005CBE2
  1072 0001:0005CBEA  1073 0001:0005CBF4  1074 0001:0005CBF9  1075 0001:0005CC04
  1078 0001:0005CC0C  1079 0001:0005CC16  1080 0001:0005CC1B  1081 0001:0005CC26
  1084 0001:0005CC2E  1085 0001:0005CC38  1086 0001:0005CC4C  1087 0001:0005CC5E
  1088 0001:0005CC70  1085 0001:0005CC71  1089 0001:0005CC74  1090 0001:0005CC7F
  1094 0001:0005CC87  1095 0001:0005CC91  1096 0001:0005CC96  1097 0001:0005CCA1
  1100 0001:0005CCA9  1101 0001:0005CCB3  1102 0001:0005CCB8  1103 0001:0005CCC3
  1106 0001:0005CCCB  1107 0001:0005CCD5  1108 0001:0005CCDA  1109 0001:0005CCE5
  1112 0001:0005CCED  1113 0001:0005CCF7  1114 0001:0005CCFC  1115 0001:0005CD07
  1118 0001:0005CD0F  1119 0001:0005CD19  1120 0001:0005CD2D  1121 0001:0005CD3F
  1122 0001:0005CD51  1119 0001:0005CD52  1123 0001:0005CD55  1124 0001:0005CD60
  1128 0001:0005CD68  1129 0001:0005CD72  1130 0001:0005CD86  1131 0001:0005CD98
  1132 0001:0005CDAA  1129 0001:0005CDAB  1133 0001:0005CDAE  1134 0001:0005CDB9
  1137 0001:0005CDC1  1138 0001:0005CDCB  1139 0001:0005CDDF  1140 0001:0005CDF1
  1141 0001:0005CE03  1138 0001:0005CE04  1142 0001:0005CE07  1143 0001:0005CE12
  1145 0001:0005CE1A  1146 0001:0005CE25  1147 0001:0005CE30  1148 0001:0005CE4C
  1152 0001:0005CE54  1153 0001:0005CE5E  1154 0001:0005CE70  1155 0001:0005CE82
  1156 0001:0005CE94  1157 0001:0005CEA6  1158 0001:0005CEB8  1159 0001:0005CECA
  1160 0001:0005CEDC  1161 0001:0005CEEE  1162 0001:0005CF00  1163 0001:0005CF12
  1164 0001:0005CF24  1165 0001:0005CF36  1166 0001:0005CF48  1167 0001:0005CF5A
  1168 0001:0005CF6C  1169 0001:0005CF7E  1170 0001:0005CF90  1171 0001:0005CFA2
  1172 0001:0005CFB4  1173 0001:0005CFC6  1174 0001:0005CFD8  1175 0001:0005CFEA
  1176 0001:0005CFFC  1177 0001:0005D00E  1178 0001:0005D020  1179 0001:0005D032
  1180 0001:0005D039  1181 0001:0005D040  1182 0001:0005D060  1183 0001:0005D06A
  1184 0001:0005D074  1185 0001:0005D07C  1186 0001:0005D084  1187 0001:0005D08B
  1188 0001:0005D092  1189 0001:0005D099  1190 0001:0005D0A0  1191 0001:0005D0A7
  1192 0001:0005D0AE  1193 0001:0005D0B5  1194 0001:0005D0C9  1195 0001:0005D0D6
  1196 0001:0005D0E6  1197 0001:0005D0F6  1198 0001:0005D106  1199 0001:0005D111
  1207 0001:0005D118  1208 0001:0005D121  1209 0001:0005D136  1211 0001:0005D13A
  1212 0001:0005D147  1214 0001:0005D14B  1216 0001:0005D154  1223 0001:0005D158
  1224 0001:0005D168  1225 0001:0005D16D  1226 0001:0005D180  1227 0001:0005D187
  1226 0001:0005D190  1228 0001:0005D193  1229 0001:0005D1A0  1230 0001:0005D1AC
  1233 0001:0005D1BA  1234 0001:0005D1C6  1235 0001:0005D1C9  1251 0001:0005D1D0
  1252 0001:0005D1DD  1253 0001:0005D1EB  1255 0001:0005D1F6  1254 0001:0005D1FF
  1256 0001:0005D204  1257 0001:0005D210  1266 0001:0005D218  1267 0001:0005D224
  1268 0001:0005D23D  1270 0001:0005D241  1271 0001:0005D24E  1273 0001:0005D252
  1274 0001:0005D25B  1275 0001:0005D26C  1277 0001:0005D270  1279 0001:0005D277
  1288 0001:0005D27C  1289 0001:0005D28C  1290 0001:0005D291  1291 0001:0005D2A5
  1292 0001:0005D2AD  1291 0001:0005D2B6  1293 0001:0005D2B9  1294 0001:0005D2C7
  1295 0001:0005D2DF  1296 0001:0005D2EB  1297 0001:0005D2FE  1298 0001:0005D305
  1297 0001:0005D30E  1299 0001:0005D311  1300 0001:0005D31E  1302 0001:0005D32A
  1305 0001:0005D338  1306 0001:0005D344  1307 0001:0005D347  1331 0001:0005D350
  1332 0001:0005D361  1333 0001:0005D376  1334 0001:0005D382  1335 0001:0005D386
  1336 0001:0005D394  1338 0001:0005D3A0  1339 0001:0005D3AF  1341 0001:0005D3BB
  1340 0001:0005D3C4  1342 0001:0005D3C9  1343 0001:0005D3D5  1332 0001:0005D3D6
  1344 0001:0005D3DB  1354 0001:0005D3E4  1355 0001:0005D3EA  1359 0001:0005D3EC
  1360 0001:0005D3F2  1361 0001:0005D3F8  1362 0001:0005D3FF  1372 0001:0005D404
  1373 0001:0005D414  1374 0001:0005D426  1375 0001:0005D435  1376 0001:0005D439
  1377 0001:0005D43F  1379 0001:0005D450  1380 0001:0005D45F  1381 0001:0005D463
  1382 0001:0005D469  1384 0001:0005D47B  1385 0001:0005D48B  1386 0001:0005D48F
  1388 0001:0005D498  1391 0001:0005D49C  1394 0001:0005D4A0  1395 0001:0005D4A2
  1456 0001:0005D4AC  1457 0001:0005D4B8  1458 0001:0005D4BF  1459 0001:0005D4C9
  1460 0001:0005D4CB  1461 0001:0005D4DA  1462 0001:0005D4DE  1463 0001:0005D4E8
  1464 0001:0005D4EF  1511 0001:0005D4F4  1512 0001:0005D500  1513 0001:0005D507
  1514 0001:0005D511  1515 0001:0005D513  1516 0001:0005D522  1517 0001:0005D526
  1518 0001:0005D530  1519 0001:0005D537  1595 0001:0005D53C  1596 0001:0005D549
  1597 0001:0005D559  1598 0001:0005D55D  1599 0001:0005D56A  1600 0001:0005D56E
  1601 0001:0005D57C  1602 0001:0005D580  1604 0001:0005D588  1607 0001:0005D58C
  1610 0001:0005D590  1611 0001:0005D592  1902 0001:0005D598  1903 0001:0005D59B
  1904 0001:0005D5A2  1926 0001:0005D5A4  1927 0001:0005D5A7  1928 0001:0005D5B5
  1947 0001:0005D5B8  1948 0001:0005D5BB  1949 0001:0005D5C9  1971 0001:0005D5CC
  1972 0001:0005D5CF  1973 0001:0005D5DD  1992 0001:0005D5E0  1993 0001:0005D5E3
  1994 0001:0005D5F1  2076 0001:0005D5F4  2077 0001:0005D600  2078 0001:0005D610
  2082 0001:0005D618  2083 0001:0005D624  2084 0001:0005D637  2085 0001:0005D63E
  2104 0001:0005D648  2105 0001:0005D654  2106 0001:0005D664  2107 0001:0005D66B
  2123 0001:0005D670  2124 0001:0005D67C  2125 0001:0005D68C  2126 0001:0005D693
  2145 0001:0005D698  2146 0001:0005D6A4  2147 0001:0005D6B4  2148 0001:0005D6BB
  2164 0001:0005D6C0  2165 0001:0005D6CC  2166 0001:0005D6DC  2167 0001:0005D6E3
  2206 0001:0005D6E8  2207 0001:0005D6F1  2208 0001:0005D6FA  2209 0001:0005D707
  2210 0001:0005D70E  2214 0001:0005D714  2215 0001:0005D71A  2216 0001:0005D720
  2217 0001:0005D727  2221 0001:0005D72C  2222 0001:0005D732  2223 0001:0005D738
  2224 0001:0005D73F  2233 0001:0005D744  2234 0001:0005D751  2235 0001:0005D761
  2236 0001:0005D765  2237 0001:0005D772  2238 0001:0005D776  2239 0001:0005D784
  2240 0001:0005D788  2242 0001:0005D790  2245 0001:0005D794  2248 0001:0005D798
  2249 0001:0005D79A  2363 0001:0005D7A0  2364 0001:0005D7AD  2365 0001:0005D7BD
  2366 0001:0005D7C1  2367 0001:0005D7CE  2368 0001:0005D7D2  2369 0001:0005D7E0
  2370 0001:0005D7E4  2372 0001:0005D7EC  2375 0001:0005D7F0  2378 0001:0005D7F4
  2379 0001:0005D7F6  2493 0001:0005D7FC  2494 0001:0005D800  2495 0001:0005D810
  2496 0001:0005D814  2498 0001:0005D81E  2499 0001:0005D828  2868 0001:0005D830
  2869 0001:0005D83A  2870 0001:0005D846  2872 0001:0005D85D  2873 0001:0005D868
  2874 0001:0005D871  2875 0001:0005D87C  2876 0001:0005D885  2877 0001:0005D890
  2880 0001:0005D899  2881 0001:0005D8A4  2882 0001:0005D8AD  2883 0001:0005D8B8
  2886 0001:0005D8C1  2887 0001:0005D8CC  2888 0001:0005D8D5  2889 0001:0005D8E0
  2892 0001:0005D8E9  2893 0001:0005D8F4  2894 0001:0005D8FD  2895 0001:0005D908
  2898 0001:0005D911  2899 0001:0005D91C  2900 0001:0005D925  2901 0001:0005D930
  2902 0001:0005D939  2903 0001:0005D944  2906 0001:0005D94D  2907 0001:0005D958
  2908 0001:0005D961  2909 0001:0005D96C  2910 0001:0005D975  2911 0001:0005D980
  2914 0001:0005D989  2915 0001:0005D994  2918 0001:0005D99D  2919 0001:0005D9B9
  2920 0001:0005D9DC  2919 0001:0005D9F2  2923 0001:0005D9F5  2924 0001:0005D9FC
  2931 0001:0005DA04  2932 0001:0005DA12  2933 0001:0005DA23  2935 0001:0005DA3E
  2936 0001:0005DA4F  2937 0001:0005DA59  2938 0001:0005DA6A  2939 0001:0005DA74
  2940 0001:0005DA91  2941 0001:0005DAA1  2942 0001:0005DAAD  2944 0001:0005DAB7
  2939 0001:0005DAB8  2947 0001:0005DABB  2948 0001:0005DACC  2949 0001:0005DAD6
  2950 0001:0005DAF3  2951 0001:0005DB03  2952 0001:0005DB0F  2954 0001:0005DB19
  2949 0001:0005DB1A  2957 0001:0005DB1D  2958 0001:0005DB2E  2959 0001:0005DB38
  2960 0001:0005DB55  2961 0001:0005DB65  2962 0001:0005DB71  2964 0001:0005DB7B
  2959 0001:0005DB7C  2967 0001:0005DB7F  2968 0001:0005DB90  2969 0001:0005DB9A
  2970 0001:0005DBB7  2971 0001:0005DBC7  2972 0001:0005DBD3  2974 0001:0005DBDD
  2969 0001:0005DBDE  2977 0001:0005DBE1  2978 0001:0005DBF2  2979 0001:0005DBFC
  2980 0001:0005DC0D  2981 0001:0005DC17  2982 0001:0005DC34  2983 0001:0005DC44
  2984 0001:0005DC50  2986 0001:0005DC5A  2981 0001:0005DC5B  2989 0001:0005DC5E
  2990 0001:0005DC6F  2991 0001:0005DC79  2992 0001:0005DC8A  2993 0001:0005DC94
  2994 0001:0005DCB1  2995 0001:0005DCC1  2996 0001:0005DCCD  2998 0001:0005DCD7
  2993 0001:0005DCD8  3001 0001:0005DCDB  3002 0001:0005DCF8  3003 0001:0005DD08
  3004 0001:0005DD14  3006 0001:0005DD1E  3001 0001:0005DD1F  3009 0001:0005DD22
  3010 0001:0005DD42  3011 0001:0005DD67  3010 0001:0005DD7E  3013 0001:0005DD81
  3014 0001:0005DD89  3019 0001:0005DD90  3020 0001:0005DD9C  3022 0001:0005DDA4
  3023 0001:0005DDB3  3024 0001:0005DDC2  3027 0001:0005DDD1  3028 0001:0005DDE0
  3031 0001:0005DDEF  3032 0001:0005DDFE  3035 0001:0005DE0D  3036 0001:0005DE1C
  3039 0001:0005DE2B  3040 0001:0005DE3A  3041 0001:0005DE49  3044 0001:0005DE58
  3045 0001:0005DE67  3046 0001:0005DE76  3049 0001:0005DE85  3052 0001:0005DE94
  3054 0001:0005DE9F  3058 0001:0005DEA4  3059 0001:0005DEB0  3061 0001:0005DEB8
  3062 0001:0005DEC7  3063 0001:0005DED6  3066 0001:0005DEE5  3067 0001:0005DEF4
  3070 0001:0005DF03  3071 0001:0005DF12  3074 0001:0005DF21  3075 0001:0005DF30
  3078 0001:0005DF3F  3079 0001:0005DF4E  3080 0001:0005DF5D  3083 0001:0005DF6C
  3084 0001:0005DF7B  3085 0001:0005DF8A  3088 0001:0005DF99  3091 0001:0005DFA8
  3093 0001:0005DFB3  3231 0001:0005DFB8  3232 0001:0005DFC6  3233 0001:0005DFD2
  3234 0001:0005DFD6  3235 0001:0005DFDC  3236 0001:0005DFEA  3237 0001:0005DFF7
  3238 0001:0005E001  3240 0001:0005E00F  3242 0001:0005E015  3243 0001:0005E017
  3249 0001:0005E020  3250 0001:0005E02E  3251 0001:0005E040  3252 0001:0005E044
  3253 0001:0005E04A  3254 0001:0005E058  3255 0001:0005E065  3256 0001:0005E06F
  3258 0001:0005E082  3260 0001:0005E088  3261 0001:0005E08A  3270 0001:0005E094
  3271 0001:0005E0A4  3272 0001:0005E0B6  3273 0001:0005E0C5  3274 0001:0005E0C9
  3275 0001:0005E0CF  3277 0001:0005E0E0  3278 0001:0005E0EF  3279 0001:0005E0F3
  3280 0001:0005E0F9  3282 0001:0005E10B  3283 0001:0005E11B  3284 0001:0005E11F
  3287 0001:0005E122  3288 0001:0005E124  3295 0001:0005E12C  3296 0001:0005E13C
  3297 0001:0005E14E  3298 0001:0005E15D  3299 0001:0005E161  3300 0001:0005E167
  3302 0001:0005E178  3303 0001:0005E187  3304 0001:0005E18B  3305 0001:0005E191
  3307 0001:0005E1A3  3308 0001:0005E1B3  3309 0001:0005E1B7  3310 0001:0005E1BD
  3312 0001:0005E1C5  3316 0001:0005E1CB  3317 0001:0005E1CD  3323 0001:0005E1D4
  3324 0001:0005E1D7  3325 0001:0005E1DC  3329 0001:0005E1E0  3330 0001:0005E1E3
  3331 0001:0005E1E8  3340 0001:0005E1EC  3341 0001:0005E20F  3342 0001:0005E224
  3343 0001:0005E239  3344 0001:0005E259  3345 0001:0005E26A  3346 0001:0005E270
  3347 0001:0005E280  3348 0001:0005E299  3350 0001:0005E2D1  3356 0001:0005E2DC
  3357 0001:0005E2EF  3358 0001:0005E301  3359 0001:0005E314  3360 0001:0005E32A
  3361 0001:0005E336  3364 0001:0005E356  3365 0001:0005E363  3375 0001:0005E36C
  3376 0001:0005E36F  3377 0001:0005E37D  3378 0001:0005E389  3379 0001:0005E393
  3383 0001:0005E398  3384 0001:0005E3B0  3385 0001:0005E3B9  3387 0001:0005E3DC
  3389 0001:0005E3FE  3391 0001:0005E416  3394 0001:0005E43C  3396 0001:0005E449
  3397 0001:0005E44F  3398 0001:0005E47B  3399 0001:0005E483  3400 0001:0005E4A3
  3401 0001:0005E4C3  3402 0001:0005E4E3  3403 0001:0005E4F5  3404 0001:0005E501
  3405 0001:0005E50A  3409 0001:0005E523  3410 0001:0005E530  3414 0001:0005E55C
  3415 0001:0005E56C  3416 0001:0005E576  3419 0001:0005E59E  3424 0001:0005E5A4
  3425 0001:0005E5AA  3426 0001:0005E5B1  3427 0001:0005E5B8  3433 0001:0005E5BC
  3434 0001:0005E5C9  3435 0001:0005E5D0  3436 0001:0005E5E5  3437 0001:0005E5E9
  3439 0001:0005E605  3440 0001:0005E60C  3441 0001:0005E615  3442 0001:0005E61E
  3445 0001:0005E628  3452 0001:0005E630  3453 0001:0005E637  3454 0001:0005E64C
  3455 0001:0005E653  3456 0001:0005E667  3457 0001:0005E67B  3461 0001:0005E684
  3462 0001:0005E68D  3464 0001:0005E696  3465 0001:0005E69D  3467 0001:0005E6A6
  3471 0001:0005E6AC  3472 0001:0005E6B2  3473 0001:0005E6B9  3480 0001:0005E6CB
  3482 0001:0005E6E1  3488 0001:0005E6E4  3489 0001:0005E6F0  3490 0001:0005E6F7
  3492 0001:0005E70D  3493 0001:0005E722  3495 0001:0005E737  3496 0001:0005E740
  3497 0001:0005E749  3498 0001:0005E756  3499 0001:0005E762  3500 0001:0005E76C
  3501 0001:0005E776  3503 0001:0005E780  3504 0001:0005E78A  3505 0001:0005E794
  3508 0001:0005E79B  3512 0001:0005E7A4  3513 0001:0005E7A8  3514 0001:0005E7AF
  3516 0001:0005E7C5  3517 0001:0005E7DC  3521 0001:0005E7E0  3522 0001:0005E7E4
  3523 0001:0005E7EB  3525 0001:0005E801  3526 0001:0005E818  3530 0001:0005E81C
  3531 0001:0005E822  3533 0001:0005E838  3534 0001:0005E84D  3535 0001:0005E854
  3540 0001:0005E858  3541 0001:0005E85E  3542 0001:0005E865  3543 0001:0005E879
  3544 0001:0005E88D  3550 0001:0005E890  3551 0001:0005E89A  3552 0001:0005E8A3
  3553 0001:0005E8C1  3554 0001:0005E8DF  3555 0001:0005E8FD  3556 0001:0005E91B
  3557 0001:0005E939  3558 0001:0005E957  3559 0001:0005E975  3560 0001:0005E993
  3561 0001:0005E9B0  3562 0001:0005E9CD  3563 0001:0005E9EA  3564 0001:0005EA07
  3565 0001:0005EA24  3566 0001:0005EA41  3567 0001:0005EA5E  3568 0001:0005EA7B
  3569 0001:0005EA98  3570 0001:0005EAB5  3571 0001:0005EAD2  3572 0001:0005EAEF
  3573 0001:0005EB06  3574 0001:0005EB1D  3575 0001:0005EB34  3576 0001:0005EB4B
  3577 0001:0005EB62  3578 0001:0005EB7F  3579 0001:0005EB9C  3580 0001:0005EBB9
  3588 0001:0005EE14  3589 0001:0005EE1C  3590 0001:0005EE23  3591 0001:0005EE30
  3593 0001:0005EE36  3594 0001:0005EE50  3593 0001:0005EE63  3595 0001:0005EE66
  3596 0001:0005EE71  3599 0001:0005EE79  3600 0001:0005EE89  3601 0001:0005EE90
  3611 0001:0005EE98  3612 0001:0005EEA6  3614 0001:0005EEB3  3615 0001:0005EEBF
  3616 0001:0005EECE  3617 0001:0005EEDD  3618 0001:0005EEEB  3619 0001:0005EF04
  3620 0001:0005EF0E  3621 0001:0005EF12  3613 0001:0005EF1E  3623 0001:0005EF32
  3630 0001:0005EF3C  3631 0001:0005EF4B  3632 0001:0005EF72  3633 0001:0005EF91
  3634 0001:0005EFA9  3635 0001:0005EFAD  3636 0001:0005EFBD  3637 0001:0005EFCD
  3639 0001:0005EFDC  3632 0001:0005EFE0  3640 0001:0005EFE5  3631 0001:0005EFE9
  3641 0001:0005EFEF  3645 0001:0005EFF8  3646 0001:0005F001  3647 0001:0005F016
  3651 0001:0005F01C  3652 0001:0005F025  3653 0001:0005F03A  3657 0001:0005F040
  3658 0001:0005F049  3659 0001:0005F05E  3663 0001:0005F064  3664 0001:0005F06D
  3665 0001:0005F082  3669 0001:0005F088  3670 0001:0005F08B  3671 0001:0005F0A7
  3675 0001:0005F0AC  3676 0001:0005F0AF  3677 0001:0005F0CB  3681 0001:0005F0D0
  3682 0001:0005F0D3  3683 0001:0005F0EF  3687 0001:0005F0F4  3688 0001:0005F0F7
  3689 0001:0005F113  3699 0001:0005F118  3700 0001:0005F126  3701 0001:0005F12A
  3703 0001:0005F137  3704 0001:0005F143  3705 0001:0005F152  3706 0001:0005F160
  3707 0001:0005F170  3708 0001:0005F174  3709 0001:0005F178  3702 0001:0005F184
  3711 0001:0005F19B  3718 0001:0005F1A4  3719 0001:0005F1B0  3720 0001:0005F1BE
  3721 0001:0005F1CC  3722 0001:0005F1D0  3723 0001:0005F1E0  3725 0001:0005F1EF
  3719 0001:0005F1F3  3726 0001:0005F1F8  3736 0001:0005F204  3737 0001:0005F212
  3739 0001:0005F21F  3740 0001:0005F22B  3741 0001:0005F23A  3742 0001:0005F249
  3743 0001:0005F257  3744 0001:0005F270  3745 0001:0005F27A  3746 0001:0005F27E
  3738 0001:0005F28A  3748 0001:0005F29E  3755 0001:0005F2A8  3756 0001:0005F2B7
  3757 0001:0005F2DE  3758 0001:0005F2FD  3759 0001:0005F315  3760 0001:0005F319
  3761 0001:0005F329  3762 0001:0005F339  3764 0001:0005F348  3757 0001:0005F34C
  3765 0001:0005F351  3756 0001:0005F355  3766 0001:0005F35B  3770 0001:0005F364
  3771 0001:0005F36D  3772 0001:0005F382  3776 0001:0005F388  3777 0001:0005F391
  3778 0001:0005F3A6  3782 0001:0005F3AC  3783 0001:0005F3AF  3784 0001:0005F3CB
  3788 0001:0005F3D0  3789 0001:0005F3D3  3790 0001:0005F3EF  3800 0001:0005F3F4
  3801 0001:0005F402  3802 0001:0005F406  3804 0001:0005F413  3805 0001:0005F41F
  3806 0001:0005F42E  3807 0001:0005F43C  3808 0001:0005F44C  3809 0001:0005F450
  3810 0001:0005F454  3803 0001:0005F460  3812 0001:0005F477  3819 0001:0005F480
  3820 0001:0005F48C  3821 0001:0005F49A  3822 0001:0005F4A8  3823 0001:0005F4AC
  3824 0001:0005F4BC  3826 0001:0005F4CB  3820 0001:0005F4CF  3827 0001:0005F4D4
  3837 0001:0005F4E0  3838 0001:0005F500  3840 0001:0005F509  3841 0001:0005F512
  3842 0001:0005F51D  3843 0001:0005F52F  3844 0001:0005F542  3845 0001:0005F549
  3846 0001:0005F54D  3839 0001:0005F552  3848 0001:0005F55D  3849 0001:0005F581
  3856 0001:0005F588  3857 0001:0005F597  3858 0001:0005F59F  3859 0001:0005F5C2
  3860 0001:0005F5DD  3861 0001:0005F5F4  3862 0001:0005F5F8  3863 0001:0005F604
  3864 0001:0005F60F  3866 0001:0005F619  3859 0001:0005F61A  3867 0001:0005F61F
  3858 0001:0005F623  3868 0001:0005F629  3869 0001:0005F631  3878 0001:0005F638
  3879 0001:0005F658  3881 0001:0005F661  3882 0001:0005F66A  3883 0001:0005F675
  3884 0001:0005F687  3885 0001:0005F69A  3886 0001:0005F6A1  3887 0001:0005F6A5
  3880 0001:0005F6AA  3889 0001:0005F6B5  3890 0001:0005F6D9  3897 0001:0005F6E0
  3898 0001:0005F702  3899 0001:0005F70A  3900 0001:0005F729  3901 0001:0005F744
  3902 0001:0005F756  3903 0001:0005F75C  3904 0001:0005F767  3905 0001:0005F772
  3907 0001:0005F77D  3900 0001:0005F77E  3908 0001:0005F783  3899 0001:0005F784
  3909 0001:0005F78A  3910 0001:0005F7AF  3919 0001:0005F7B8  3920 0001:0005F7C6
  3921 0001:0005F7E8  3922 0001:0005F802  3923 0001:0005F80F  3924 0001:0005F813
  3926 0001:0005F825  3927 0001:0005F834  3921 0001:0005F835  3927 0001:0005F838
  3920 0001:0005F83B  3928 0001:0005F840  3954 0001:0005F848  3955 0001:0005F851
  3956 0001:0005F866  3960 0001:0005F86C  3961 0001:0005F875  3962 0001:0005F88A
  3966 0001:0005F890  3967 0001:0005F899  3968 0001:0005F8AE  3972 0001:0005F8B4
  3973 0001:0005F8BD  3974 0001:0005F8D2  3978 0001:0005F8D8  3979 0001:0005F8E1
  3980 0001:0005F8F6  3984 0001:0005F8FC  3985 0001:0005F8FF  3986 0001:0005F92C
  3990 0001:0005F930  3991 0001:0005F933  3992 0001:0005F94F  3996 0001:0005F954
  3997 0001:0005F957  3998 0001:0005F973  4002 0001:0005F978  4003 0001:0005F97B
  4004 0001:0005F997  4008 0001:0005F99C  4009 0001:0005F99F  4010 0001:0005F9BB
  4020 0001:0005F9C0  4021 0001:0005F9D1  4022 0001:0005F9D5  4024 0001:0005F9DE
  4025 0001:0005F9E7  4026 0001:0005F9F0  4027 0001:0005F9FA  4028 0001:0005FA09
  4029 0001:0005FA0D  4030 0001:0005FA11  4023 0001:0005FA16  4032 0001:0005FA21
  4033 0001:0005FA2B  4040 0001:0005FA34  4041 0001:0005FA45  4042 0001:0005FA4D
  4043 0001:0005FA5D  4044 0001:0005FA68  4045 0001:0005FA79  4046 0001:0005FA83
  4047 0001:0005FA8F  4048 0001:0005FA9A  4050 0001:0005FAA7  4043 0001:0005FAA8
  4051 0001:0005FAAD  4042 0001:0005FAB1  4052 0001:0005FAB7  4053 0001:0005FABF
  4060 0001:0005FAC8  4061 0001:0005FAD8  4062 0001:0005FADC  4064 0001:0005FAE5
  4065 0001:0005FAEE  4066 0001:0005FAF8  4067 0001:0005FB06  4068 0001:0005FB0A
  4069 0001:0005FB0E  4063 0001:0005FB13  4071 0001:0005FB1E  4072 0001:0005FB28
  4079 0001:0005FB30  4080 0001:0005FB41  4081 0001:0005FB49  4082 0001:0005FB53
  4083 0001:0005FB60  4084 0001:0005FB6A  4085 0001:0005FB75  4087 0001:0005FB82
  4081 0001:0005FB83  4088 0001:0005FB88  4089 0001:0005FB90  4108 0001:0005FB9C
  4109 0001:0005FBBB  4110 0001:0005FBC5  4111 0001:0005FBD5  4113 0001:0005FBE9
  4115 0001:0005FBFB  4117 0001:0005FC05  4118 0001:0005FC2E  4124 0001:0005FC34
  4126 0001:0005FC54  4127 0001:0005FC62  4128 0001:0005FC72  4129 0001:0005FC82
  4130 0001:0005FC96  4131 0001:0005FCA6  4132 0001:0005FCB0  4133 0001:0005FCBC
  4134 0001:0005FCE5  4141 0001:0005FCEC  4142 0001:0005FCF5  4143 0001:0005FD0A
  4147 0001:0005FD10  4148 0001:0005FD19  4149 0001:0005FD2E  4153 0001:0005FD34
  4154 0001:0005FD3D  4155 0001:0005FD52  4159 0001:0005FD58  4160 0001:0005FD61
  4161 0001:0005FD76  4165 0001:0005FD7C  4166 0001:0005FD85  4167 0001:0005FD9A
  4171 0001:0005FDA0  4172 0001:0005FDA3  4173 0001:0005FDD0  4177 0001:0005FDD4
  4178 0001:0005FDD7  4179 0001:0005FDF3  4183 0001:0005FDF8  4184 0001:0005FDFB
  4185 0001:0005FE17  4189 0001:0005FE1C  4190 0001:0005FE1F  4191 0001:0005FE3B
  4195 0001:0005FE40  4196 0001:0005FE43  4197 0001:0005FE5F  4207 0001:0005FE64
  4208 0001:0005FE75  4209 0001:0005FE79  4211 0001:0005FE82  4212 0001:0005FE8B
  4213 0001:0005FE94  4214 0001:0005FE9E  4215 0001:0005FEAD  4216 0001:0005FEB1
  4217 0001:0005FEB5  4210 0001:0005FEBA  4219 0001:0005FEC5  4220 0001:0005FECF
  4227 0001:0005FED8  4228 0001:0005FEE9  4229 0001:0005FEF1  4230 0001:0005FF01
  4231 0001:0005FF0C  4232 0001:0005FF1D  4233 0001:0005FF27  4234 0001:0005FF33
  4235 0001:0005FF3E  4237 0001:0005FF4B  4230 0001:0005FF4C  4238 0001:0005FF51
  4229 0001:0005FF55  4239 0001:0005FF5B  4240 0001:0005FF63  4247 0001:0005FF6C
  4248 0001:0005FF7C  4249 0001:0005FF80  4251 0001:0005FF89  4252 0001:0005FF92
  4253 0001:0005FF9C  4254 0001:0005FFAA  4255 0001:0005FFAE  4256 0001:0005FFB2
  4250 0001:0005FFB7  4258 0001:0005FFC2  4259 0001:0005FFCC  4266 0001:0005FFD4
  4267 0001:0005FFE5  4268 0001:0005FFED  4269 0001:0005FFF7  4270 0001:00060004
  4271 0001:0006000E  4272 0001:00060019  4274 0001:00060026  4268 0001:00060027
  4275 0001:0006002C  4276 0001:00060034  4284 0001:00060040  4285 0001:00060049
  4287 0001:00060059  4288 0001:0006006B  4292 0001:00060070  4293 0001:0006007A
  4294 0001:00060088  4295 0001:00060098  4296 0001:000600A8  4297 0001:000600B4
  4307 0001:000600BC  4308 0001:000600C8  4310 0001:000600D1  4311 0001:000600DA
  4312 0001:000600E3  4309 0001:00060101  4314 0001:0006010C  4315 0001:00060113
  4319 0001:0006011C  4320 0001:0006011F  4321 0001:00060126  4325 0001:00060128
  4326 0001:0006012B  4327 0001:00060132  4331 0001:00060134  4332 0001:00060137
  4333 0001:0006013E  4337 0001:00060140  4338 0001:00060143  4339 0001:0006014A
  4346 0001:0006014C  4347 0001:0006015A  4349 0001:00060166  4350 0001:0006016F
  4351 0001:00060182  4352 0001:0006019E  4353 0001:000601BA  4354 0001:000601D6
  4348 0001:000601F0  4357 0001:000601FF  4358 0001:00060206  4367 0001:0006020C
  4368 0001:00060217  4370 0001:00060220  4371 0001:0006022B  4372 0001:00060236
  4373 0001:00060242  4374 0001:0006024B  4375 0001:00060261  4376 0001:00060268
  4377 0001:0006026C  4369 0001:00060278  4379 0001:00060283  4380 0001:0006028A
  4384 0001:00060290  4385 0001:00060299  4386 0001:000602AE  4390 0001:000602B4
  4391 0001:000602BD  4392 0001:000602D2  4399 0001:000602D8  4400 0001:000602E7
  4401 0001:000602EF  4402 0001:00060312  4403 0001:0006032D  4404 0001:00060344
  4405 0001:00060348  4406 0001:00060354  4407 0001:0006035F  4409 0001:00060369
  4402 0001:0006036A  4410 0001:0006036F  4401 0001:00060373  4411 0001:00060379
  4412 0001:00060381  4416 0001:00060388  4417 0001:0006038B  4418 0001:000603A7
  4422 0001:000603AC  4423 0001:000603AF  4424 0001:000603CB  4434 0001:000603D0
  4435 0001:000603DE  4436 0001:000603E2  4438 0001:000603EB  4439 0001:000603F4
  4440 0001:00060400  4441 0001:00060409  4442 0001:00060418  4443 0001:0006041C
  4444 0001:00060420  4437 0001:0006042C  4446 0001:00060437  4447 0001:00060441
  4454 0001:00060448  4455 0001:00060454  4456 0001:0006045C  4457 0001:00060466
  4458 0001:00060473  4459 0001:00060477  4460 0001:00060482  4462 0001:0006048C
  4456 0001:0006048D  4463 0001:00060492  4464 0001:0006049A  4931 0001:000604A4
  4933 0001:000604C3  4934 0001:000604F1  4935 0001:000604F5  4936 0001:00060523
  4938 0001:00060527  4939 0001:0006054D  4943 0001:00060558  4945 0001:00060577
  4946 0001:000605A5  4947 0001:000605A9  4948 0001:000605D7  4950 0001:000605DB
  4951 0001:00060601  5034 0001:0006060C  5036 0001:00060631  5042 0001:00060634
  5043 0001:00060643  5044 0001:00060648  5046 0001:0006064D  5047 0001:00060662
  5048 0001:00060670  5050 0001:0006067A  5051 0001:00060689  5056 0001:00060690
  5057 0001:000606A2  5060 0001:000606D6  5061 0001:000606E0  5062 0001:000606EA
  5063 0001:000606F2  5065 0001:000606FC  5066 0001:0006070A  5067 0001:00060710
  5073 0001:0006071B  5074 0001:00060725  5075 0001:0006072F  5076 0001:00060737
  5078 0001:00060741  5079 0001:0006074F  5080 0001:00060755  5086 0001:00060760
  5087 0001:0006076A  5088 0001:00060774  5089 0001:00060786  5091 0001:00060790
  5092 0001:0006079E  5093 0001:000607A4  5099 0001:000607AF  5100 0001:000607B9
  5101 0001:000607C3  5102 0001:000607D5  5104 0001:000607DF  5105 0001:000607ED
  5106 0001:000607F3  5112 0001:000607FE  5113 0001:00060808  5114 0001:00060812
  5115 0001:0006081A  5117 0001:00060824  5118 0001:00060832  5119 0001:00060838
  5125 0001:00060843  5126 0001:0006084D  5127 0001:00060857  5128 0001:0006085F
  5130 0001:00060869  5131 0001:00060877  5132 0001:0006087D  5138 0001:00060888
  5139 0001:00060892  5140 0001:0006089C  5141 0001:000608AE  5143 0001:000608B8
  5144 0001:000608C2  5145 0001:000608C8  5151 0001:000608D0  5152 0001:000608DA
  5153 0001:000608E4  5154 0001:000608F6  5156 0001:00060900  5157 0001:0006090A
  5158 0001:00060910  5163 0001:00060916  5164 0001:00060928  5167 0001:0006093B
  5169 0001:00060954  5171 0001:00060969  5173 0001:00060988  5175 0001:000609A7
  5181 0001:000609D0  5184 0001:00060A04  5185 0001:00060A11  5186 0001:00060A23
  5191 0001:00060A30  5192 0001:00060A3D  5193 0001:00060A4F  5198 0001:00060A66
  5199 0001:00060A73  5200 0001:00060A7B  5205 0001:00060A88  5206 0001:00060A95
  5207 0001:00060A9D  5212 0001:00060AB4  5213 0001:00060AC1  5214 0001:00060AC9
  5219 0001:00060ADD  5220 0001:00060AEA  5221 0001:00060AF2  5226 0001:00060AFC
  5227 0001:00060B09  5228 0001:00060B1B  5233 0001:00060B2F  5234 0001:00060B3C
  5235 0001:00060B4E  5241 0001:00060B56  5245 0001:00060B60  5246 0001:00060B69
  5247 0001:00060B80  5248 0001:00060B8B  5251 0001:00060B94  5256 0001:00060BA1
  5257 0001:00060BAA  5265 0001:00060BB0  5266 0001:00060BC1  5267 0001:00060BCE
  5268 0001:00060BE0  5269 0001:00060BEC  5271 0001:00060BF5  5272 0001:00060BFB
  5273 0001:00060C2C  5274 0001:00060C32  5275 0001:00060C38  5276 0001:00060C3E
  5277 0001:00060C44  5278 0001:00060C4A  5279 0001:00060C50  5280 0001:00060C56
  5284 0001:00060C5A  5285 0001:00060C72  5286 0001:00060C7C  5287 0001:00060C88
  5288 0001:00060C8B  5289 0001:00060C8E  5291 0001:00060C90  5292 0001:00060C9E
  5293 0001:00060CB2  5295 0001:00060CBA  5296 0001:00060CC7  5301 0001:00060CD0
  5302 0001:00060CD6  5303 0001:00060CDD  5304 0001:00060CF5  5308 0001:00060CF8
  5309 0001:00060CFE  5310 0001:00060D05  5311 0001:00060D1D  5377 0001:00060D20
  5378 0001:00060D40  5379 0001:00060D62  5380 0001:00060D84  5382 0001:00060D94
  5384 0001:00060DCD  5385 0001:00060DF2  5389 0001:00060E17  5390 0001:00060E2A
  5392 0001:00060E3F  5394 0001:00060E6B  5395 0001:00060E95  5396 0001:00060EA7
  5397 0001:00060EBA  5400 0001:00060EC7  5401 0001:00060EDA  5402 0001:00060EE6
  5404 0001:00060EF8  5405 0001:00060F1F  5407 0001:00060F2D  5408 0001:00060F4A
  5412 0001:00060F5A  5414 0001:00060F96  5415 0001:00060FC5  5416 0001:00060FD9
  5417 0001:00060FF4  5393 0001:00060FFE  5419 0001:00061035  5423 0001:0006105C
  5424 0001:0006107D  5425 0001:00061089  5428 0001:00061090  5429 0001:000610A5
  5432 0001:000610CF  5433 0001:000610E5  6278 0001:00061268  6279 0001:00061272
  6280 0001:00061284  6279 0001:00061293  6281 0001:00061298  6282 0001:000612A4
  6283 0001:000612B8  6287 0001:000612C0  6288 0001:000612C9  6289 0001:000612D7
  6290 0001:000612E0  6294 0001:000612E4  6295 0001:000612EB  6296 0001:000612F4
  6297 0001:00061304  6330 0001:000613A0  6331 0001:000613AC  6332 0001:000613C3
  6333 0001:000613D3  6334 0001:000613F0  6331 0001:000613F1  6335 0001:000613F6
  6370 0001:00061400  6371 0001:00061403  6373 0001:00061419  6380 0001:00061420
  6381 0001:00061423  6382 0001:00061435  6383 0001:00061441  6384 0001:0006144D
  6385 0001:00061459  6386 0001:00061476  6392 0001:0006147C  6393 0001:00061486
  6394 0001:00061494  6395 0001:000614A8  6398 0001:000614D3  6394 0001:000614DD
  6399 0001:000614E2  6526 0001:000614E8  6532 0001:000614FD  6534 0001:0006150A
  6538 0001:0006152D  6540 0001:00061534  6539 0001:0006153D  6541 0001:00061545
  6542 0001:0006154C  6543 0001:00061550  6545 0001:00061557  6544 0001:00061560
  6546 0001:00061568  6547 0001:0006156F  6548 0001:00061573  6550 0001:0006157A
  6549 0001:00061583  6551 0001:0006158B  6552 0001:00061592  6553 0001:00061596
  6554 0001:000615A0  6555 0001:000615A7  6556 0001:000615B1  6557 0001:000615B8
  6593 0001:000615C0  6596 0001:0006165C  6573 0001:00061660  6576 0001:00061670
  6577 0001:00061681  6578 0001:00061692  6579 0001:000616A3  6580 0001:000616B4
  6581 0001:000616C5  6582 0001:000616E4  6583 0001:000616EE  6592 0001:000616FF

Line numbers for ml980726(ml980726.pas) segment .text

    43 0001:00063698    44 0001:000636BB    45 0001:000636E0    46 0001:000636EF
    47 0001:00063708    48 0001:00063721    49 0001:0006372B    48 0001:00063735
    50 0001:00063738    52 0001:00063742    53 0001:00063749    52 0001:00063750
    54 0001:00063753    50 0001:00063756    55 0001:00063759    56 0001:0006375E
    57 0001:0006376B    60 0001:00063778    62 0001:0006379B    63 0001:000637A6
    58 0001:000637B0    65 0001:000637BC    66 0001:000637C9    68 0001:000637D5
    70 0001:000637DB    71 0001:000637E4    73 0001:0006383B    75 0001:00063847
    78 0001:0006384E    82 0001:00063868    84 0001:00063890    85 0001:000638AC
    86 0001:000638C6    88 0001:00063906    91 0001:00063913    80 0001:0006391E
    93 0001:0006392E    94 0001:00063939    78 0001:0006393F    95 0001:00063944
    97 0001:0006394A    98 0001:0006395A    99 0001:0006396D   100 0001:00063980
   101 0001:00063993   102 0001:000639A6   103 0001:000639B9   104 0001:000639CC
   105 0001:000639DF   106 0001:000639F2   107 0001:00063A05   108 0001:00063A18
   109 0001:00063A2B   110 0001:00063A3E   111 0001:00063A51   113 0001:00063A67
   115 0001:00063A70   116 0001:00063A77   117 0001:00063A81   116 0001:00063A94
   118 0001:00063A99   119 0001:00063ABB   120 0001:00063AD0   121 0001:00063AE5
   122 0001:00063AFA   123 0001:00063B0F   124 0001:00063B1E   125 0001:00063B2D
   126 0001:00063B47   128 0001:00063B71   130 0001:00063B95   131 0001:00063BAF
   132 0001:00063BBE   128 0001:00063BC2   133 0001:00063BC7   134 0001:00063BF5
   135 0001:00063BFC   126 0001:00063C01   136 0001:00063C0A   138 0001:00063C16
   139 0001:00063C1E   138 0001:00063C30   140 0001:00063C33   141 0001:00063C61
   142 0001:00063C68   136 0001:00063C6D   145 0001:00063CA7   148 0001:00063E34
   149 0001:00063E3A   150 0001:00063E45   151 0001:00063E4C   153 0001:00063EA7

Line numbers for totbgt(C:\fls\dev\22bgt\totbgt.dpr) segment .text

     9 0001:00064020    10 0001:00064030    11 0001:0006403C    12 0001:00064054
    13 0001:00064060

Program entry point at 0001:00064020
