
 Start         Length     Name                   Class
 0001:00000000 000923F8H .text                   CODE
 0002:00000000 00001D6CH .data                   DATA
 0002:00001D6C 000008E9H .bss                    BSS


Detailed map of segments

 0001:00000000 00004AE0 C=CODE     S=.text    G=(none)   M=System   ACBP=A9
 0001:00004AE0 00000170 C=CODE     S=.text    G=(none)   M=SysInit  ACBP=A9
 0001:00004C50 00000AC4 C=CODE     S=.text    G=(none)   M=Windows  ACBP=A9
 0001:00005714 00000038 C=CODE     S=.text    G=(none)   M=Messages ACBP=A9
 0001:0000574C 0000704E C=CODE     S=.text    G=(none)   M=SysUtils ACBP=A9
 0001:0000C79C 00000050 C=CODE     S=.text    G=(none)   M=ActiveX  ACBP=A9
 0001:0000C7EC 000003C8 C=CODE     S=.text    G=(none)   M=Consts   ACBP=A9
 0001:0000CBB4 00000680 C=CODE     S=.text    G=(none)   M=TypInfo  ACBP=A9
 0001:0000D234 000074AF C=CODE     S=.text    G=(none)   M=Classes  ACBP=A9
 0001:000146E4 00008A7A C=CODE     S=.text    G=(none)   M=Graphics ACBP=A9
 0001:0001D160 000000FC C=CODE     S=.text    G=(none)   M=Commctrl ACBP=A9
 0001:0001D25C 00000038 C=CODE     S=.text    G=(none)   M=Imm      ACBP=A9
 0001:0001D294 00000038 C=CODE     S=.text    G=(none)   M=WinSpool ACBP=A9
 0001:0001D2CC 00000044 C=CODE     S=.text    G=(none)   M=Printers ACBP=A9
 0001:0001D310 00008EEF C=CODE     S=.text    G=(none)   M=Controls ACBP=A9
 0001:00026200 000021EA C=CODE     S=.text    G=(none)   M=Menus    ACBP=A9
 0001:000283EC 000082E7 C=CODE     S=.text    G=(none)   M=Forms    ACBP=A9
 0001:000306D4 00000038 C=CODE     S=.text    G=(none)   M=CommDlg  ACBP=A9
 0001:0003070C 00005208 C=CODE     S=.text    G=(none)   M=StdCtrls ACBP=A9
 0001:00035914 00001F7C C=CODE     S=.text    G=(none)   M=ExtCtrls ACBP=A9
 0001:00037890 00000038 C=CODE     S=.text    G=(none)   M=Dlgs     ACBP=A9
 0001:000378C8 000009C5 C=CODE     S=.text    G=(none)   M=Dialogs  ACBP=A9
 0001:00038290 00000238 C=CODE     S=.text    G=(none)   M=DbConsts ACBP=A9
 0001:000384C8 00000630 C=CODE     S=.text    G=(none)   M=Clipbrd  ACBP=A9
 0001:00038AF8 000029D8 C=CODE     S=.text    G=(none)   M=Mask     ACBP=A9
 0001:0003B4D0 0000A58C C=CODE     S=.text    G=(none)   M=Db       ACBP=A9
 0001:00045A5C 00003C2C C=CODE     S=.text    G=(none)   M=Bde      ACBP=A9
 0001:00049688 000019C0 C=CODE     S=.text    G=(none)   M=DBCommon ACBP=A9
 0001:0004B048 00000068 C=CODE     S=.text    G=(none)   M=SMIntf   ACBP=A9
 0001:0004B0B0 00000068 C=CODE     S=.text    G=(none)   M=StdVCL   ACBP=A9
 0001:0004B118 000004AC C=CODE     S=.text    G=(none)   M=DBPWDlg  ACBP=A9
 0001:0004B5C4 00000338 C=CODE     S=.text    G=(none)   M=DBLogDlg ACBP=A9
 0001:0004B8FC 00000130 C=CODE     S=.text    G=(none)   M=BdeConst ACBP=A9
 0001:0004BA2C 0000EDF4 C=CODE     S=.text    G=(none)   M=DBTables ACBP=A9
 0001:0005A820 0000082C C=CODE     S=.text    G=(none)   M=Registry ACBP=A9
 0001:0005B04C 00000138 C=CODE     S=.text    G=(none)   M=DsgnIntf ACBP=A9
 0001:0005B184 00000274 C=CODE     S=.text    G=(none)   M=wwStacks ACBP=A9
 0001:0005B3F8 000000E8 C=CODE     S=.text    G=(none)   M=Wwtypes  ACBP=A9
 0001:0005B4E0 000004CC C=CODE     S=.text    G=(none)   M=Wwstr    ACBP=A9
 0001:0005B9AC 0000256C C=CODE     S=.text    G=(none)   M=wwfilter ACBP=A9
 0001:0005DF18 00000808 C=CODE     S=.text    G=(none)   M=wwSystem ACBP=A9
 0001:0005E720 00002BA9 C=CODE     S=.text    G=(none)   M=Buttons  ACBP=A9
 0001:000612CC 00000038 C=CODE     S=.text    G=(none)   M=RichEdit ACBP=A9
 0001:00061304 00000038 C=CODE     S=.text    G=(none)   M=ToolWin  ACBP=A9
 0001:0006133C 00000050 C=CODE     S=.text    G=(none)   M=ComStrs  ACBP=A9
 0001:0006138C 00002B84 C=CODE     S=.text    G=(none)   M=ComCtrls ACBP=A9
 0001:00063F10 00001AB4 C=CODE     S=.text    G=(none)   M=DBCtrls  ACBP=A9
 0001:000659C4 000009D4 C=CODE     S=.text    G=(none)   M=Wwquery  ACBP=A9
 0001:00066398 0000102C C=CODE     S=.text    G=(none)   M=Wwqbe    ACBP=A9
 0001:000673C4 00000EF8 C=CODE     S=.text    G=(none)   M=Wwpict   ACBP=A9
 0001:000682BC 00005A3B C=CODE     S=.text    G=(none)   M=Wwintl   ACBP=A9
 0001:0006DCF8 000000D8 C=CODE     S=.text    G=(none)   M=Wwdatsrc ACBP=A9
 0001:0006DDD0 000008EC C=CODE     S=.text    G=(none)   M=wwstorep ACBP=A9
 0001:0006E6BC 000032FC C=CODE     S=.text    G=(none)   M=Wwcommon ACBP=A9
 0001:000719B8 00000F04 C=CODE     S=.text    G=(none)   M=Wwlocate ACBP=A9
 0001:000728BC 00001D80 C=CODE     S=.text    G=(none)   M=Wwtable  ACBP=A9
 0001:0007463C 00005D14 C=CODE     S=.text    G=(none)   M=Grids    ACBP=A9
 0001:0007A350 00000038 C=CODE     S=.text    G=(none)   M=wwdblook ACBP=A9
 0001:0007A388 00000B08 C=CODE     S=.text    G=(none)   M=Wwdotdot ACBP=A9
 0001:0007AE90 0000282C C=CODE     S=.text    G=(none)   M=Wwdbcomb ACBP=A9
 0001:0007D6BC 00000AF8 C=CODE     S=.text    G=(none)   M=Wwmemo   ACBP=A9
 0001:0007E1B4 000041C4 C=CODE     S=.text    G=(none)   M=Wwdbgrid ACBP=A9
 0001:00082378 00004088 C=CODE     S=.text    G=(none)   M=wwdbedit ACBP=A9
 0001:00086400 00007D34 C=CODE     S=.text    G=(none)   M=Wwdbigrd ACBP=A9
 0001:0008E134 00002D40 C=CODE     S=.text    G=(none)   M=Dbcgrids ACBP=A9
 0001:00090E74 0000049C C=CODE     S=.text    G=(none)   M=Unit1    ACBP=A9
 0001:00091310 00000970 C=CODE     S=.text    G=(none)   M=Unit3    ACBP=A9
 0001:00091C80 00000460 C=CODE     S=.text    G=(none)   M=Unit2    ACBP=A9
 0001:000920E0 00000318 C=CODE     S=.text    G=(none)   M=conto    ACBP=A9
 0002:00000000 000000F6 C=DATA     S=.data    G=DGROUP   M=System   ACBP=A9
 0002:000000F8 00000010 C=DATA     S=.data    G=DGROUP   M=SysInit  ACBP=A9
 0002:00000108 00000238 C=DATA     S=.data    G=DGROUP   M=SysUtils ACBP=A9
 0002:00000340 00000004 C=DATA     S=.data    G=DGROUP   M=TypInfo  ACBP=A9
 0002:00000344 00000018 C=DATA     S=.data    G=DGROUP   M=Classes  ACBP=A9
 0002:0000035C 000002B4 C=DATA     S=.data    G=DGROUP   M=Graphics ACBP=A9
 0002:00000610 00000004 C=DATA     S=.data    G=DGROUP   M=Printers ACBP=A9
 0002:00000614 000000CC C=DATA     S=.data    G=DGROUP   M=Controls ACBP=A9
 0002:000006E0 000000A6 C=DATA     S=.data    G=DGROUP   M=Menus    ACBP=A9
 0002:00000788 000000FC C=DATA     S=.data    G=DGROUP   M=Forms    ACBP=A9
 0002:00000884 000000B0 C=DATA     S=.data    G=DGROUP   M=StdCtrls ACBP=A9
 0002:00000934 0000000E C=DATA     S=.data    G=DGROUP   M=ExtCtrls ACBP=A9
 0002:00000944 000000B0 C=DATA     S=.data    G=DGROUP   M=Dialogs  ACBP=A9
 0002:000009F4 00000009 C=DATA     S=.data    G=DGROUP   M=Mask     ACBP=A9
 0002:00000A00 00000077 C=DATA     S=.data    G=DGROUP   M=Db       ACBP=A9
 0002:00000A78 00000C20 C=DATA     S=.data    G=DGROUP   M=Bde      ACBP=A9
 0002:00001698 000000B0 C=DATA     S=.data    G=DGROUP   M=DBCommon ACBP=A9
 0002:00001748 00000010 C=DATA     S=.data    G=DGROUP   M=SMIntf   ACBP=A9
 0002:00001758 00000058 C=DATA     S=.data    G=DGROUP   M=DBTables ACBP=A9
 0002:000017B0 00000008 C=DATA     S=.data    G=DGROUP   M=Registry ACBP=A9
 0002:000017B8 0000003C C=DATA     S=.data    G=DGROUP   M=DsgnIntf ACBP=A9
 0002:000017F4 00000038 C=DATA     S=.data    G=DGROUP   M=wwSystem ACBP=A9
 0002:0000182C 000000A2 C=DATA     S=.data    G=DGROUP   M=Buttons  ACBP=A9
 0002:000018D0 00000031 C=DATA     S=.data    G=DGROUP   M=ComCtrls ACBP=A9
 0002:00001904 00000050 C=DATA     S=.data    G=DGROUP   M=DBCtrls  ACBP=A9
 0002:00001954 0000000C C=DATA     S=.data    G=DGROUP   M=Wwdbigrd ACBP=A9
 0002:00002000 000004AC C=BSS      S=.bss     G=DGROUP   M=System   ACBP=A9
 0002:000024AC 00000018 C=BSS      S=.bss     G=DGROUP   M=SysInit  ACBP=A9
 0002:000024C4 00000004 C=BSS      S=.bss     G=DGROUP   M=Windows  ACBP=A9
 0002:000024C8 00000004 C=BSS      S=.bss     G=DGROUP   M=Messages ACBP=A9
 0002:000024CC 00000110 C=BSS      S=.bss     G=DGROUP   M=SysUtils ACBP=A9
 0002:000025DC 00000004 C=BSS      S=.bss     G=DGROUP   M=ActiveX  ACBP=A9
 0002:000025E0 00000004 C=BSS      S=.bss     G=DGROUP   M=Consts   ACBP=A9
 0002:000025E4 00000004 C=BSS      S=.bss     G=DGROUP   M=TypInfo  ACBP=A9
 0002:000025E8 00000018 C=BSS      S=.bss     G=DGROUP   M=Classes  ACBP=A9
 0002:00002600 0000005C C=BSS      S=.bss     G=DGROUP   M=Graphics ACBP=A9
 0002:0000265C 00000004 C=BSS      S=.bss     G=DGROUP   M=Commctrl ACBP=A9
 0002:00002660 00000004 C=BSS      S=.bss     G=DGROUP   M=Imm      ACBP=A9
 0002:00002664 00000004 C=BSS      S=.bss     G=DGROUP   M=WinSpool ACBP=A9
 0002:00002668 00000004 C=BSS      S=.bss     G=DGROUP   M=Printers ACBP=A9
 0002:0000266C 00000070 C=BSS      S=.bss     G=DGROUP   M=Controls ACBP=A9
 0002:000026DC 0000000C C=BSS      S=.bss     G=DGROUP   M=Menus    ACBP=A9
 0002:000026E8 00000040 C=BSS      S=.bss     G=DGROUP   M=Forms    ACBP=A9
 0002:00002728 00000004 C=BSS      S=.bss     G=DGROUP   M=CommDlg  ACBP=A9
 0002:0000272C 00000004 C=BSS      S=.bss     G=DGROUP   M=StdCtrls ACBP=A9
 0002:00002730 00000004 C=BSS      S=.bss     G=DGROUP   M=ExtCtrls ACBP=A9
 0002:00002734 00000004 C=BSS      S=.bss     G=DGROUP   M=Dlgs     ACBP=A9
 0002:00002738 0000000C C=BSS      S=.bss     G=DGROUP   M=Dialogs  ACBP=A9
 0002:00002744 00000004 C=BSS      S=.bss     G=DGROUP   M=DbConsts ACBP=A9
 0002:00002748 0000000C C=BSS      S=.bss     G=DGROUP   M=Clipbrd  ACBP=A9
 0002:00002754 00000004 C=BSS      S=.bss     G=DGROUP   M=Mask     ACBP=A9
 0002:00002758 00000004 C=BSS      S=.bss     G=DGROUP   M=Db       ACBP=A9
 0002:0000275C 0000001C C=BSS      S=.bss     G=DGROUP   M=Bde      ACBP=A9
 0002:00002778 00000004 C=BSS      S=.bss     G=DGROUP   M=DBCommon ACBP=A9
 0002:0000277C 00000004 C=BSS      S=.bss     G=DGROUP   M=SMIntf   ACBP=A9
 0002:00002780 00000004 C=BSS      S=.bss     G=DGROUP   M=StdVCL   ACBP=A9
 0002:00002784 00000004 C=BSS      S=.bss     G=DGROUP   M=DBPWDlg  ACBP=A9
 0002:00002788 00000004 C=BSS      S=.bss     G=DGROUP   M=DBLogDlg ACBP=A9
 0002:0000278C 00000004 C=BSS      S=.bss     G=DGROUP   M=BdeConst ACBP=A9
 0002:00002790 0000002C C=BSS      S=.bss     G=DGROUP   M=DBTables ACBP=A9
 0002:000027BC 00000004 C=BSS      S=.bss     G=DGROUP   M=Registry ACBP=A9
 0002:000027C0 00000004 C=BSS      S=.bss     G=DGROUP   M=DsgnIntf ACBP=A9
 0002:000027C4 00000004 C=BSS      S=.bss     G=DGROUP   M=wwStacks ACBP=A9
 0002:000027C8 00000004 C=BSS      S=.bss     G=DGROUP   M=Wwtypes  ACBP=A9
 0002:000027CC 00000004 C=BSS      S=.bss     G=DGROUP   M=Wwstr    ACBP=A9
 0002:000027D0 0000003C C=BSS      S=.bss     G=DGROUP   M=wwfilter ACBP=A9
 0002:0000280C 00000004 C=BSS      S=.bss     G=DGROUP   M=wwSystem ACBP=A9
 0002:00002810 00000030 C=BSS      S=.bss     G=DGROUP   M=Buttons  ACBP=A9
 0002:00002840 00000004 C=BSS      S=.bss     G=DGROUP   M=RichEdit ACBP=A9
 0002:00002844 00000004 C=BSS      S=.bss     G=DGROUP   M=ToolWin  ACBP=A9
 0002:00002848 00000004 C=BSS      S=.bss     G=DGROUP   M=ComStrs  ACBP=A9
 0002:0000284C 00000008 C=BSS      S=.bss     G=DGROUP   M=ComCtrls ACBP=A9
 0002:00002854 00000004 C=BSS      S=.bss     G=DGROUP   M=DBCtrls  ACBP=A9
 0002:00002858 00000004 C=BSS      S=.bss     G=DGROUP   M=Wwquery  ACBP=A9
 0002:0000285C 00000004 C=BSS      S=.bss     G=DGROUP   M=Wwqbe    ACBP=A9
 0002:00002860 00000004 C=BSS      S=.bss     G=DGROUP   M=Wwpict   ACBP=A9
 0002:00002864 00000008 C=BSS      S=.bss     G=DGROUP   M=Wwintl   ACBP=A9
 0002:0000286C 00000004 C=BSS      S=.bss     G=DGROUP   M=Wwdatsrc ACBP=A9
 0002:00002870 00000004 C=BSS      S=.bss     G=DGROUP   M=wwstorep ACBP=A9
 0002:00002874 00000004 C=BSS      S=.bss     G=DGROUP   M=Wwcommon ACBP=A9
 0002:00002878 00000004 C=BSS      S=.bss     G=DGROUP   M=Wwlocate ACBP=A9
 0002:0000287C 00000004 C=BSS      S=.bss     G=DGROUP   M=Wwtable  ACBP=A9
 0002:00002880 00000004 C=BSS      S=.bss     G=DGROUP   M=Grids    ACBP=A9
 0002:00002884 00000004 C=BSS      S=.bss     G=DGROUP   M=wwdblook ACBP=A9
 0002:00002888 00000004 C=BSS      S=.bss     G=DGROUP   M=Wwdotdot ACBP=A9
 0002:0000288C 00000004 C=BSS      S=.bss     G=DGROUP   M=Wwdbcomb ACBP=A9
 0002:00002890 00000004 C=BSS      S=.bss     G=DGROUP   M=Wwmemo   ACBP=A9
 0002:00002894 00000004 C=BSS      S=.bss     G=DGROUP   M=Wwdbgrid ACBP=A9
 0002:00002898 00000004 C=BSS      S=.bss     G=DGROUP   M=wwdbedit ACBP=A9
 0002:0000289C 00000018 C=BSS      S=.bss     G=DGROUP   M=Wwdbigrd ACBP=A9
 0002:000028B4 00000004 C=BSS      S=.bss     G=DGROUP   M=Dbcgrids ACBP=A9
 0002:000028B8 0000000C C=BSS      S=.bss     G=DGROUP   M=Unit1    ACBP=A9
 0002:000028C4 0000000C C=BSS      S=.bss     G=DGROUP   M=Unit3    ACBP=A9
 0002:000028D0 00000018 C=BSS      S=.bss     G=DGROUP   M=Unit2    ACBP=A9


  Address         Publics by Name

 0001:0000BB08       .
 0002:000025E0       .1
 0002:000028CC       .1
 0002:000025D0       .1
 0002:000028E4       .1
 0002:000028B4       .1
 0002:000028C0       .1
 0001:0000191C       @AbstractError
 0001:000044F5       @Append
 0001:00001EFC       @AsClass
 0001:000043CE       @Assign
 0001:00001A38       @AStrCmp
 0001:00001F48       @CallDynaInst
 0001:00002064       @ClassCreate
 0001:000020A0       @ClassDestroy
 0001:00004470       @Close
 0001:00001864       @Copy
 0001:00003218       @Dispose
 0001:00002448       @DoneExcept
 0001:00004978       @Ext2Real
 0001:00001AA8       @FillChar
 0001:000031F8       @Finalize
 0001:00003138       @FinalizeArray
 0001:0000310C       @FinalizeRecord
 0001:00001F60       @FindDynaInst
 0001:00004449       @Flush
 0001:00001788       @FreeMem
 0001:00001770       @GetMem
 0001:00004B5C       @GetTls
 0001:000028E4       @Halt
 0001:000027CC       @Halt0
 0001:000021A4       @HandleAnyException
 0001:000023A0       @HandleFinally
 0001:00002268       @HandleOnException
 0001:00004BF4       @InitExe
 0001:00003100       @Initialize
 0001:00003070       @InitializeArray
 0001:00003044       @InitializeRecord
 0001:00002728       @InitImports
 0001:0000270C       @InitResStringImports
 0001:000026F0       @InitResStrings
 0001:00004160       @IntfAddRef
 0001:0000412C       @IntfClear
 0001:00004144       @IntfCopy
 0001:00001D58       @IntOver
 0001:00001EE4       @IsClass
 0001:00002D3C       @LStrAddRef
 0001:00002920       @LStrArrayClr
 0001:00002950       @LStrAsg
 0001:00002B90       @LStrCat
 0001:00002BD4       @LStrCat3
 0001:00002C48       @LStrCatN
 0001:000028FC       @LStrClr
 0001:00002C98       @LStrCmp
 0001:00002D8C       @LStrCopy
 0001:00002DCC       @LStrDelete
 0001:00002B38       @LStrFromArray
 0001:00002AB0       @LStrFromChar
 0001:00002AC0       @LStrFromPChar
 0001:000029E0       @LStrFromPCharLen
 0001:00002AF0       @LStrFromPWChar
 0001:00002A10       @LStrFromPWCharLen
 0001:00002B2C       @LStrFromString
 0001:00002B50       @LStrFromWStr
 0001:00002E14       @LStrInsert
 0001:00002994       @LStrLAsg
 0001:00002B88       @LStrLen
 0001:00002E70       @LStrPos
 0001:00002EB8       @LStrSetLength
 0001:00002D4C       @LStrToPChar
 0001:00002B64       @LStrToString
 0001:00003204       @New
 0001:000029BC       @NewAnsiString
 0001:00004674       @Pow10
 0001:000019B4       @PStrCmp
 0001:00001968       @PStrCpy
 0001:00001938       @PStrNCat
 0001:00001984       @PStrNCpy
 0001:000023F4       @RaiseAgain
 0001:000023D8       @RaiseExcept
 0001:00004948       @Real2Ext
 0001:000017A0       @ReallocMem
 0001:000044E7       @ResetText
 0001:000044EE       @RewritText
 0001:000018F8       @ROUND
 0001:000028F0       @RunError
 0001:00001C18       @SetEq
 0001:00001C2C       @SetExpand
 0001:000026C0       @StartExe
 0001:00001B28       @Str0Long
 0001:00001AC8       @StrLong
 0001:00001900       @TRUNC
 0001:00002478       @TryFinallyExit
 0001:00001B34       @ValLong
 0001:000039B8       @VarAddRef
 0001:00003C00       @VarArrayGet
 0001:00003C84       @VarArrayPut
 0001:000034EC       @VarCast
 0001:00003380       @VarClear
 0001:000039B0       @VarClr
 0001:000038B4       @VarCmp
 0001:000033B4       @VarCopy
 0001:0000378C       @VarFromBool
 0001:000037C4       @VarFromCurr
 0001:00003774       @VarFromInt
 0001:000037DC       @VarFromLStr
 0001:000037AC       @VarFromReal
 0001:0000364C       @VarToBool
 0001:000036DC       @VarToCurr
 0001:000035E0       @VarToInt
 0001:00003738       @VarToLStr
 0001:00003680       @VarToReal
 0001:000045DB       @Write0Char
 0001:00004644       @Write0CString
 0001:000045A0       @Write0String
 0001:0000462D       @WriteChar
 0001:00004648       @WriteCString
 0001:000045C7       @WriteLn
 0001:000045AA       @WriteString
 0001:00002F3C       @WStrArrayClr
 0001:00002F60       @WStrAsg
 0001:00002F24       @WStrClr
 0001:00003034       @WStrFromLStr
 0001:00002F84       @WStrFromPCharLen
 0001:00003018       @WStrFromPWCharLen
 0001:00001BF4       @_CLenToPasStr
 0001:00001BDC       @_CToPasStr
 0001:00004424       @_Flush
 0001:00001834       @_IOTest
 0001:0000A54C       Abort
 0001:0000A8FC       AbstractErrorHandler
 0002:00002018       AbstractErrorProc
 0002:00000178       AccessMode
 0001:000050D8       ActivateKeyboardLayout
 0001:0000C7E4       ActiveX
 0001:000062F4       AddExitProc
 0001:00003F80       AddModuleUnloadProc
 0001:000066EC       AdjustLineBreaks
 0001:000050E0       AdjustWindowRectEx
 0001:0000B84C       AL1
 0002:00000328       AL1s
 0001:0000B85C       AL2
 0002:00000334       AL2s
 0001:00029BA0       AllocateHWnd
 0001:00006288       AllocMem
 0002:00002400       AllocMemCount
 0002:00002404       AllocMemSize
 0001:0000B8C8       ALR
 0001:0000B874       ALV
 0001:000065C8       AnsiCompareText
 0001:00006AF0       AnsiLastChar
 0001:000050E8       AnsiLower
 0001:00006588       AnsiLowerCase
 0001:0000B288       AnsiLowerCaseFileName
 0001:0000B22C       AnsiPos
 0001:00006618       AnsiStrLIComp
 0001:0000B460       AnsiStrPos
 0001:0000B550       AnsiStrRScan
 0001:0000B5A4       AnsiStrScan
 0001:0004DD98       AnsiToNative
 0001:0004DE2C       AnsiToNativeBuf
 0001:00006548       AnsiUpperCase
 0001:0000B374       AnsiUpperCaseFileName
 0001:00008044       AppendChars
 0001:00008498       AppendFormat
 0001:000080D8       AppendNumber
 0001:000080B4       AppendString
 0002:000026E8       Application
 0001:0000A840       AssertErrorHandler
 0002:00002014       AssertErrorProc
 0001:00049680       Bde
 0001:0004BA24       BdeConst
 0001:0000E7BC       BeginGlobalLoading
 0001:000050F0       BeginPaint
 0001:00004E90       BitBlt
 0002:000016F4       BlobTypeMap
 0001:0000E248       Bounds
 0001:0003DE48       BuffersEqual
 0001:000612A4       Buttons
 0001:0000AFDC       ByteToCharIndex
 0001:0000AFA0       ByteToCharLen
 0001:0000AF30       ByteType
 0001:0000AEA4       ByteTypeTest
 0001:000050F8       CallNextHookEx
 0001:0000B7DC       CallTerminateProcs
 0001:00005100       CallWindowProc
 0001:0001EE24       CancelDrag
 0002:0000274A       CF_COMPONENT
 0002:00002748       CF_PICTURE
 0001:00006BB8       ChangeFileExt
 0001:00005108       CharLowerBuff
 0001:00015E70       CharsetToIdent
 0001:0000B128       CharToByteIndex
 0001:0000B1B8       CharToByteLen
 0001:00005110       CharToOem
 0001:00005118       CharToOemBuff
 0001:00005120       CharUpperBuff
 0001:0004E090       Check
 0001:00005128       CheckMenuItem
 0001:0001466C       Classes
 0002:00001748       Class_SMClient
 0001:00005130       ClientToScreen
 0001:00038A3C       Clipboard
 0001:00038A9C       Clipbrd
 0001:00005138       CloseClipboard
 0001:00004C88       CloseHandle
 0002:00002028       CmdLine
 0002:00002024       CmdShow
 0001:0000C7AC       CoCreateInstance
 0001:0000C79C       CoInitialize
 0001:00015C68       ColorToIdent
 0001:00015C58       ColorToRGB
 0001:00063F08       ComCtrls
 0001:0001D254       Commctrl
 0001:00030704       CommDlg
 0001:000064D4       CompareMem
 0001:000064A4       CompareStr
 0001:00004C90       CompareString
 0001:000064F4       CompareText
 0001:00061384       ComStrs
 0001:0000CBAC       Consts
 0001:00092338       conto
 0001:000261DC       Controls
 0001:0000A2A8       ConvertAddr
 0001:000081EC       ConvertEraString
 0001:00006238       ConvertError
 0001:00006258       ConvertErrorFmt
 0001:00008378       ConvertYearString
 0001:00004E98       CopyEnhMetaFile
 0001:0001AFB0       CopyPalette
 0002:000028BC       cor
 0001:0000C7A4       CoUninitialize
 0001:0000B06C       CountChars
 0001:0000AA48       CreateAVObject
 0001:00004EA0       CreateBitmap
 0001:00004EA8       CreateBrushIndirect
 0001:00004EB0       CreateCompatibleBitmap
 0001:00004EB8       CreateCompatibleDC
 0001:00004EC8       CreateDIBitmap
 0001:00004EC0       CreateDIBSection
 0001:00004C98       CreateEvent
 0001:00004CA0       CreateFile
 0001:00004ED0       CreateFontIndirect
 0001:00004ED8       CreateHalftonePalette
 0001:00004EE0       CreateHatchBrush
 0001:00005140       CreateIcon
 0001:0000A6D0       CreateInOutError
 0001:00005148       CreateMenu
 0001:00037B4C       CreateMessageDialog
 0001:00004CA8       CreateMutexA
 0001:00004EE8       CreatePalette
 0001:00004EF0       CreatePenIndirect
 0001:00005150       CreatePopupMenu
 0002:00001758       CreateProviderProc
 0001:00004EF8       CreateRectRgn
 0001:00004F00       CreateSolidBrush
 0001:00004CB0       CreateThread
 0001:000056A8       CreateWindow
 0001:00005158       CreateWindowEx
 0002:00000614       CreationControl
 0002:00000788       Ctl3DBtnWndProc
 0002:00000790       Ctl3DCtlColorEx
 0002:0000078C       Ctl3DDlgFramePaint
 0002:000024D4       CurrencyDecimals
 0002:000024D0       CurrencyFormat
 0002:000024CC       CurrencyString
 0001:00008024       CurrentYear
 0001:000498C4       CurrToFMTBCD
 0001:00007678       CurrToStr
 0001:000076E4       CurrToStrF
 0001:0001E66C       CursorToIdent
 0001:0003DD68       DatabaseError
 0001:0003DD84       DatabaseErrorFmt
 0002:000016E0       DataTypeMap
 0001:00007FA4       Date
 0002:000024D5       DateSeparator
 0001:00008D00       DateTimeToStr
 0001:00008C54       DateTimeToString
 0001:00007958       DateTimeToTimeStamp
 0001:00008CC0       DateToStr
 0001:00007F6C       DayOfWeek
 0001:00045A54       Db
 0001:00090E6C       Dbcgrids
 0001:0004B040       DBCommon
 0001:000384C0       DbConsts
 0001:000659B0       DBCtrls
 0001:000480C6       DbiAcqPersistTableLock
 0001:000480D8       DbiAcqTableLock
 0001:000479D6       DbiActivateFilter
 0001:0004732E       DbiAddAlias
 0001:00047298       DbiAddDriver
 0001:000479E2       DbiAddFilter
 0001:00047EFE       DbiAddIndex
 0001:0004808A       DbiAddPassword
 0001:000475B0       DbiAnsiToNative
 0001:00047EA4       DbiAppendRecord
 0001:000473DC       DbiApplyDelayedUpdates
 0001:000479C4       DbiBatchMove
 0001:00047580       DbiBcdFromFloat
 0001:00047586       DbiBcdToFloat
 0001:00047256       DbiBeginConstraintLayer
 0001:000473E8       DbiBeginDelayedUpdates
 0001:00048114       DbiBeginLinkMode
 0001:000479B2       DbiBeginTran
 0001:00047DA8       DbiCfgAddRecord
 0001:00047DC0       DbiCfgBuildPath
 0001:00047D9C       DbiCfgDropRecord
 0001:00047D90       DbiCfgGetHelp
 0001:00047DB4       DbiCfgGetNextNode
 0001:00047DAE       DbiCfgGetRecord
 0001:00047D8A       DbiCfgMerge
 0001:00047DA2       DbiCfgModifyRecord
 0001:00047DBA       DbiCfgPosition
 0001:00047DC6       DbiCfgSave
 0001:00047D96       DbiCfgTranslate
 0001:00047E38       DbiCheckRefresh
 0001:0004723E       DbiCheckSQLExpression
 0001:00047F2E       DbiCloneCursor
 0001:000475CE       DbiCloseConfigFile
 0001:000481DA       DbiCloseCursor
 0001:000481F2       DbiCloseDatabase
 0001:00047532       DbiCloseFieldXlt
 0001:00047F58       DbiCloseIndex
 0001:00048090       DbiCloseSession
 0001:00047F34       DbiCompareBookMarks
 0001:00047E9E       DbiCompareKeys
 0001:00047F10       DbiCopyTable
 0001:00048126       DbiCreateInMemTable
 0001:00047F16       DbiCreateTable
 0001:00047E74       DbiCreateTempTable
 0001:00047F64       DbiDateDecode
 0001:00047F6A       DbiDateEncode
 0001:000479D0       DbiDeactivateFilter
 0001:00047D60       DbiDebugLayerOptions
 0001:00047316       DbiDeleteAlias
 0001:00047292       DbiDeleteDriver
 0001:00047EF8       DbiDeleteIndex
 0001:00048198       DbiDeleteRecord
 0001:00047F04       DbiDeleteTable
 0001:000495E9       DbiDLLExit
 0001:00047EE0       DbiDoRestructure
 0001:000472BC       DbiDRAdd
 0001:000473B2       DbiDRAddAttr
 0001:000473CA       DbiDRClose
 0001:0004734C       DbiDRCreate
 0001:00047310       DbiDRCreateEnumAttrDomain
 0001:000473B8       DbiDRCreateObjectType
 0001:000473A6       DbiDRCreateRelationType
 0001:00047346       DbiDRDelete
 0001:00047304       DbiDRDeleteEnumAttrDomain
 0001:0004739A       DbiDRDeleteObjectType
 0001:000473A0       DbiDRDeleteRelationType
 0001:000472B6       DbiDRDrop
 0001:000473AC       DbiDRDropAttr
 0001:000473BE       DbiDRExportToFile
 0001:0004737C       DbiDRGetAttrDescs
 0001:000473D6       DbiDRGetDesc
 0001:000472FE       DbiDRGetEnumAttrDomain
 0001:00047364       DbiDRGetObjID
 0001:00047382       DbiDRGetObjTypeInfo
 0001:000472C2       DbiDRGetRelatedObject
 0001:00047376       DbiDRGetRelTypeInfo
 0001:000473C4       DbiDRImportFromFile
 0001:00047352       DbiDRLoadDBObject
 0001:0004730A       DbiDRModifyEnumAttrDomain
 0001:000473D0       DbiDROpen
 0001:0004738E       DbiDROpenAttrTypeList
 0001:00047394       DbiDROpenObjectTypeList
 0001:00047370       DbiDROpenObjSet
 0001:0004736A       DbiDROpenRelSet
 0001:00047388       DbiDROpenRelTypeList
 0001:000479DC       DbiDropFilter
 0001:00048084       DbiDropPassword
 0001:0004735E       DbiDRSetToObjID
 0001:00047358       DbiDRSetToObjName
 0001:00047EBC       DbiEmptyTable
 0001:00047244       DbiEndConstraintLayer
 0001:000473E2       DbiEndDelayedUpdates
 0001:0004810E       DbiEndLinkMode
 0001:000479AC       DbiEndTran
 0001:0004E074       DbiError
 0001:00049569       DbiExit
 0001:00047F46       DbiExtractKey
 0001:000480A8       DbiForceRecordReread
 0001:000480B4       DbiForceReread
 0001:00047E68       DbiFormFullName
 0001:00047FF4       DbiFreeBlob
 0001:00048006       DbiGetBlob
 0001:00047FEE       DbiGetBlobHeading
 0001:0004800C       DbiGetBlobSize
 0001:00047F40       DbiGetBookMark
 0001:00047E32       DbiGetCallBack
 0001:00047A06       DbiGetClientInfo
 0001:00048096       DbiGetCurrSession
 0001:000480AE       DbiGetCursorForTable
 0001:000481E6       DbiGetCursorProps
 0001:00048054       DbiGetDatabaseDesc
 0001:00047D84       DbiGetDateFormat
 0001:000472DA       DbiGetDefaultRepository
 0001:0004817A       DbiGetDirectory
 0001:00048060       DbiGetDriverDesc
 0001:00047E5C       DbiGetErrorContext
 0001:00047E56       DbiGetErrorEntry
 0001:00047E8C       DbiGetErrorInfo
 0001:00047E62       DbiGetErrorString
 0001:0004795E       DbiGetExactRecordCount
 0001:00047F76       DbiGetField
 0001:000481E0       DbiGetFieldDescs
 0001:0004803C       DbiGetFieldTypeDesc
 0001:00047544       DbiGetFilterInfo
 0001:00047F4C       DbiGetIndexDesc
 0001:000475C2       DbiGetIndexDescs
 0001:00047EF2       DbiGetIndexForField
 0001:00047EEC       DbiGetIndexSeqNo
 0001:00048030       DbiGetIndexTypeDesc
 0001:000479EE       DbiGetLdName
 0001:0004798E       DbiGetLdNameFromDb
 0001:00047E80       DbiGetLdObj
 0001:000480FC       DbiGetLinkStatus
 0001:00047FC4       DbiGetNetUserName
 0001:000481C2       DbiGetNextRecord
 0001:00047D6C       DbiGetNumberFormat
 0001:0004759E       DbiGetObjFromName
 0001:00047550       DbiGetObjFromObj
 0001:000481BC       DbiGetPriorRecord
 0001:000475AA       DbiGetProp
 0001:000481B6       DbiGetRecord
 0001:000481AA       DbiGetRecordCount
 0001:00047E98       DbiGetRecordForKey
 0001:000481B0       DbiGetRelativeRecord
 0001:00047508       DbiGetRintDesc
 0001:00048192       DbiGetSeqNo
 0001:00047FCA       DbiGetSesInfo
 0001:00047FDC       DbiGetSysConfig
 0001:00047FD6       DbiGetSysInfo
 0001:00047FE2       DbiGetSysVersion
 0001:00048018       DbiGetTableOpenCount
 0001:00048048       DbiGetTableTypeDesc
 0001:00047D78       DbiGetTimeFormat
 0001:000479A6       DbiGetTranInfo
 0001:0004750E       DbiGetVchkDesc
 0001:0004728C       DbiImportODBC
 0001:00045A64       DbiInit
 0001:0004946E       DbiInitFn
 0001:00047F28       DbiInitRecord
 0001:000481A4       DbiInsertRecord
 0001:000480F6       DbiIsRecordLocked
 0001:000480F0       DbiIsTableLocked
 0001:000480EA       DbiIsTableShared
 0001:00048108       DbiLinkDetail
 0001:000480E4       DbiLinkDetailToExp
 0001:0004801E       DbiLoadDriver
 0001:000475BC       DbiMakePermanent
 0001:0004819E       DbiModifyRecord
 0001:000475B6       DbiNativeToAnsi
 0001:00048012       DbiOpenBlob
 0001:000475DA       DbiOpenCfgInfoList
 0001:000475D4       DbiOpenConfigFile
 0001:000481F8       DbiOpenDatabase
 0001:0004805A       DbiOpenDatabaseList
 0001:00048066       DbiOpenDriverList
 0001:00048144       DbiOpenFamilyList
 0001:0004815C       DbiOpenFieldList
 0001:00048042       DbiOpenFieldTypesList
 0001:00047520       DbiOpenFieldXlt
 0001:00048168       DbiOpenFileList
 0001:0004733A       DbiOpenFunctionArgList
 0001:00047340       DbiOpenFunctionList
 0001:00047F5E       DbiOpenIndex
 0001:00048162       DbiOpenIndexList
 0001:00048036       DbiOpenIndexTypesList
 0001:00048156       DbiOpenLdList
 0001:00048078       DbiOpenLockList
 0001:000472E6       DbiOpenRepositoryList
 0001:0004814A       DbiOpenRintList
 0001:0004812C       DbiOpenSecurityList
 0001:000472C8       DbiOpenSessionRepository
 0001:000474AE       DbiOpenSPList
 0001:000474A8       DbiOpenSPParamList
 0001:000481EC       DbiOpenTable
 0001:0004816E       DbiOpenTableList
 0001:0004804E       DbiOpenTableTypesList
 0001:0004807E       DbiOpenUserList
 0001:00048150       DbiOpenVchkList
 0001:00047EC2       DbiPackTable
 0001:00048000       DbiPutBlob
 0001:00047F70       DbiPutField
 0001:00047F88       DbiQAlloc
 0001:00047FA0       DbiQExec
 0001:00047FAC       DbiQExecDirect
 0001:00047496       DbiQExecProcDirect
 0001:00047F8E       DbiQFree
 0001:00047F82       DbiQGetBaseDescs
 0001:00047F94       DbiQInstantiateAnswer
 0001:00047FA6       DbiQPrepare
 0001:00047490       DbiQPrepareExt
 0001:000474A2       DbiQPrepareProc
 0001:00047F9A       DbiQSetParams
 0001:0004749C       DbiQSetProcParams
 0001:00048120       DbiReadBlock
 0001:00047EB6       DbiRegenIndex
 0001:00047EB0       DbiRegenIndexes
 0001:00047F7C       DbiRegisterCallBack
 0001:000480C0       DbiRelPersistTableLock
 0001:000480CC       DbiRelRecordLock
 0001:000480D2       DbiRelTableLock
 0001:00047F0A       DbiRenameTable
 0001:00048186       DbiResetRange
 0001:000480BA       DbiSaveChanges
 0001:000472B0       DbiSchemaCacheFlush
 0001:0004809C       DbiSetCurrSession
 0001:00047D7E       DbiSetDateFormat
 0001:000472E0       DbiSetDefaultRepository
 0001:00048174       DbiSetDirectory
 0001:00047E92       DbiSetFieldMap
 0001:0004806C       DbiSetLockRetry
 0001:00047D66       DbiSetNumberFormat
 0001:00048072       DbiSetPrivateDir
 0001:000475A4       DbiSetProp
 0001:0004818C       DbiSetRange
 0001:00047D72       DbiSetTimeFormat
 0001:000481D4       DbiSetToBegin
 0001:00047F3A       DbiSetToBookMark
 0001:000481C8       DbiSetToCursor
 0001:000481CE       DbiSetToEnd
 0001:00048180       DbiSetToKey
 0001:00047EE6       DbiSetToRecordNo
 0001:00047F22       DbiSetToSeqNo
 0001:000479A0       DbiSortTable
 0001:00047262       DbiSQLTextToCanEx
 0001:000480A2       DbiStartSession
 0001:00047F52       DbiSwitchToIndex
 0001:00047ED4       DbiTimeDecode
 0001:00047EDA       DbiTimeEncode
 0001:00047EC8       DbiTimeStampDecode
 0001:00047ECE       DbiTimeStampEncode
 0001:00047538       DbiTranslateField
 0001:0004753E       DbiTranslateRecordStructure
 0001:00047FFA       DbiTruncateBlob
 0001:000479FA       DbiUndeleteRecord
 0001:00048102       DbiUnlinkDetail
 0001:00047E7A       DbiUseIdleTime
 0001:00047526       DbiValidateProp
 0001:00047F1C       DbiVerifyField
 0001:0004811A       DbiWriteBlock
 0001:0004B8F4       DBLogDlg
 0001:0004B5BC       DBPWDlg
 0001:0005A7BC       DBTables
 0002:00000388       DDBsOnly
 0001:00029C5C       DeallocateHWnd
 0002:00000008       DebugHook
 0002:000024D3       DecimalSeparator
 0001:00007DA0       DecodeDate
 0001:00007B28       DecodeTime
 0002:00000000       Default8087CW
 0002:000009F4       DefaultBlank
 0002:00000A00       DefaultFieldClasses
 0002:0000035C       DefFontData
 0001:00005160       DefFrameProc
 0002:00000228       DefLongDayNames
 0002:000001DC       DefLongMonthNames
 0001:00005168       DefMDIChildProc
 0002:0000020C       DefShortDayNames
 0002:000001AC       DefShortMonthNames
 0001:00005170       DefWindowProc
 0001:00004CB8       DeleteCriticalSection
 0001:00004F08       DeleteDC
 0001:00004F10       DeleteEnhMetaFile
 0001:00005178       DeleteMenu
 0001:00004F18       DeleteObject
 0001:00005180       DestroyCursor
 0001:00005188       DestroyIcon
 0001:00005190       DestroyMenu
 0001:00005198       DestroyWindow
 0001:00038270       Dialogs
 0001:000295F4       DisableTaskWindows
 0001:000051A0       DispatchMessage
 0001:0003DE30       DisposeMem
 0001:00006384       DisposeStr
 0001:0000621C       DivMod
 0001:000378C0       Dlgs
 0001:00007BD4       DoEncodeDate
 0001:000079F0       DoEncodeTime
 0001:000062B0       DoExitProc
 0001:00029A98       DoneCtl3D
 0001:0000ADD4       DoneExceptions
 0001:000051A8       DrawEdge
 0001:000051B0       DrawFocusRect
 0001:000051B8       DrawFrameControl
 0001:000051C0       DrawIcon
 0001:000051C8       DrawMenuBar
 0001:000051D0       DrawText
 0001:0005B17C       DsgnIntf
 0001:00047250       DsProviderGetDataPacket
 0001:0004724A       DsResolver
 0001:0004E18C       EDBEngineError.Create
 0001:0004E464       EDBEngineError.Destroy
 0001:0004E4BC       EDBEngineError.GetError
 0001:000051D8       EmptyClipboard
 0002:00000108       EmptyStr
 0001:000051E0       EnableMenuItem
 0001:000296A4       EnableTaskWindows
 0001:000051E8       EnableWindow
 0001:00007D24       EncodeDate
 0001:00007AA8       EncodeTime
 0001:0000E814       EndGlobalLoading
 0001:000051F0       EndPaint
 0001:00004CC0       EnterCriticalSection
 0001:00004CC8       EnumCalendarInfoA
 0001:000051F8       EnumClipboardFormats
 0001:00009ABC       EnumEraNames
 0001:00009B18       EnumEraYearOffsets
 0001:00004F20       EnumFontFamiliesEx
 0001:00004F28       EnumFonts
 0001:00005200       EnumThreadWindows
 0001:00005208       EnumWindows
 0001:0000A670       EOutOfMemory.Destroy
 0001:0000A694       EOutOfMemory.FreeInstance
 0001:00005210       EqualRect
 0002:00002598       EraNames
 0001:00009050       EraToYear
 0002:000025B4       EraYearOffsets
 0001:00045A5C       ErrCat
 0002:00002038       ErrorAddr
 0001:0000A7D4       ErrorHandler
 0002:00000244       ErrorMap
 0002:00002004       ErrorProc
 0001:0000A278       ExceptAddr
 0002:00002008       ExceptClsProc
 0001:0000ACE8       ExceptHandler
 0001:0000A5A8       Exception.Create
 0001:0000A5E8       Exception.CreateFmt
 0002:00002010       ExceptionClass
 0001:0000A2B4       ExceptionErrorMessage
 0002:0000027C       ExceptMap
 0001:0000A248       ExceptObject
 0002:0000200C       ExceptObjProc
 0002:00002000       ExceptProc
 0001:00004F30       ExcludeClipRect
 0002:00002030       ExitCode
 0002:00002034       ExitProc
 0002:00000174       ExitProcList
 0001:00004F38       ExtCreatePen
 0001:00037888       ExtCtrls
 0001:0003DE5C       ExtractFieldName
 0001:00006CAC       ExtractFileExt
 0001:00006C60       ExtractFileName
 0001:00004F40       ExtTextOut
 0001:00004CD0       FatalAppExitA
 0001:00006ADC       FileClose
 0001:00006A0C       FileCreate
 0002:00002042       FileMode
 0001:000069BC       FileOpen
 0001:00006A40       FileRead
 0001:00006AB0       FileSeek
 0001:00006A78       FileWrite
 0001:00005218       FillRect
 0001:0006DCAC       Finalization
 0001:0006DD98       Finalization
 0001:0006E684       Finalization
 0001:00071980       Finalization
 0001:00072884       Finalization
 0001:00074604       Finalization
 0001:00038214       Finalization
 0001:00028340       Finalization
 0001:00038490       Finalization
 0001:0004B9F4       Finalization
 0001:0001CFAC       Finalization
 0001:00038A60       Finalization
 0001:0003B498       Finalization
 0001:0001D224       Finalization
 0001:0004B8C4       Finalization
 0001:0001D25C       Finalization
 0001:0001D294       Finalization
 0001:0001D2CC       Finalization
 0001:0004B58C       Finalization
 0001:0004B0E0       Finalization
 0001:0004B078       Finalization
 0001:0004B010       Finalization
 0001:00049650       Finalization
 0001:00037890       Finalization
 0001:00037858       Finalization
 0001:00045A24       Finalization
 0001:000358DC       Finalization
 0001:000306D4       Finalization
 0001:00030660       Finalization
 0001:000049C4       Finalization
 0001:00004C18       Finalization
 0001:0007A318       Finalization
 0001:0007A350       Finalization
 0001:0007AE58       Finalization
 0001:0005DECC       Finalization
 0001:0007D684       Finalization
 0001:0000D1FC       Finalization
 0001:000056DC       Finalization
 0001:0000CB7C       Finalization
 0001:00091C3C       Finalization
 0001:0007E17C       Finalization
 0001:00005714       Finalization
 0001:0000C7B4       Finalization
 0001:00082340       Finalization
 0001:0000C5F8       Finalization
 0001:000863C8       Finalization
 0001:0008E0FC       Finalization
 0001:00090E3C       Finalization
 0001:000912CC       Finalization
 0001:00026190       Finalization
 0001:00068284       Finalization
 0001:0006738C       Finalization
 0001:00066360       Finalization
 0001:00065904       Finalization
 0001:00063EA4       Finalization
 0001:000920A8       Finalization
 0001:00061354       Finalization
 0001:000920E0       Finalization
 0001:00061304       Finalization
 0001:000612CC       Finalization
 0001:0006126C       Finalization
 0001:000145F0       Finalization
 0001:0005A74C       Finalization
 0001:0005AFFC       Finalization
 0001:0005B10C       Finalization
 0001:0005B3C0       Finalization
 0001:0005B4A8       Finalization
 0001:0005B974       Finalization
 0001:0005E6E8       Finalization
 0001:0000E35C       FindClass
 0001:00003D98       FindClassHInstance
 0001:00004CD8       FindClose
 0001:0001E4A0       FindControl
 0001:0001EE70       FindDragTarget
 0001:00004CE0       FindFirstFileA
 0002:000025EC       FindGlobalComponent
 0001:00003D70       FindHInstance
 0001:00004CE8       FindResource
 0001:00003DA4       FindResourceHInstance
 0001:0001EE3C       FindVCLWindow
 0002:000028C8       fl
 0002:000016B0       FldSubTypeMap
 0002:00001698       FldTypeMap
 0001:0000C268       FloatToDecimal
 0001:00007648       FloatToStr
 0001:000076A8       FloatToStrF
 0001:0000BB2A       FloatToText
 0001:0000BE93       FloatToTextFmt
 0002:000001A0       FMSecsPerDay
 0001:0004982C       FMTBCDToCurr
 0001:0000752C       FmtStr
 0001:000297BC       ForegroundTask
 0002:000028B8       Form1
 0002:000028D0       Form2
 0002:000028C4       Form3
 0002:000001A8       Format
 0001:00007504       Format
 0001:00007128       FormatBuf
 0001:00007114       FormatClearStr
 0001:000077C0       FormatCurr
 0001:00007080       FormatError
 0002:00000198       FormatErrorStrs
 0001:00007720       FormatFloat
 0001:00039618       FormatMaskText
 0001:00004CF0       FormatMessage
 0001:000070F8       FormatVarToStr
 0001:000306B4       Forms
 0001:00004674       FPower10
 0001:000368CC       Frame3D
 0001:00005220       FrameRect
 0001:00004CF8       FreeLibrary
 0001:0001A49C       FreeMemoryContexts
 0001:00029B7C       FreeObjectInstance
 0001:00004D10       FreeResource
 0001:0000B818       FreeTerminateProcs
 0001:0000B964       GDAL
 0001:00005228       GetActiveWindow
 0001:00004F48       GetBitmapBits
 0001:00004F50       GetBrushOrgEx
 0001:00005230       GetCapture
 0001:0001E714       GetCaptureControl
 0001:0000E2F4       GetClass
 0001:00005238       GetClassInfo
 0001:00005240       GetClientRect
 0001:00005248       GetClipboardData
 0001:00004F58       GetClipBox
 0001:00008128       GetCount
 0001:00004D18       GetCPInfo
 0001:00004D20       GetCurrentDirectoryA
 0001:00004F60       GetCurrentPositionEx
 0001:00004D28       GetCurrentProcessId
 0001:00004D30       GetCurrentThreadId
 0001:00005250       GetCursor
 0001:00005258       GetCursorPos
 0001:00008174       GetDate
 0001:00004D38       GetDateFormat
 0001:00008F14       GetDateOrder
 0001:00005260       GetDC
 0001:00005268       GetDCEx
 0001:0001CEB0       GetDefFontCharSet
 0001:00005270       GetDesktopWindow
 0001:00004F78       GetDeviceCaps
 0001:00018798       GetDIB
 0001:00004F68       GetDIBColorTable
 0001:00004F70       GetDIBits
 0001:000186E0       GetDIBSizes
 0001:00005278       GetDoubleClickTime
 0001:00004F80       GetEnhMetaFileBits
 0001:00004F88       GetEnhMetaFileHeader
 0001:00004F90       GetEnhMetaFilePaletteEntries
 0001:0000CBC0       GetEnumValue
 0001:00009B84       GetEraNamesAndYearOffsets
 0001:00008FEC       GetEraYearOffset
 0001:0000AA1C       GetExceptionClass
 0001:0000AC18       GetExceptionObject
 0001:0003DDAC       GetFieldProperty
 0001:00005280       GetFocus
 0001:00005288       GetForegroundWindow
 0001:00009EE4       GetFormatSettings
 0001:00005290       GetIconInfo
 0001:000052A8       GetKeyboardLayout
 0001:000052B0       GetKeyboardLayoutList
 0001:000052B8       GetKeyboardState
 0001:00005298       GetKeyNameText
 0001:000052A0       GetKeyState
 0001:000052C0       GetLastActivePopup
 0001:00004D40       GetLastError
 0001:000098D4       GetLocaleChar
 0001:00004D50       GetLocaleInfo
 0001:00009870       GetLocaleStr
 0001:00004D48       GetLocalTime
 0001:0001E6D0       GetLongHint
 0001:000052C8       GetMenu
 0001:000052D0       GetMenuItemCount
 0001:000052D8       GetMenuState
 0001:000052E0       GetMenuString
 0001:000052E8       GetMessageTime
 0001:0000D184       GetMethodProp
 0001:00004D58       GetModuleFileName
 0001:00004D68       GetModuleHandle
 0001:00004D60       GetModuleHandleA
 0001:00009954       GetMonthDayNames
 0001:00004F98       GetNearestColor
 0001:00004FA0       GetObject
 0001:0000CCCC       GetOrdProp
 0001:00004FA8       GetPaletteEntries
 0001:000052F0       GetParent
 0001:00029DB4       GetParentForm
 0001:00004FB0       GetPixel
 0001:00004D70       GetProcAddress
 0001:000052F8       GetProp
 0001:0000CC0C       GetPropInfo
 0001:0000CC78       GetPropInfos
 0001:00005300       GetScrollInfo
 0001:00005308       GetScrollPos
 0001:00005310       GetScrollRange
 0001:00090CC0       GetShiftState
 0001:0001E68C       GetShortHint
 0001:00004FB8       GetStockObject
 0001:0000D074       GetStrProp
 0001:00005318       GetSubMenu
 0001:00005320       GetSysColor
 0001:00004D78       GetSystemInfo
 0001:00005328       GetSystemMenu
 0001:00005330       GetSystemMetrics
 0001:00004FC0       GetSystemPaletteEntries
 0001:00004FC8       GetTextExtentPoint
 0001:00004FD0       GetTextMetrics
 0001:00004D80       GetThreadLocale
 0001:00004D88       GetTickCount
 0001:000081AC       GetTime
 0001:0000CBB4       GetTypeData
 0001:00005338       GetUpdateRect
 0001:00004D90       GetVersion
 0001:00004D98       GetVersionEx
 0001:00005340       GetWindow
 0001:00005348       GetWindowDC
 0001:00005350       GetWindowLong
 0001:00004FE0       GetWindowOrgEx
 0001:00005358       GetWindowPlacement
 0001:00005360       GetWindowRect
 0001:00005368       GetWindowRgn
 0001:00005370       GetWindowText
 0001:00005378       GetWindowThreadProcessId
 0001:00004FD8       GetWinMetaFileBits
 0001:00004DA0       GlobalAddAtom
 0001:00004DA8       GlobalAlloc
 0001:00005630       GlobalAllocPtr
 0001:00004DB0       GlobalDeleteAtom
 0001:00011980       GlobalFixupReferences
 0001:00004DB8       GlobalFree
 0001:0000565C       GlobalFreePtr
 0001:00004DC8       GlobalHandle
 0001:00004DC0       GlobalLock
 0001:00004DD0       GlobalReAlloc
 0001:00005640       GlobalReAllocPtr
 0001:00004DD8       GlobalUnlock
 0001:0001D074       Graphics
 0001:0007A348       Grids
 0002:00000004       HeapAllocFlags
 0001:00005624       HiByte
 0001:00005380       HideCaret
 0002:000024B8       HInstance
 0002:00000794       HintWindowClass
 0001:00015E80       IdentToCharset
 0001:00015C78       IdentToColor
 0001:0001E67C       IdentToCursor
 0001:0000E6B0       IdentToInt
 0001:0001D178       ImageList_Add
 0001:0001D198       ImageList_AddIcon
 0001:0001D1C4       ImageList_BeginDrag
 0001:0001D160       ImageList_Create
 0001:0001D168       ImageList_Destroy
 0001:0001D1D4       ImageList_DragEnter
 0001:0001D1DC       ImageList_DragLeave
 0001:0001D1E4       ImageList_DragMove
 0001:0001D1F4       ImageList_DragShowNolock
 0001:0001D1A4       ImageList_Draw
 0001:0001D1B4       ImageList_DrawEx
 0001:0001D1CC       ImageList_EndDrag
 0001:0001D190       ImageList_GetBkColor
 0001:0001D1FC       ImageList_GetDragImage
 0001:0001D20C       ImageList_GetIconSize
 0001:0001D170       ImageList_GetImageCount
 0001:0001D21C       ImageList_GetImageInfo
 0001:0001D204       ImageList_Read
 0001:0001D1BC       ImageList_Remove
 0001:0001D1AC       ImageList_Replace
 0001:0001D180       ImageList_ReplaceIcon
 0001:0001D188       ImageList_SetBkColor
 0001:0001D1EC       ImageList_SetDragCursorImage
 0001:0001D214       ImageList_SetIconSize
 0001:0001D28C       Imm
 0001:0002601C       Imm32IsIME
 0002:000001A4       IMSecsPerDay
 0001:00005388       InflateRect
 0001:00029860       InitCtl3D
 0001:0000AD10       InitExceptions
 0001:00004DE0       InitializeCriticalSection
 0001:0000E8F0       InitInheritedComponent
 0001:0000AE3C       InitPlatformId
 0002:0000202C       InitProc
 0001:0000B604       InitSysLocale
 0001:0001E3E8       InitWndProc
 0002:00002048       Input
 0001:00005390       InsertMenu
 0001:00005398       InsertMenuItem
 0001:00004D00       InterlockedDecrement
 0001:00004D08       InterlockedIncrement
 0001:00004FE8       IntersectClipRect
 0001:000053A0       IntersectRect
 0001:0000E6F0       IntToIdent
 0001:000068D8       IntToStr
 0001:000053A8       InvalidateRect
 0002:000025D8       InvalidPointer
 0001:00029D14       IsAccel
 0001:000053B0       IsCharAlpha
 0001:000053B8       IsCharAlphaNumeric
 0001:000053C0       IsChild
 0002:00002040       IsConsole
 0001:00004DE8       IsDBCSLeadByte
 0001:000053C8       IsDialogMessage
 0001:000053D0       IsIconic
 0001:00007B88       IsLeapYear
 0002:00002020       IsLibrary
 0002:00002041       IsMultiThread
 0001:000053D8       IsRectEmpty
 0001:0000685C       IsValidIdent
 0001:000053E0       IsWindow
 0001:000053E8       IsWindowEnabled
 0001:000053F0       IsWindowVisible
 0001:00070E48       isWWEditControl
 0001:000053F8       IsZoomed
 0001:00029CD8       KeyDataToShiftState
 0001:00029C84       KeysToShiftState
 0001:00005400       KillTimer
 0001:00006B38       LastDelimiter
 0002:00000154       LeadBytes
 0001:00004DF0       LeaveCriticalSection
 0002:0000000C       LibModuleList
 0001:00004FF0       LineTo
 0001:00005408       LoadBitmap
 0001:00005410       LoadCursor
 0001:00005418       LoadIcon
 0001:00004E00       LoadLibrary
 0001:00004DF8       LoadLibraryA
 0001:00004E08       LoadResource
 0001:00003DC0       LoadResourceModule
 0001:000040E4       LoadResString
 0001:00005420       LoadString
 0001:00009910       LocalGetLocaleStr
 0001:00004E10       LockResource
 0001:0004B754       LoginDialogEx
 0002:000024DC       LongDateFormat
 0002:00002570       LongDayNames
 0002:00002524       LongMonthNames
 0002:000024F0       LongTimeFormat
 0001:00006428       LowerCase
 0002:0000201C       MainInstance
 0002:000025E8       MainThreadID
 0001:00005618       MakeLong
 0001:00029AE4       MakeObjectInstance
 0001:00005670       MakeROP4
 0001:0000A968       MapException
 0001:00005428       MapVirtualKey
 0001:00005430       MapWindowPoints
 0001:0003B4C8       Mask
 0001:00004FF8       MaskBlt
 0002:000009F8       MaskFieldSeparator
 0001:00039170       MaskGetMaskBlank
 0001:000390E4       MaskGetMaskSave
 0002:000009FC       MaskNoSave
 0001:0002839C       Menus
 0001:00005438       MessageBeep
 0001:00005440       MessageBox
 0001:00037FB4       MessageDlg
 0001:00037FD4       MessageDlgPos
 0001:00037FF8       MessageDlgPosHelp
 0001:00005744       Messages
 0002:000024AC       ModuleIsLib
 0002:00000010       ModuleUnloadList
 0002:00000124       MonthDays
 0001:000018A8       Move
 0001:00005000       MoveToEx
 0001:0001EEFC       MoveWindowOrg
 0001:000079C8       MSecsToTimeStamp
 0001:00004E18       MulDiv
 0001:0004DDF0       NativeToAnsi
 0001:0004DE5C       NativeToAnsiBuf
 0002:000024D1       NegCurrFormat
 0001:00006344       NewStr
 0002:0000266C       NewStyleControls
 0001:0000E7E4       NotifyGlobalLoading
 0001:00008000       Now
 0002:000023F0       Null
 0002:0000010C       NullStr
 0001:00005448       OemToAnsi
 0001:00005450       OemToChar
 0001:00005458       OemToCharBuff
 0001:00005460       OffsetRect
 0001:000032BC       OleStrToStrVar
 0001:00005468       OpenClipboard
 0001:00004E20       OpenFileMapping
 0001:00047A84       OsLdAnsiCharToOem
 0001:00047A9C       OsLdAnsiToOem
 0001:00047610       OsLdBuildCharSetXform
 0001:00047A60       OsLdCharToLower
 0001:00047A66       OsLdCharToUpper
 0001:00047AFC       OsLdExit
 0001:0004774E       OsLdExStrCmp
 0001:00047AA8       OsLdGetCodePage
 0001:00047B02       OsLdGetDefaultObj
 0001:00047A5A       OsLdGetDescName
 0001:00047760       OsLdGetDriverId
 0001:00047AA2       OsLdGetFName
 0001:000477A2       OsLdGetFuncAddrLdStrnCmpi_
 0001:000477E4       OsLdGetFuncAddrLdStrnColli_
 0001:000477DE       OsLdGetFuncAddrLdStrnColl_
 0001:00047A30       OsLdGetMinMax
 0001:00047A36       OsLdGetProductID
 0001:00047AAE       OsLdGetSortsig
 0001:00047AB4       OsLdGetSymbName
 0001:00047B08       OsLdInit
 0001:00047A72       OsLdIsAlpha
 0001:00047A90       OsLdIsAnsiCharInOemCp
 0001:00047A6C       OsLdIsDigit
 0001:00047A8A       OsLdIsOemCharInAnsiCp
 0001:0004775A       OsLdLoadByDriverId
 0001:00047AF0       OsLdLoadByFName
 0001:00047A42       OsLdLoadByLCID
 0001:00047AF6       OsLdLoadBySortSig
 0001:00047AEA       OsLdLoadBySymbName
 0001:00047A7E       OsLdOemCharToAnsi
 0001:00047A96       OsLdOemToAnsi
 0001:00047A3C       OsLdSearchEnd
 0001:00047A54       OsLdSearchInit
 0001:00047A4E       OsLdSearchNext
 0001:00047A2A       OsLdSetConvChars
 0001:00047ADE       OsLdStrCmp
 0001:00047ACC       OsLdStrCmpi
 0001:00047AE4       OsLdStrnCmp
 0001:00047AC6       OsLdStrnCmpi
 0001:00047748       OsLdStrnColl
 0001:0004772A       OsLdStrnColli
 0001:00047AD2       OsLdStrnToLower
 0001:00047ABA       OsLdStrnToUpper
 0001:00047AD8       OsLdStrToLower
 0001:00047AC0       OsLdStrToUpper
 0001:00047A78       OsLdUnloadObj
 0002:000025D4       OutOfMemory
 0002:00002214       Output
 0001:00015854       PaletteChanged
 0001:0004B310       PasswordDialog
 0001:00005008       PatBlt
 0001:00005470       PeekMessage
 0001:00005010       PlayEnhMetaFile
 0001:0000E214       Point
 0001:00005690       PointToSmallPoint
 0001:00005020       Polyline
 0001:00005018       PolyPolyline
 0001:00005478       PostMessage
 0001:00005480       PostQuitMessage
 0001:0001D308       Printers
 0001:00005488       PtInRect
 0001:0000B6F0       RaiseLastWin32Error
 0002:0000203C       RandSeed
 0001:00004E28       ReadFile
 0001:00005028       RealizePalette
 0001:0000E22C       Rect
 0001:00005038       Rectangle
 0001:00005030       RectVisible
 0001:00005490       RedrawWindow
 0001:00004C50       RegCloseKey
 0001:00004C58       RegCreateKeyEx
 0001:00004C60       RegFlushKey
 0001:0000E44C       RegisterClass
 0001:00005498       RegisterClass
 0001:0000E53C       RegisterClasses
 0001:000054A0       RegisterClipboardFormat
 0001:0000E680       RegisterIntegerConsts
 0001:00004064       RegisterModule
 0001:000054A8       RegisterWindowMessage
 0001:0005B044       Registry
 0001:00004C70       RegOpenKeyEx
 0001:00004C68       RegOpenKeyExA
 0001:00004C80       RegQueryValueEx
 0001:00004C78       RegQueryValueExA
 0001:000054B0       ReleaseCapture
 0001:000054B8       ReleaseDC
 0001:00004E30       ReleaseMutex
 0001:00011B08       RemoveFixupReferences
 0001:00011B70       RemoveFixups
 0001:000054C0       RemoveMenu
 0001:00003FA4       RemoveModuleUnloadProc
 0001:000054C8       RemoveProp
 0001:00005040       RestoreDC
 0001:0000A544       ReturnAddr
 0001:000612FC       RichEdit
 0001:0000B9E8       RPR
 0001:00005048       SaveDC
 0001:00008D1C       ScanBlanks
 0001:00008EBC       ScanChar
 0001:000090E4       ScanDate
 0001:00008D64       ScanNumber
 0001:00008E1C       ScanString
 0001:00009440       ScanTime
 0001:00008F84       ScanToNumber
 0002:000026EC       Screen
 0001:000054D0       ScreenToClient
 0001:000054D8       ScrollWindow
 0001:000054E0       ScrollWindowEx
 0001:00004E38       SearchPathA
 0001:00005050       SelectObject
 0001:00005058       SelectPalette
 0001:0001E4BC       SendAppMessage
 0001:000054E8       SendMessage
 0002:00002790       Session
 0002:00002794       Sessions
 0001:000054F0       SetActiveWindow
 0001:00005060       SetBkColor
 0001:00005068       SetBkMode
 0001:00005070       SetBrushOrgEx
 0001:000054F8       SetCapture
 0001:0001E73C       SetCaptureControl
 0001:00005500       SetClipboardData
 0001:00005508       SetCursor
 0001:00005078       SetDIBColorTable
 0001:00004E40       SetEndOfFile
 0001:00005080       SetEnhMetaFileBits
 0001:00004E48       SetErrorMode
 0001:00004E50       SetEvent
 0001:00004E58       SetFilePointer
 0001:0000D0EC       SetFloatProp
 0001:00005510       SetFocus
 0001:00005518       SetForegroundWindow
 0001:00025F40       SetImeMode
 0001:00005520       SetKeyboardState
 0001:00005528       SetMenu
 0001:0000D1C4       SetMethodProp
 0001:0000CD40       SetOrdProp
 0001:00005530       SetParent
 0001:00005088       SetPixel
 0001:00005538       SetProp
 0001:00005540       SetRect
 0001:00005090       SetROP2
 0001:00005548       SetScrollInfo
 0001:00005550       SetScrollPos
 0001:00005558       SetScrollRange
 0001:00005098       SetStretchBltMode
 0001:0000D0B8       SetStrProp
 0001:000050A0       SetTextColor
 0001:00004E60       SetThreadLocale
 0001:00005560       SetTimer
 0001:000050A8       SetViewportOrgEx
 0001:00005568       SetWindowLong
 0001:000050B8       SetWindowOrgEx
 0001:00005570       SetWindowPlacement
 0001:00005578       SetWindowPos
 0001:00005590       SetWindowRgn
 0001:00005588       SetWindowsHookEx
 0001:00005580       SetWindowText
 0001:000050B0       SetWinMetaFileBits
 0002:00000184       ShareMode
 0001:000268E4       ShortCutToText
 0002:000024D8       ShortDateFormat
 0002:00002554       ShortDayNames
 0002:000024F4       ShortMonthNames
 0002:000024EC       ShortTimeFormat
 0001:00005598       ShowCaret
 0001:000055A0       ShowCursor
 0001:0000A474       ShowException
 0001:00038098       ShowMessage
 0001:000380A8       ShowMessagePos
 0001:000055A8       ShowOwnedPopups
 0001:000055B0       ShowWindow
 0001:00004E68       SizeofResource
 0001:0000E21C       SmallPoint
 0001:0000567C       SmallPointToPoint
 0001:0004B0A8       SMIntf
 0001:0003590C       StdCtrls
 0001:0004B110       StdVCL
 0001:00006FB8       StrAlloc
 0001:0005B61C       strBreakApart
 0001:00006FEC       StrBufSize
 0001:0000AF70       StrByteType
 0001:00006E5C       StrComp
 0001:00006D74       StrCopy
 0001:0005B87C       strCount
 0001:0000705C       StrDispose
 0001:00006D9C       StrECopy
 0001:00006D24       StrEnd
 0001:000050C0       StretchBlt
 0001:00007478       StrFmt
 0001:0005B4E0       strGetToken
 0001:00006E80       StrIComp
 0001:000032E4       StringToOleStr
 0001:00006DC8       StrLCopy
 0001:00006D0C       StrLen
 0001:000074C0       StrLFmt
 0001:00006EC0       StrLIComp
 0001:00006D38       StrMove
 0001:00007014       StrNew
 0001:00006F9C       StrPas
 0001:00006DFC       StrPCopy
 0001:00006E2C       StrPLCopy
 0001:00006F28       StrPos
 0001:0005B72C       strReplaceChar
 0001:00006F08       StrScan
 0001:0005B6E8       strStripTrailing
 0001:000078DC       StrToCurr
 0001:0000961C       StrToDate
 0001:00009734       StrToDateTime
 0001:00007860       StrToFloat
 0001:00006910       StrToInt
 0001:0000698C       StrToIntDef
 0001:000096A8       StrToTime
 0001:0005B8E4       strTrailing
 0001:00006F7C       StrUpper
 0001:00009804       SysErrorMessage
 0001:0000132C       SysFreeMem
 0001:000011A4       SysGetMem
 0001:00004C48       SysInit
 0002:0000258C       SysLocale
 0001:000016AC       SysReallocMem
 0001:00004A24       System
 0002:00002600       SystemPalette16
 0001:000055B8       SystemParametersInfo
 0001:0000C738       SysUtils
 0001:0002F484       TApplication.BringToFront
 0001:00030134       TApplication.CancelHint
 0001:0002EA7C       TApplication.ControlDestroyed
 0001:0002E6A0       TApplication.Create
 0001:0002F808       TApplication.CreateForm
 0001:0002E8F4       TApplication.CreateHandle
 0001:0002E81C       TApplication.Destroy
 0001:0002F4C0       TApplication.GetTitle
 0001:0002F95C       TApplication.HandleException
 0001:0002F700       TApplication.HandleMessage
 0001:0002FC70       TApplication.HelpCommand
 0001:0002FC64       TApplication.HelpContext
 0001:000300F8       TApplication.HideHint
 0001:00030008       TApplication.HintMouseMessage
 0001:0002F718       TApplication.HookMainWindow
 0001:0002F7F0       TApplication.Initialize
 0001:0002F9EC       TApplication.MessageBox
 0001:0002F3B4       TApplication.Minimize
 0001:0002EBE8       TApplication.NormalizeAllTopMosts
 0001:0002EBE0       TApplication.NormalizeTopMosts
 0001:0002F6F0       TApplication.ProcessMessages
 0001:0002F3FC       TApplication.Restore
 0001:0002EBF0       TApplication.RestoreTopMosts
 0001:0002F894       TApplication.Run
 0001:0002FEC4       TApplication.SetHint
 0001:0002FC78       TApplication.SetShowHint
 0001:0002F508       TApplication.SetTitle
 0001:0002FA60       TApplication.ShowException
 0001:0002F948       TApplication.Terminate
 0001:0002F774       TApplication.UnhookMainWindow
 0001:00040780       TAutoIncField.Create
 0001:000418C4       TBCDField.CheckTypeSize
 0001:00041824       TBCDField.Create
 0001:00041914       TBCDField.GetAsCurrency
 0001:0004193C       TBCDField.GetAsFloat
 0001:0004196C       TBCDField.GetAsInteger
 0001:00041998       TBCDField.GetAsString
 0001:000419D0       TBCDField.GetAsVariant
 0001:00041A0C       TBCDField.GetDataSize
 0001:00041A14       TBCDField.GetDefaultWidth
 0001:00041A30       TBCDField.GetText
 0001:00041B6C       TBCDField.GetValue
 0001:00041C34       TBCDField.SetAsCurrency
 0001:00041CF0       TBCDField.SetAsFloat
 0001:00041D10       TBCDField.SetAsInteger
 0001:00041D3C       TBCDField.SetAsString
 0001:00041DF4       TBCDField.SetCurrency
 0001:00041E10       TBCDField.SetMaxValue
 0001:00041E30       TBCDField.SetMinValue
 0001:00041E50       TBCDField.SetVarValue
 0001:0004DBE0       TBDECallback.Create
 0001:0004DC78       TBDECallback.Destroy
 0001:0004DD20       TBDECallback.Invoke
 0001:0005360C       TBDEDataSet.ActivateFilters
 0001:00052378       TBDEDataSet.AddFieldDesc
 0001:00054694       TBDEDataSet.AllocCachedUpdateBuffers
 0001:00052F58       TBDEDataSet.AllocKeyBuffers
 0001:00051EBC       TBDEDataSet.AllocRecordBuffer
 0001:000528BC       TBDEDataSet.BCDToCurr
 0001:00052C98       TBDEDataSet.BookmarkValid
 0001:000549C4       TBDEDataSet.CachedUpdateCallBack
 0001:00052B3C       TBDEDataSet.Cancel
 0001:0005471C       TBDEDataSet.CheckCachedUpdateMode
 0001:00051F78       TBDEDataSet.ClearCalcFields
 0001:00052894       TBDEDataSet.CloseBlob
 0001:00051A4C       TBDEDataSet.CloseCursor
 0001:00052C40       TBDEDataSet.CompareBookmarks
 0001:000545D4       TBDEDataSet.ConstraintCallBack
 0001:000518E8       TBDEDataSet.Create
 0001:00052868       TBDEDataSet.CreateBlobStream
 0001:00053710       TBDEDataSet.CreateExprFilter
 0001:00053790       TBDEDataSet.CreateFuncFilter
 0001:00051A9C       TBDEDataSet.CreateHandle
 0001:000537C4       TBDEDataSet.CreateLookupFilter
 0001:000528CC       TBDEDataSet.CurrToBCD
 0001:000536CC       TBDEDataSet.DeactivateFilters
 0001:00051930       TBDEDataSet.Destroy
 0001:00051AA0       TBDEDataSet.DestroyHandle
 0001:000540A8       TBDEDataSet.DestroyLookupCursor
 0001:00053B60       TBDEDataSet.FindRecord
 0001:0005479C       TBDEDataSet.ForceUpdateCallback
 0001:00052FC8       TBDEDataSet.FreeKeyBuffers
 0001:00051EF4       TBDEDataSet.FreeRecordBuffer
 0001:00052C08       TBDEDataSet.GetBookmarkData
 0001:00052BE8       TBDEDataSet.GetBookmarkFlag
 0001:00052ADC       TBDEDataSet.GetCanModify
 0001:000520E4       TBDEDataSet.GetCurrentRecord
 0001:0005254C       TBDEDataSet.GetFieldData
 0001:00052E78       TBDEDataSet.GetIndexField
 0001:00052F50       TBDEDataSet.GetIndexFieldCount
 0001:00052CEC       TBDEDataSet.GetIndexInfo
 0001:00053554       TBDEDataSet.GetIsIndexField
 0001:00053350       TBDEDataSet.GetKeyBuffer
 0001:000540A4       TBDEDataSet.GetLookupCursor
 0001:00052204       TBDEDataSet.GetRecNo
 0001:00051FD8       TBDEDataSet.GetRecord
 0001:000521D0       TBDEDataSet.GetRecordCount
 0001:00052298       TBDEDataSet.GetRecordSize
 0001:000528E8       TBDEDataSet.GetStateFieldValue
 0001:00052FF8       TBDEDataSet.InitKeyBuffer
 0001:00051FA0       TBDEDataSet.InitRecord
 0001:00052B70       TBDEDataSet.InternalAddRecord
 0001:00052B5C       TBDEDataSet.InternalCancel
 0001:00051D6C       TBDEDataSet.InternalClose
 0001:00052A94       TBDEDataSet.InternalDelete
 0001:00052A14       TBDEDataSet.InternalEdit
 0001:000529DC       TBDEDataSet.InternalFirst
 0001:00052BAC       TBDEDataSet.InternalGotoBookmark
 0001:00051E20       TBDEDataSet.InternalHandleException
 0001:00051AC4       TBDEDataSet.InternalInitFieldDefs
 0001:00051F28       TBDEDataSet.InternalInitRecord
 0001:000529F8       TBDEDataSet.InternalLast
 0001:00051C10       TBDEDataSet.InternalOpen
 0001:00052A4C       TBDEDataSet.InternalPost
 0001:00052B00       TBDEDataSet.InternalRefresh
 0001:00052BCC       TBDEDataSet.InternalSetToRecord
 0001:00051E14       TBDEDataSet.IsCursorOpen
 0001:00052AC4       TBDEDataSet.IsSequenced
 0001:00054050       TBDEDataSet.Locate
 0001:00053D14       TBDEDataSet.LocateRecord
 0001:00053FB8       TBDEDataSet.Lookup
 0001:000535A8       TBDEDataSet.MapsToIndex
 0001:0005196C       TBDEDataSet.OpenCursor
 0001:00052B1C       TBDEDataSet.Post
 0001:000533D4       TBDEDataSet.PostKeyBuffer
 0001:00051E10       TBDEDataSet.PrepareCursor
 0001:0005322C       TBDEDataSet.ResetCursorRange
 0001:00052C24       TBDEDataSet.SetBookmarkData
 0001:00052BF8       TBDEDataSet.SetBookmarkFlag
 0001:00054858       TBDEDataSet.SetCachedUpdates
 0001:0005302C       TBDEDataSet.SetCursorRange
 0001:000525EC       TBDEDataSet.SetFieldData
 0001:000539BC       TBDEDataSet.SetFilterData
 0001:00053A54       TBDEDataSet.SetFiltered
 0001:00053944       TBDEDataSet.SetFilterHandle
 0001:00053AC0       TBDEDataSet.SetFilterOptions
 0001:00053A44       TBDEDataSet.SetFilterText
 0001:00052F2C       TBDEDataSet.SetIndexField
 0001:0005335C       TBDEDataSet.SetKeyBuffer
 0001:00053430       TBDEDataSet.SetKeyFields
 0001:00053284       TBDEDataSet.SetLinkRanges
 0001:00051E34       TBDEDataSet.SetLocale
 0001:00053AD8       TBDEDataSet.SetOnFilterRecord
 0001:00054BC8       TBDEDataSet.SetOnUpdateError
 0001:00052234       TBDEDataSet.SetRecNo
 0001:00052914       TBDEDataSet.SetStateFieldValue
 0001:00054960       TBDEDataSet.SetupCallBack
 0001:00054B44       TBDEDataSet.SetUpdateObject
 0001:00052D78       TBDEDataSet.SwitchToIndex
 0001:00052984       TBDEDataSet.Translate
 0001:00054770       TBDEDataSet.UpdateCallbackRequired
 0001:00054C00       TBDEDataSet.YieldCallBack
 0001:00036DEC       TBevel.Create
 0001:00036FBC       TBevel.Paint
 0001:00036E70       TBevel.SetShape
 0001:00036E54       TBevel.SetStyle
 0001:00041420       TBinaryField.CheckTypeSize
 0001:000413EC       TBinaryField.Create
 0001:0004146C       TBinaryField.GetAsString
 0001:0004157C       TBinaryField.GetAsVariant
 0001:000416F8       TBinaryField.GetText
 0001:0004149C       TBinaryField.SetAsString
 0001:00041748       TBinaryField.SetText
 0001:0004160C       TBinaryField.SetVarValue
 0001:00060B90       TBitBtn.Click
 0001:00060EA8       TBitBtn.CMEnabledChanged
 0001:00060E94       TBitBtn.CMFontChanged
 0001:00060C0C       TBitBtn.CNDrawItem
 0001:00060BFC       TBitBtn.CNMeasureItem
 0001:00060A68       TBitBtn.Create
 0001:00060B44       TBitBtn.CreateHandle
 0001:00060B6C       TBitBtn.CreateParams
 0001:00060B0C       TBitBtn.Destroy
 0001:00060F04       TBitBtn.GetGlyph
 0001:000610D8       TBitBtn.GetKind
 0001:00061160       TBitBtn.GetNumGlyphs
 0001:00060ED0       TBitBtn.GetPalette
 0001:00060F1C       TBitBtn.IsCustom
 0001:0006105C       TBitBtn.IsCustomCaption
 0001:00060B7C       TBitBtn.SetButtonStyle
 0001:00060EE4       TBitBtn.SetGlyph
 0001:00060F4C       TBitBtn.SetKind
 0001:00061144       TBitBtn.SetLayout
 0001:000611B4       TBitBtn.SetMargin
 0001:0006116C       TBitBtn.SetNumGlyphs
 0001:00061198       TBitBtn.SetSpacing
 0001:00060F30       TBitBtn.SetStyle
 0001:00060EBC       TBitBtn.WMLButtonDblClk
 0001:0001B2C0       TBitmap.Assign
 0001:0001B474       TBitmap.Changed
 0001:0001B220       TBitmap.Create
 0001:0001B284       TBitmap.Destroy
 0001:0001B480       TBitmap.Dormant
 0001:0001B49C       TBitmap.Draw
 0001:0001B6EC       TBitmap.FreeImage
 0001:0001B754       TBitmap.GetCanvas
 0001:0001B73C       TBitmap.GetEmpty
 0001:0001B794       TBitmap.GetHandle
 0001:0001B7B8       TBitmap.GetHandleType
 0001:0001B7E4       TBitmap.GetHeight
 0001:0001B7F4       TBitmap.GetMaskHandle
 0001:0001B808       TBitmap.GetMonochrome
 0001:0001B824       TBitmap.GetPalette
 0001:0001B838       TBitmap.GetTransparentColor
 0001:0001B880       TBitmap.GetWidth
 0001:0001B90C       TBitmap.HandleNeeded
 0001:0001BB14       TBitmap.LoadFromClipboardFormat
 0001:0001BBF8       TBitmap.LoadFromResourceName
 0001:0001BBD4       TBitmap.LoadFromStream
 0001:0001B91C       TBitmap.Mask
 0001:0001B9FC       TBitmap.MaskHandleNeeded
 0001:0001BA5C       TBitmap.PaletteNeeded
 0001:0001BD44       TBitmap.ReadData
 0001:0001C890       TBitmap.SaveToClipboardFormat
 0001:0001C888       TBitmap.SaveToStream
 0001:0001C218       TBitmap.SetHandle
 0001:0001C2D8       TBitmap.SetHandleType
 0001:0001C40C       TBitmap.SetHeight
 0001:0001C460       TBitmap.SetMonochrome
 0001:0001C4E0       TBitmap.SetPalette
 0001:0001C5B4       TBitmap.SetTransparentColor
 0001:0001C604       TBitmap.SetWidth
 0001:0001C658       TBitmap.WriteData
 0001:0001A7D8       TBitmapImage.Destroy
 0001:0001A828       TBitmapImage.FreeHandle
 0001:0000EFBC       TBits.Destroy
 0001:0000F128       TBits.GetBit
 0001:0000F140       TBits.OpenBit
 0001:0000F0FC       TBits.SetBit
 0001:0000F04C       TBits.SetSize
 0001:00041EE8       TBlobField.Assign
 0001:00041F84       TBlobField.AssignTo
 0001:00041FF8       TBlobField.Clear
 0001:00041EAC       TBlobField.Create
 0001:00042018       TBlobField.FreeBuffers
 0001:0004203C       TBlobField.GetAsString
 0001:000420AC       TBlobField.GetAsVariant
 0001:000420FC       TBlobField.GetBlobSize
 0001:00042154       TBlobField.GetBlobType
 0001:00042158       TBlobField.GetIsNull
 0001:000421CC       TBlobField.GetModified
 0001:000421EC       TBlobField.GetText
 0001:0004223C       TBlobField.IsBlob
 0001:0004243C       TBlobField.SaveToStream
 0001:000424E8       TBlobField.SetAsString
 0001:00042544       TBlobField.SetBlobType
 0001:00042558       TBlobField.SetFieldType
 0001:0004256C       TBlobField.SetModified
 0001:00042588       TBlobField.SetText
 0001:000425B8       TBlobField.SetVarValue
 0001:0005A094       TBlobStream.Create
 0001:0005A274       TBlobStream.Destroy
 0001:0005A340       TBlobStream.Read
 0001:0005A63C       TBlobStream.Seek
 0001:0005A674       TBlobStream.Truncate
 0001:0005A51C       TBlobStream.Write
 0001:00040C98       TBooleanField.Create
 0001:00040CDC       TBooleanField.GetAsBoolean
 0001:00040D04       TBooleanField.GetAsString
 0001:00040D48       TBooleanField.GetAsVariant
 0001:00040D88       TBooleanField.GetDataSize
 0001:00040D90       TBooleanField.GetDefaultWidth
 0001:00040DFC       TBooleanField.SetAsBoolean
 0001:00040E20       TBooleanField.SetAsString
 0001:00040F60       TBooleanField.SetDisplayValues
 0001:00040FF0       TBooleanField.SetVarValue
 0001:0001679C       TBrush.Assign
 0001:00016740       TBrush.Create
 0001:00016778       TBrush.Destroy
 0001:000168D8       TBrush.GetColor
 0001:00016914       TBrush.GetHandle
 0001:000169F4       TBrush.GetStyle
 0001:000168B4       TBrush.SetBitmap
 0001:000168E0       TBrush.SetColor
 0001:000169FC       TBrush.SetStyle
 0001:000347E0       TButton.Click
 0001:0003497C       TButton.CMDialogChar
 0001:00034910       TButton.CMDialogKey
 0001:000349FC       TButton.CMFocusChanged
 0001:000348F8       TButton.CNCommand
 0001:0003477C       TButton.Create
 0001:0003489C       TButton.CreateParams
 0001:000348DC       TButton.CreateWnd
 0001:00034808       TButton.SetButtonStyle
 0001:00034864       TButton.SetDefault
 0001:00034A50       TButton.WMEraseBkgnd
 0001:0003470C       TButtonControl.WndProc
 0001:00041778       TBytesField.Create
 0001:000417C4       TBytesField.GetDataSize
 0001:00016B44       TCanvas.BrushCopy
 0001:000175D8       TCanvas.Changed
 0001:000175C4       TCanvas.Changing
 0001:00016E04       TCanvas.CopyRect
 0001:00016A30       TCanvas.Create
 0001:000174A4       TCanvas.CreateHandle
 0001:00016AEC       TCanvas.Destroy
 0001:00016E8C       TCanvas.Draw
 0001:00016F38       TCanvas.DrawFocusRect
 0001:00016F6C       TCanvas.FillRect
 0001:00016FA8       TCanvas.FrameRect
 0001:00017404       TCanvas.GetClipRect
 0001:00017428       TCanvas.GetHandle
 0001:0001734C       TCanvas.GetPenPos
 0001:00017390       TCanvas.GetPixel
 0001:00016FE4       TCanvas.LineTo
 0001:0001701C       TCanvas.Lock
 0001:00017044       TCanvas.MoveTo
 0001:00017070       TCanvas.Polyline
 0001:000170A8       TCanvas.Rectangle
 0001:00017550       TCanvas.RequiredState
 0001:00017340       TCanvas.SetBrush
 0001:00017324       TCanvas.SetFont
 0001:000174A8       TCanvas.SetHandle
 0001:00017334       TCanvas.SetPen
 0001:00017370       TCanvas.SetPenPos
 0001:000173BC       TCanvas.SetPixel
 0001:000170F0       TCanvas.StretchDraw
 0001:00017220       TCanvas.TextExtent
 0001:00017280       TCanvas.TextHeight
 0001:0001712C       TCanvas.TextOut
 0001:0001719C       TCanvas.TextRect
 0001:00017264       TCanvas.TextWidth
 0001:000172A0       TCanvas.TryLock
 0001:000172FC       TCanvas.Unlock
 0001:000431E8       TCheckConstraint.Assign
 0001:00043234       TCheckConstraint.GetDisplayName
 0001:00043294       TCheckConstraint.SetCustomConstraint
 0001:000432C0       TCheckConstraint.SetErrorMessage
 0001:00043268       TCheckConstraint.SetImportedConstraint
 0001:000432EC       TCheckConstraints.Create
 0001:00043330       TCheckConstraints.GetItem
 0001:0004332C       TCheckConstraints.GetOwner
 0001:000389EC       TClipboard.Assign
 0001:00038878       TClipboard.AssignTo
 0001:00038544       TClipboard.Clear
 0001:000385A8       TClipboard.Close
 0001:00038640       TClipboard.GetAsText
 0001:000385D8       TClipboard.Open
 0001:0000F638       TCollection.Add
 0001:0000F648       TCollection.Assign
 0001:0000F6E0       TCollection.BeginUpdate
 0001:0000F6E4       TCollection.Changed
 0001:0000F6F8       TCollection.Clear
 0001:0000F5B8       TCollection.Create
 0001:0000F5F4       TCollection.Destroy
 0001:0000F760       TCollection.EndUpdate
 0001:0000F774       TCollection.GetAttr
 0001:0000F770       TCollection.GetAttrCount
 0001:0000F7A4       TCollection.GetCount
 0001:0000F7AC       TCollection.GetItem
 0001:0000F784       TCollection.GetItemAttr
 0001:0000F7BC       TCollection.GetNamePath
 0001:0000F884       TCollection.GetPropName
 0001:0000FA50       TCollection.SetItemName
 0001:0000FA54       TCollection.Update
 0001:0000F420       TCollectionItem.Changed
 0001:0000F3BC       TCollectionItem.Create
 0001:0000F3F0       TCollectionItem.Destroy
 0001:0000F464       TCollectionItem.GetDisplayName
 0001:0000F448       TCollectionItem.GetIndex
 0001:0000F494       TCollectionItem.GetNamePath
 0001:0000F548       TCollectionItem.GetOwner
 0001:0000F54C       TCollectionItem.SetCollection
 0001:0000F578       TCollectionItem.SetDisplayName
 0001:0000F584       TCollectionItem.SetIndex
 0001:00014034       TComponent.ChangeName
 0001:000139E8       TComponent.Create
 0001:00013D34       TComponent.DefineProperties
 0001:00013A30       TComponent.Destroy
 0001:00013C54       TComponent.DestroyComponents
 0001:00013C84       TComponent.Destroying
 0001:00013F0C       TComponent.FindComponent
 0001:00013ABC       TComponent.FreeNotification
 0001:00013DC4       TComponent.GetChildOwner
 0001:00013DC8       TComponent.GetChildParent
 0001:00013DBC       TComponent.GetChildren
 0001:0001404C       TComponent.GetComponent
 0001:000140B8       TComponent.GetComponentCount
 0001:00013DCC       TComponent.GetNamePath
 0001:00013DE4       TComponent.GetOwner
 0001:00013DEC       TComponent.GetParentComponent
 0001:00013DB8       TComponent.HasParent
 0001:00013BB8       TComponent.InsertComponent
 0001:00013E14       TComponent.Loaded
 0001:00013CC0       TComponent.Notification
 0001:00013E24       TComponent.ReadState
 0001:00013C10       TComponent.RemoveComponent
 0001:000141B8       TComponent.SafeCallException
 0001:00013DE8       TComponent.SetChildOrder
 0001:000140C8       TComponent.SetComponentIndex
 0001:00014120       TComponent.SetDesigning
 0001:00013F68       TComponent.SetName
 0001:00013DF0       TComponent.SetParentComponent
 0001:00013E04       TComponent.Updated
 0001:000141D8       TComponent.UpdateRegistry
 0001:00013DF4       TComponent.Updating
 0001:00013EF0       TComponent.ValidateContainer
 0001:00013F08       TComponent.ValidateInsert
 0001:00013E3C       TComponent.ValidateRename
 0001:00013E30       TComponent.WriteState
 0001:00020024       TControl.BeginDrag
 0001:0001FC88       TControl.BringToFront
 0001:0001F72C       TControl.Changed
 0001:0001F73C       TControl.ChangeScale
 0001:00020484       TControl.Click
 0001:0001F6BC       TControl.ClientToScreen
 0001:00020910       TControl.CMColorChanged
 0001:000209EC       TControl.CMDesignHitTest
 0001:00020900       TControl.CMEnabledChanged
 0001:00020908       TControl.CMFontChanged
 0001:000209B4       TControl.CMHitTest
 0001:000209BC       TControl.CMMouseEnter
 0001:000209D4       TControl.CMMouseLeave
 0001:00020918       TControl.CMParentColorChanged
 0001:00020964       TControl.CMParentFontChanged
 0001:00020948       TControl.CMParentShowHintChanged
 0001:00020994       TControl.CMSysFontChanged
 0001:000208D8       TControl.CMVisibleChanged
 0001:0001F1A8       TControl.Create
 0001:000204A4       TControl.DblClick
 0001:0002036C       TControl.DefaultHandler
 0001:00020434       TControl.DefineProperties
 0001:0001F238       TControl.Destroy
 0001:00020190       TControl.DoEndDrag
 0001:00020170       TControl.DoStartDrag
 0001:000200F8       TControl.DragCanceled
 0001:00020144       TControl.DragDrop
 0001:000200FC       TControl.Dragging
 0001:00020108       TControl.DragOver
 0001:0001F548       TControl.GetBoundsRect
 0001:0001F5EC       TControl.GetClientHeight
 0001:0001F62C       TControl.GetClientOrigin
 0001:0001F590       TControl.GetClientRect
 0001:0001F5A8       TControl.GetClientWidth
 0001:0001FD3C       TControl.GetDeviceContext
 0001:0001F284       TControl.GetDragImages
 0001:0001FC50       TControl.GetMouseCapture
 0001:0001F288       TControl.GetPalette
 0001:0001F294       TControl.GetParentComponent
 0001:000205F4       TControl.GetPopupMenu
 0001:0001FA9C       TControl.GetText
 0001:0001FA5C       TControl.GetTextBuf
 0001:0001FA4C       TControl.GetTextLen
 0001:0001F28C       TControl.HasParent
 0001:0001FF0C       TControl.Hide
 0001:0001FEFC       TControl.Invalidate
 0001:0001FC0C       TControl.IsColorStored
 0001:0001FB78       TControl.IsFontStored
 0001:0001FB8C       TControl.IsShowHintStored
 0001:000204C4       TControl.MouseDown
 0001:0002070C       TControl.MouseMove
 0001:00020770       TControl.MouseUp
 0001:0001F3CC       TControl.Notification
 0001:0001F2BC       TControl.PaletteChanged
 0001:00020254       TControl.Perform
 0001:0001F34C       TControl.ReadState
 0001:0001FF24       TControl.Refresh
 0001:0001FF2C       TControl.Repaint
 0001:0001F33C       TControl.RequestAlign
 0001:0001F6E8       TControl.ScreenToClient
 0001:0001F714       TControl.SendCancelMode
 0001:0001F3F8       TControl.SetAlign
 0001:0001F45C       TControl.SetBounds
 0001:0001F568       TControl.SetBoundsRect
 0001:0001F604       TControl.SetClientHeight
 0001:0001F5C0       TControl.SetClientWidth
 0001:0001FBF0       TControl.SetColor
 0001:0001FC34       TControl.SetCursor
 0001:0001F338       TControl.SetDragMode
 0001:0001FA34       TControl.SetEnabled
 0001:0001FB6C       TControl.SetFont
 0001:0001F528       TControl.SetHeight
 0001:0001F4C8       TControl.SetLeft
 0001:0001FC60       TControl.SetMouseCapture
 0001:0001F88C       TControl.SetName
 0001:0001F974       TControl.SetParent
 0001:0001FC14       TControl.SetParentColor
 0001:0001F298       TControl.SetParentComponent
 0001:0001FB94       TControl.SetParentFont
 0001:0001FBD0       TControl.SetParentShowHint
 0001:0001FA68       TControl.SetPopupMenu
 0001:0001FBB4       TControl.SetShowHint
 0001:0001FACC       TControl.SetText
 0001:0001FA78       TControl.SetTextBuf
 0001:0001F4E8       TControl.SetTop
 0001:0001F9F8       TControl.SetVisible
 0001:0001F508       TControl.SetWidth
 0001:0001FD18       TControl.SetZOrder
 0001:0001FF14       TControl.Update
 0001:00020288       TControl.VisibleChanging
 0001:000208A0       TControl.WMCancelMode
 0001:000205A0       TControl.WMLButtonDblClk
 0001:00020538       TControl.WMLButtonDown
 0001:000207DC       TControl.WMLButtonUp
 0001:000206E4       TControl.WMMButtonDblClk
 0001:000206BC       TControl.WMMButtonDown
 0001:00020880       TControl.WMMButtonUp
 0001:00020734       TControl.WMMouseMove
 0001:00020584       TControl.WMNCLButtonDown
 0001:00020694       TControl.WMRButtonDblClk
 0001:0002066C       TControl.WMRButtonDown
 0001:00020850       TControl.WMRButtonUp
 0001:0002028C       TControl.WndProc
 0001:0001F0C0       TControlCanvas.CreateHandle
 0001:0001F094       TControlCanvas.Destroy
 0001:0001F15C       TControlCanvas.FreeHandle
 0001:0001F190       TControlCanvas.SetControl
 0001:00029EAC       TControlScrollBar.Assign
 0001:0002A30C       TControlScrollBar.IsRangeStored
 0001:0002A224       TControlScrollBar.SetPosition
 0001:0002A2F8       TControlScrollBar.SetRange
 0001:0002A318       TControlScrollBar.SetVisible
 0001:00062974       TConversion.ConvertReadStream
 0001:00062988       TConversion.ConvertWriteStream
 0001:00040C54       TCurrencyField.Create
 0001:00024274       TCustomControl.Create
 0001:000242C8       TCustomControl.Destroy
 0001:00024398       TCustomControl.Paint
 0001:00024300       TCustomControl.PaintWindow
 0001:000242F8       TCustomControl.WMPaint
 0001:00033EE4       TCustomEdit.Change
 0001:00033AC8       TCustomEdit.Clear
 0001:00033FA0       TCustomEdit.CMCtl3DChanged
 0001:00034028       TCustomEdit.CMEnter
 0001:00033FD8       TCustomEdit.CMFontChanged
 0001:00034068       TCustomEdit.CMTextChanged
 0001:00034004       TCustomEdit.CNCommand
 0001:00033AE8       TCustomEdit.CopyToClipboard
 0001:00033724       TCustomEdit.Create
 0001:00033C60       TCustomEdit.CreateParams
 0001:00033D20       TCustomEdit.CreateWnd
 0001:00033F0C       TCustomEdit.DefaultHandler
 0001:00033DD0       TCustomEdit.DestroyWnd
 0001:000337CC       TCustomEdit.DoSetMaxLength
 0001:000338A8       TCustomEdit.GetModified
 0001:00033A34       TCustomEdit.GetSelLength
 0001:000339E8       TCustomEdit.GetSelStart
 0001:00033BC4       TCustomEdit.GetSelText
 0001:00033B28       TCustomEdit.GetSelTextBuf
 0001:00033B08       TCustomEdit.SelectAll
 0001:000337F0       TCustomEdit.SetAutoSize
 0001:00033808       TCustomEdit.SetBorderStyle
 0001:00033830       TCustomEdit.SetCharCase
 0001:00033848       TCustomEdit.SetHideSelection
 0001:00033860       TCustomEdit.SetMaxLength
 0001:000338E4       TCustomEdit.SetModified
 0001:00033890       TCustomEdit.SetOEMConvert
 0001:00033920       TCustomEdit.SetPasswordChar
 0001:000339A8       TCustomEdit.SetReadOnly
 0001:00033A64       TCustomEdit.SetSelLength
 0001:00033A10       TCustomEdit.SetSelStart
 0001:00033F5C       TCustomEdit.WMSetFont
 0001:0002C92C       TCustomForm.Activate
 0001:0002C718       TCustomForm.ActiveChanged
 0001:0002B82C       TCustomForm.AlignControls
 0001:0002B0CC       TCustomForm.ChangeScale
 0001:0002D7D8       TCustomForm.Close
 0001:0002D880       TCustomForm.CloseQuery
 0001:0002D278       TCustomForm.CMActivate
 0001:0002CF74       TCustomForm.CMAppSysCommand
 0001:0002BDAC       TCustomForm.CMColorChanged
 0001:0002BDE8       TCustomForm.CMCtl3DChanged
 0001:0002D284       TCustomForm.CMDeactivate
 0001:0002D298       TCustomForm.CMDialogKey
 0001:0002BE30       TCustomForm.CMFontChanged
 0001:0002D6EC       TCustomForm.CMIconChanged
 0001:0002BE50       TCustomForm.CMMenuChanged
 0001:0002D76C       TCustomForm.CMParentFontChanged
 0001:0002D70C       TCustomForm.CMRelease
 0001:0002D334       TCustomForm.CMShowingChanged
 0001:0002D714       TCustomForm.CMTextChanged
 0001:0002D764       TCustomForm.CMUIActivate
 0001:0002A978       TCustomForm.Create
 0001:0002AB08       TCustomForm.CreateNew
 0001:0002BEAC       TCustomForm.CreateParams
 0001:0002C1D8       TCustomForm.CreateWindowHandle
 0001:0002C098       TCustomForm.CreateWnd
 0001:0002C94C       TCustomForm.Deactivate
 0001:0002C31C       TCustomForm.DefaultHandler
 0001:0002AFE0       TCustomForm.DefineProperties
 0001:0002C430       TCustomForm.DefocusControl
 0001:0002AC14       TCustomForm.Destroy
 0001:0002C2D8       TCustomForm.DestroyWindowHandle
 0001:0002B214       TCustomForm.DoHide
 0001:0002B234       TCustomForm.DoShow
 0001:0002C478       TCustomForm.FocusControl
 0001:0002B8D0       TCustomForm.GetActiveMDIChild
 0001:0002B9A0       TCustomForm.GetCanvas
 0001:0002B2DC       TCustomForm.GetChildren
 0001:0002B254       TCustomForm.GetClientRect
 0001:0002B904       TCustomForm.GetMDIChildCount
 0001:0002B950       TCustomForm.GetMDIChildren
 0001:0002BD0C       TCustomForm.GetPixelsPerInch
 0001:0002BD70       TCustomForm.GetScaled
 0001:0002D988       TCustomForm.Hide
 0001:0002B1E0       TCustomForm.IsAutoScrollStored
 0001:0002B1A8       TCustomForm.IsClientSizeStored
 0001:0002B9B4       TCustomForm.IsColorStored
 0001:0002B9E0       TCustomForm.IsForm
 0001:0002B1B8       TCustomForm.IsFormSizeStored
 0001:0002B9E8       TCustomForm.IsIconStored
 0001:0002AD3C       TCustomForm.Loaded
 0001:0002AD74       TCustomForm.Notification
 0001:0002C96C       TCustomForm.Paint
 0001:0002C9C8       TCustomForm.PaintWindow
 0001:0002CA78       TCustomForm.PaletteChanged
 0001:0002ADFC       TCustomForm.ReadState
 0001:0002DA18       TCustomForm.Release
 0001:0002C98C       TCustomForm.Resize
 0001:0002C7D0       TCustomForm.SendCancelMode
 0001:0002C380       TCustomForm.SetActiveControl
 0001:0002B86C       TCustomForm.SetBorderIcons
 0001:0002B898       TCustomForm.SetBorderStyle
 0001:0002B348       TCustomForm.SetChildOrder
 0001:0002B408       TCustomForm.SetClientHeight
 0001:0002B3DC       TCustomForm.SetClientWidth
 0001:0002D9A8       TCustomForm.SetFocus
 0001:0002C498       TCustomForm.SetFocusedControl
 0001:0002BA10       TCustomForm.SetFormStyle
 0001:0002B9A8       TCustomForm.SetIcon
 0001:0002BB48       TCustomForm.SetMenu
 0001:0002BB0C       TCustomForm.SetObjectMenuItem
 0001:0002B4C8       TCustomForm.SetParent
 0001:0002BD20       TCustomForm.SetPixelsPerInch
 0001:0002BD54       TCustomForm.SetPosition
 0001:0002BD7C       TCustomForm.SetScaled
 0001:0002B434       TCustomForm.SetVisible
 0001:0002BB20       TCustomForm.SetWindowMenu
 0001:0002BE6C       TCustomForm.SetWindowState
 0001:0002D990       TCustomForm.Show
 0001:0002DA34       TCustomForm.ShowModal
 0001:0002B500       TCustomForm.ValidateRename
 0001:0002B460       TCustomForm.VisibleChanging
 0001:0002B4C4       TCustomForm.WantChildKey
 0001:0002CEB4       TCustomForm.WMActivate
 0001:0002CF40       TCustomForm.WMClose
 0001:0002CDBC       TCustomForm.WMCommand
 0001:0002CD5C       TCustomForm.WMDestroy
 0001:0002D118       TCustomForm.WMEnterMenuLoop
 0001:0002CBE0       TCustomForm.WMEraseBkgnd
 0001:0002D174       TCustomForm.WMHelp
 0001:0002CB80       TCustomForm.WMIconEraseBkgnd
 0001:0002CDF0       TCustomForm.WMInitMenuPopup
 0001:0002D094       TCustomForm.WMMDIActivate
 0001:0002CE08       TCustomForm.WMMenuSelect
 0001:0002CD28       TCustomForm.WMNCCreate
 0001:0002D0EC       TCustomForm.WMNextDlgCtl
 0001:0002CB24       TCustomForm.WMPaint
 0001:0002CC18       TCustomForm.WMQueryDragIcon
 0001:0002CF48       TCustomForm.WMQueryEndSession
 0001:0002CFFC       TCustomForm.WMShowWindow
 0001:0002CED4       TCustomForm.WMSize
 0001:0002CFCC       TCustomForm.WMSysCommand
 0001:0002B53C       TCustomForm.WndProc
 0001:00075B0C       TCustomGrid.AdjustSize
 0001:00075C70       TCustomGrid.BoxRect
 0001:00075CE8       TCustomGrid.CanEditAcceptKey
 0001:00075CF0       TCustomGrid.CanEditModify
 0001:00075CF8       TCustomGrid.CanEditShow
 0001:00075CEC       TCustomGrid.CanGridAcceptKey
 0001:00075CC4       TCustomGrid.CellRect
 0001:0007A054       TCustomGrid.CMCancelMode
 0001:0007A0A4       TCustomGrid.CMCtl3DChanged
 0001:0007A0BC       TCustomGrid.CMDesignHitTest
 0001:0007A07C       TCustomGrid.CMFontChanged
 0001:0007A0E0       TCustomGrid.CMWantSpecialKey
 0001:00076174       TCustomGrid.ColumnMoved
 0001:0007A2A8       TCustomGrid.ColWidthsChanged
 0001:00075850       TCustomGrid.Create
 0001:00078914       TCustomGrid.CreateEditor
 0001:00078928       TCustomGrid.CreateParams
 0001:00076004       TCustomGrid.DefineProperties
 0001:00075998       TCustomGrid.Destroy
 0001:00075CA4       TCustomGrid.DoExit
 0001:000795D0       TCustomGrid.GetColWidths
 0001:00075DD4       TCustomGrid.GetEditLimit
 0001:00075DAC       TCustomGrid.GetEditMask
 0001:00075DBC       TCustomGrid.GetEditText
 0001:000795F0       TCustomGrid.GetRowHeights
 0001:00079610       TCustomGrid.GetSelection
 0001:00079630       TCustomGrid.GetTabStops
 0001:00079644       TCustomGrid.GetVisibleRowCount
 0001:00075DD8       TCustomGrid.HideEditor
 0001:00077988       TCustomGrid.InvalidateCell
 0001:00075E3C       TCustomGrid.InvalidateEditor
 0001:00078A54       TCustomGrid.KeyDown
 0001:00078E60       TCustomGrid.KeyPress
 0001:00076204       TCustomGrid.MouseCoord
 0001:00078EA0       TCustomGrid.MouseDown
 0001:000791A4       TCustomGrid.MouseMove
 0001:00079330       TCustomGrid.MouseUp
 0001:00076258       TCustomGrid.MoveColRow
 0001:000760A4       TCustomGrid.MoveColumn
 0001:00076178       TCustomGrid.MoveRow
 0001:00076860       TCustomGrid.Paint
 0001:0007A2C0       TCustomGrid.RowHeightsChanged
 0001:00076200       TCustomGrid.RowMoved
 0001:000782D0       TCustomGrid.ScrollData
 0001:00076270       TCustomGrid.SelectCell
 0001:00079668       TCustomGrid.SetBorderStyle
 0001:00079680       TCustomGrid.SetCol
 0001:0007969C       TCustomGrid.SetColCount
 0001:000796FC       TCustomGrid.SetColWidths
 0001:000797B0       TCustomGrid.SetDefaultRowHeight
 0001:00079910       TCustomGrid.SetEditorMode
 0001:00075DCC       TCustomGrid.SetEditText
 0001:000797F0       TCustomGrid.SetFixedCols
 0001:00079880       TCustomGrid.SetFixedRows
 0001:00079940       TCustomGrid.SetOptions
 0001:000799B8       TCustomGrid.SetRow
 0001:000799D4       TCustomGrid.SetRowCount
 0001:00079A14       TCustomGrid.SetRowHeights
 0001:00079AC8       TCustomGrid.SetScrollBars
 0001:00079AE0       TCustomGrid.SetTabStops
 0001:00079B6C       TCustomGrid.SetTopRow
 0001:00075DEC       TCustomGrid.ShowEditor
 0001:00075E00       TCustomGrid.ShowEditorChar
 0001:00076274       TCustomGrid.SizeChanged
 0001:00076278       TCustomGrid.Sizing
 0001:0007A10C       TCustomGrid.TimedScroll
 0001:000762D0       TCustomGrid.TopLeftChanged
 0001:0007A2D8       TCustomGrid.UpdateDesigner
 0001:00079DB8       TCustomGrid.WMChar
 0001:00079DE8       TCustomGrid.WMCommand
 0001:00079E20       TCustomGrid.WMGetDlgCode
 0001:0007A03C       TCustomGrid.WMHScroll
 0001:00079E50       TCustomGrid.WMKillFocus
 0001:00079EA0       TCustomGrid.WMLButtonDown
 0001:00079ECC       TCustomGrid.WMNCHitTest
 0001:00079F14       TCustomGrid.WMSetCursor
 0001:00079FBC       TCustomGrid.WMSetFocus
 0001:0007A00C       TCustomGrid.WMSize
 0001:0007A1B4       TCustomGrid.WMTimer
 0001:0007A024       TCustomGrid.WMVScroll
 0001:00032EC4       TCustomGroupBox.AlignControls
 0001:0003315C       TCustomGroupBox.CMCtl3DChanged
 0001:000330C8       TCustomGroupBox.CMDialogChar
 0001:00033144       TCustomGroupBox.CMTextChanged
 0001:00032E6C       TCustomGroupBox.Create
 0001:00032F2C       TCustomGroupBox.CreateParams
 0001:00032F40       TCustomGroupBox.Paint
 0001:0003317C       TCustomGroupBox.WMSize
 0001:00024938       TCustomImageList.Add
 0001:00024F50       TCustomImageList.AddImages
 0001:000249DC       TCustomImageList.AddMasked
 0001:00024F70       TCustomImageList.Assign
 0001:0002502C       TCustomImageList.AssignTo
 0001:00025274       TCustomImageList.BeginDrag
 0001:00025418       TCustomImageList.Change
 0001:00024DA0       TCustomImageList.Clear
 0001:0002441C       TCustomImageList.Create
 0001:00024460       TCustomImageList.CreateSize
 0001:00025624       TCustomImageList.DefineProperties
 0001:00024D14       TCustomImageList.Delete
 0001:000244AC       TCustomImageList.Destroy
 0001:000252D4       TCustomImageList.DragLock
 0001:0002535C       TCustomImageList.DragMove
 0001:00025338       TCustomImageList.DragUnlock
 0001:000253D0       TCustomImageList.EndDrag
 0001:00024DF8       TCustomImageList.GetBkColor
 0001:00024AF4       TCustomImageList.GetCount
 0001:00024784       TCustomImageList.GetHandle
 0001:000248B8       TCustomImageList.GetImageBitmap
 0001:000248F8       TCustomImageList.GetMaskBitmap
 0001:000245C4       TCustomImageList.HandleAllocated
 0001:000245CC       TCustomImageList.HandleNeeded
 0001:000253B8       TCustomImageList.HideDragImage
 0001:00024504       TCustomImageList.Initialize
 0001:00024B18       TCustomImageList.ReplaceMasked
 0001:00024DBC       TCustomImageList.SetBkColor
 0001:00025214       TCustomImageList.SetDragCursor
 0001:0002522C       TCustomImageList.SetDragImage
 0001:00024748       TCustomImageList.SetHandle
 0001:00024700       TCustomImageList.SetHeight
 0001:000246B8       TCustomImageList.SetWidth
 0001:000253A0       TCustomImageList.ShowDragImage
 0001:00025458       TCustomImageList.UnRegisterChanges
 0001:00033698       TCustomLabel.CMDialogChar
 0001:00033680       TCustomLabel.CMFontChanged
 0001:00033668       TCustomLabel.CMTextChanged
 0001:00033194       TCustomLabel.Create
 0001:00033200       TCustomLabel.GetLabelText
 0001:00033560       TCustomLabel.GetTransparent
 0001:00033470       TCustomLabel.Loaded
 0001:00033634       TCustomLabel.Notification
 0001:0003337C       TCustomLabel.Paint
 0001:00033528       TCustomLabel.SetAlignment
 0001:00033548       TCustomLabel.SetAutoSize
 0001:0003356C       TCustomLabel.SetFocusControl
 0001:000335EC       TCustomLabel.SetLayout
 0001:00033584       TCustomLabel.SetShowAccelChar
 0001:000335A4       TCustomLabel.SetTransparent
 0001:0003360C       TCustomLabel.SetWordWrap
 0001:000358AC       TCustomListBox.CMCtl3DChanged
 0001:00035498       TCustomListBox.CNCommand
 0001:000357BC       TCustomListBox.CNDrawItem
 0001:0003587C       TCustomListBox.CNMeasureItem
 0001:00034D58       TCustomListBox.Create
 0001:000351AC       TCustomListBox.CreateParams
 0001:00035294       TCustomListBox.CreateWnd
 0001:00034EC4       TCustomListBox.DeleteString
 0001:00034E30       TCustomListBox.Destroy
 0001:00035338       TCustomListBox.DestroyWnd
 0001:00035680       TCustomListBox.DragCanceled
 0001:000356DC       TCustomListBox.DrawItem
 0001:00034E78       TCustomListBox.GetItemData
 0001:00034FB0       TCustomListBox.GetItemHeight
 0001:00034F48       TCustomListBox.GetItemIndex
 0001:00035010       TCustomListBox.GetSelected
 0001:000350D4       TCustomListBox.GetTopIndex
 0001:00035124       TCustomListBox.ItemAtPos
 0001:00035798       TCustomListBox.MeasureItem
 0001:00034EE8       TCustomListBox.ResetContent
 0001:00034F98       TCustomListBox.SetIntegralHeight
 0001:00034E9C       TCustomListBox.SetItemData
 0001:00034FF4       TCustomListBox.SetItemHeight
 0001:00034F68       TCustomListBox.SetItemIndex
 0001:000350A4       TCustomListBox.SetSorted
 0001:000350BC       TCustomListBox.SetStyle
 0001:000350F4       TCustomListBox.SetTopIndex
 0001:000353FC       TCustomListBox.WMLButtonDown
 0001:00035638       TCustomListBox.WMPaint
 0001:00035668       TCustomListBox.WMSize
 0001:00035394       TCustomListBox.WndProc
 0001:0003A014       TCustomMaskEdit.CheckCursor
 0001:0003A6DC       TCustomMaskEdit.CMEnter
 0001:0003A838       TCustomMaskEdit.CMExit
 0001:0003A76C       TCustomMaskEdit.CMTextChanged
 0001:0003A7FC       TCustomMaskEdit.CMWantSpecialKey
 0001:00039650       TCustomMaskEdit.Create
 0001:0003A058       TCustomMaskEdit.EditCanModify
 0001:00039924       TCustomMaskEdit.GetEditText
 0001:00039C40       TCustomMaskEdit.GetMasked
 0001:00039DE4       TCustomMaskEdit.GetMaxLength
 0001:0003A498       TCustomMaskEdit.GetNextEditChar
 0001:0003A4C4       TCustomMaskEdit.GetPriorEditChar
 0001:00039E1C       TCustomMaskEdit.GetSel
 0001:0003998C       TCustomMaskEdit.GetText
 0001:0003993C       TCustomMaskEdit.GetTextLen
 0001:0003969C       TCustomMaskEdit.KeyDown
 0001:000397D8       TCustomMaskEdit.KeyPress
 0001:00039790       TCustomMaskEdit.KeyUp
 0001:00039C54       TCustomMaskEdit.ReformatText
 0001:0003A05C       TCustomMaskEdit.Reset
 0001:00039E6C       TCustomMaskEdit.SetCursor
 0001:00039D14       TCustomMaskEdit.SetEditMask
 0001:000398BC       TCustomMaskEdit.SetEditText
 0001:00039DEC       TCustomMaskEdit.SetMaxLength
 0001:00039E44       TCustomMaskEdit.SetSel
 0001:00039A18       TCustomMaskEdit.SetText
 0001:0003A870       TCustomMaskEdit.ValidateEdit
 0001:0003A904       TCustomMaskEdit.ValidateError
 0001:00039B20       TCustomMaskEdit.WMCut
 0001:00039818       TCustomMaskEdit.WMLButtonDown
 0001:00039838       TCustomMaskEdit.WMLButtonUp
 0001:00039B58       TCustomMaskEdit.WMPaste
 0001:00039898       TCustomMaskEdit.WMSetFocus
 0001:000344C4       TCustomMemo.Create
 0001:00034578       TCustomMemo.CreateParams
 0001:000345C8       TCustomMemo.CreateWindowHandle
 0001:00034544       TCustomMemo.Destroy
 0001:000346E4       TCustomMemo.KeyPress
 0001:00034628       TCustomMemo.Loaded
 0001:00034644       TCustomMemo.SetAlignment
 0001:0003465C       TCustomMemo.SetLines
 0001:00034670       TCustomMemo.SetScrollBars
 0001:00034688       TCustomMemo.SetWordWrap
 0001:000346A0       TCustomMemo.WMGetDlgCode
 0001:000346D8       TCustomMemo.WMNCDestroy
 0001:000113E4       TCustomMemoryStream.Read
 0001:00011428       TCustomMemoryStream.Seek
 0001:000113DC       TCustomMemoryStream.SetPointer
 0001:000375E0       TCustomPanel.AlignControls
 0001:00037470       TCustomPanel.CMCtl3DChanged
 0001:0003749C       TCustomPanel.CMIsToolControl
 0001:00037464       TCustomPanel.CMTextChanged
 0001:00037384       TCustomPanel.Create
 0001:00037410       TCustomPanel.CreateParams
 0001:00037664       TCustomPanel.Paint
 0001:000374B0       TCustomPanel.Resize
 0001:000377C0       TCustomPanel.SetAlignment
 0001:000377D4       TCustomPanel.SetBevelInner
 0001:000377F0       TCustomPanel.SetBevelOuter
 0001:0003780C       TCustomPanel.SetBevelWidth
 0001:00037844       TCustomPanel.SetBorderStyle
 0001:00037828       TCustomPanel.SetBorderWidth
 0001:000374D0       TCustomPanel.WMWindowPosChanged
 0001:000636B8       TCustomRichEdit.Clear
 0001:00063BAC       TCustomRichEdit.CMColorChanged
 0001:0006399C       TCustomRichEdit.CMFontChanged
 0001:00063D70       TCustomRichEdit.CNNotify
 0001:00063564       TCustomRichEdit.Create
 0001:000636D4       TCustomRichEdit.CreateParams
 0001:00063778       TCustomRichEdit.CreateWnd
 0001:00063658       TCustomRichEdit.Destroy
 0001:0006389C       TCustomRichEdit.DestroyWnd
 0001:000639B0       TCustomRichEdit.DoSetMaxLength
 0001:00063B94       TCustomRichEdit.GetPlainText
 0001:000639D4       TCustomRichEdit.GetSelLength
 0001:00063A00       TCustomRichEdit.GetSelStart
 0001:00063AA0       TCustomRichEdit.GetSelText
 0001:00063A2C       TCustomRichEdit.GetSelTextBuf
 0001:00063E80       TCustomRichEdit.RequestSize
 0001:00063E5C       TCustomRichEdit.SelectionChange
 0001:00063AE8       TCustomRichEdit.SetHideScrollBars
 0001:00063B00       TCustomRichEdit.SetHideSelection
 0001:00063BA0       TCustomRichEdit.SetPlainText
 0001:00063BDC       TCustomRichEdit.SetRichEditStrings
 0001:00063B34       TCustomRichEdit.SetSelLength
 0001:00063BEC       TCustomRichEdit.SetSelStart
 0001:00063968       TCustomRichEdit.WMNCDestroy
 0001:00063C18       TCustomRichEdit.WMPaint
 0001:00063CDC       TCustomRichEdit.WMSetCursor
 0001:00063988       TCustomRichEdit.WMSetFont
 0001:00050B64       TDatabase.Close
 0001:00050C24       TDatabase.CloseDataSets
 0001:000508F8       TDatabase.Create
 0001:000509AC       TDatabase.Destroy
 0001:00050C4C       TDatabase.GetAliasName
 0001:00050C74       TDatabase.GetConnected
 0001:00050C7C       TDatabase.GetDriverName
 0001:00050D1C       TDatabase.Loaded
 0001:00050D94       TDatabase.Notification
 0001:0005136C       TDatabase.Open
 0001:000515B4       TDatabase.SetAliasName
 0001:000515C0       TDatabase.SetConnected
 0001:000515E0       TDatabase.SetDatabaseName
 0001:00051650       TDatabase.SetDirectory
 0001:000516B0       TDatabase.SetDriverName
 0001:000516BC       TDatabase.SetHandle
 0001:0005178C       TDatabase.SetKeepConnection
 0001:000517A8       TDatabase.SetParams
 0001:000517C8       TDatabase.SetSessionName
 0001:00051810       TDatabase.SetTraceFlags
 0001:00051844       TDatabase.ValidateName
 0001:00042E70       TDataLink.ActiveChanged
 0001:00042E74       TDataLink.CheckBrowseMode
 0001:00042A8C       TDataLink.Create
 0001:00042E78       TDataLink.DataSetChanged
 0001:00042E84       TDataLink.DataSetScrolled
 0001:00042AC8       TDataLink.Destroy
 0001:00042CCC       TDataLink.Edit
 0001:00042E90       TDataLink.EditingChanged
 0001:00042E94       TDataLink.FocusControl
 0001:00042CEC       TDataLink.GetActiveRecord
 0001:00042B60       TDataLink.GetDataSet
 0001:00042D4C       TDataLink.GetRecordCount
 0001:00042E98       TDataLink.LayoutChanged
 0001:00042EA4       TDataLink.RecordChanged
 0001:00042D04       TDataLink.SetActiveRecord
 0001:00042D18       TDataLink.SetBufferCount
 0001:00042B70       TDataLink.SetDataSource
 0001:00042BE8       TDataLink.SetReadOnly
 0001:00042EA8       TDataLink.UpdateData
 0001:00042C88       TDataLink.UpdateRecord
 0001:000449D8       TDataSet.ActivateBuffers
 0001:000449A4       TDataSet.ActiveBuffer
 0001:00045060       TDataSet.Append
 0001:000440EC       TDataSet.BCDToCurr
 0001:00043A18       TDataSet.BindFields
 0001:000454AC       TDataSet.BookmarkAvailable
 0001:000455BC       TDataSet.BookmarkValid
 0001:00044B64       TDataSet.CalculateFields
 0001:0004513C       TDataSet.Cancel
 0001:00043780       TDataSet.CheckActive
 0001:0004565C       TDataSet.CheckBrowseMode
 0001:00043718       TDataSet.CheckInactive
 0001:000449BC       TDataSet.ClearBuffers
 0001:00044BB0       TDataSet.ClearCalcFields
 0001:0004370C       TDataSet.Close
 0001:000440E4       TDataSet.CloseBlob
 0001:00043944       TDataSet.CloseCursor
 0001:000455C0       TDataSet.CompareBookmarks
 0001:00043348       TDataSet.Create
 0001:000440E8       TDataSet.CreateBlobStream
 0001:000439AC       TDataSet.CreateFields
 0001:000440F0       TDataSet.CurrToBCD
 0001:00044A0C       TDataSet.CursorPosChanged
 0001:0004418C       TDataSet.DataEvent
 0001:000451A8       TDataSet.Delete
 0001:000433C8       TDataSet.Destroy
 0001:000439E8       TDataSet.DestroyFields
 0001:0004427C       TDataSet.DisableControls
 0001:000457A4       TDataSet.DoAfterCancel
 0001:000457C8       TDataSet.DoAfterClose
 0001:000457EC       TDataSet.DoAfterDelete
 0001:00045810       TDataSet.DoAfterEdit
 0001:00045834       TDataSet.DoAfterInsert
 0001:00045858       TDataSet.DoAfterOpen
 0001:0004587C       TDataSet.DoAfterPost
 0001:000458A0       TDataSet.DoAfterScroll
 0001:000458C4       TDataSet.DoBeforeCancel
 0001:000458E8       TDataSet.DoBeforeClose
 0001:0004590C       TDataSet.DoBeforeDelete
 0001:00045930       TDataSet.DoBeforeEdit
 0001:00045954       TDataSet.DoBeforeInsert
 0001:00045978       TDataSet.DoBeforeOpen
 0001:00045994       TDataSet.DoBeforePost
 0001:000459B8       TDataSet.DoBeforeScroll
 0001:000459DC       TDataSet.DoOnCalcFields
 0001:00045A00       TDataSet.DoOnNewRecord
 0001:00044F30       TDataSet.Edit
 0001:00044290       TDataSet.EnableControls
 0001:00043DAC       TDataSet.FieldByName
 0001:00043E34       TDataSet.FieldByNumber
 0001:00043E6C       TDataSet.FindField
 0001:000455F4       TDataSet.FindRecord
 0001:00044C3C       TDataSet.First
 0001:000455C4       TDataSet.FreeBookmark
 0001:00043C28       TDataSet.FreeFieldBuffers
 0001:000437D0       TDataSet.GetActive
 0001:000454E8       TDataSet.GetBookmark
 0001:00045524       TDataSet.GetBookmarkStr
 0001:00044B00       TDataSet.GetCalcFields
 0001:000456B8       TDataSet.GetCanModify
 0001:000435D8       TDataSet.GetChildren
 0001:00044A14       TDataSet.GetCurrentRecord
 0001:00044104       TDataSet.GetDataSource
 0001:00043C84       TDataSet.GetField
 0001:000439A0       TDataSet.GetFieldClass
 0001:00043C7C       TDataSet.GetFieldCount
 0001:00045718       TDataSet.GetFieldList
 0001:00043C94       TDataSet.GetFieldValue
 0001:000436DC       TDataSet.GetFound
 0001:000440FC       TDataSet.GetIsIndexField
 0001:00044684       TDataSet.GetNextRecord
 0001:00044A18       TDataSet.GetNextRecords
 0001:00044728       TDataSet.GetPriorRecord
 0001:00044A6C       TDataSet.GetPriorRecords
 0001:00045798       TDataSet.GetRecNo
 0001:00045794       TDataSet.GetRecordCount
 0001:00043FC8       TDataSet.GetStateFieldValue
 0001:00045564       TDataSet.GotoBookmark
 0001:00043950       TDataSet.InitFieldDefs
 0001:00044AC0       TDataSet.InitRecord
 0001:00044FB8       TDataSet.Insert
 0001:000455D0       TDataSet.InternalCancel
 0001:000455D4       TDataSet.InternalEdit
 0001:000455D8       TDataSet.InternalRefresh
 0001:00044AF4       TDataSet.IsEmpty
 0001:00044108       TDataSet.IsLinkedTo
 0001:000457A0       TDataSet.IsSequenced
 0001:00044CC4       TDataSet.Last
 0001:00043654       TDataSet.Loaded
 0001:0004563C       TDataSet.Locate
 0001:00045648       TDataSet.Lookup
 0001:00044D4C       TDataSet.MoveBy
 0001:00044ED8       TDataSet.Next
 0001:00043700       TDataSet.Open
 0001:00043920       TDataSet.OpenCursor
 0001:000450B8       TDataSet.Post
 0001:00044EE8       TDataSet.Prior
 0001:00044EF8       TDataSet.Refresh
 0001:00044BB4       TDataSet.RefreshInternalCalcFields
 0001:000436F4       TDataSet.RestoreState
 0001:000447A0       TDataSet.Resync
 0001:000437D8       TDataSet.SetActive
 0001:000455B0       TDataSet.SetBookmarkStr
 0001:00044338       TDataSet.SetBufListSize
 0001:00043620       TDataSet.SetChildOrder
 0001:00043EBC       TDataSet.SetConstraints
 0001:00044624       TDataSet.SetCurrentRecord
 0001:000455F8       TDataSet.SetFiltered
 0001:000455FC       TDataSet.SetFilterOptions
 0001:00045608       TDataSet.SetFilterText
 0001:000436E0       TDataSet.SetFound
 0001:000436D8       TDataSet.SetModified
 0001:00043454       TDataSet.SetName
 0001:00045620       TDataSet.SetOnFilterRecord
 0001:0004579C       TDataSet.SetRecNo
 0001:000436BC       TDataSet.SetState
 0001:0004403C       TDataSet.SetStateFieldValue
 0001:000436E4       TDataSet.SetTempState
 0001:000449B0       TDataSet.TempBuffer
 0001:000455DC       TDataSet.Translate
 0001:000449F4       TDataSet.UpdateCursorPos
 0001:00044100       TDataSet.UpdateIndexDefs
 0001:000442D8       TDataSet.UpdateRecord
 0001:0003DEEC       TDataSetDesigner.BeginDesign
 0001:0003DF24       TDataSetDesigner.EndDesign
 0001:00042EAC       TDataSource.Create
 0001:00042EF8       TDataSource.Destroy
 0001:00042F54       TDataSource.Edit
 0001:00042FE8       TDataSource.IsLinkedTo
 0001:00043018       TDataSource.SetDataSet
 0001:00043090       TDataSource.SetEnabled
 0001:00041364       TDateField.Create
 0001:000413A0       TDateField.GetDataSize
 0001:00041010       TDateTimeField.Create
 0001:0004104C       TDateTimeField.GetAsDateTime
 0001:00041074       TDateTimeField.GetAsFloat
 0001:0004108C       TDateTimeField.GetAsString
 0001:0004109C       TDateTimeField.GetAsVariant
 0001:000410D8       TDateTimeField.GetDataSize
 0001:000410E0       TDateTimeField.GetText
 0001:00041240       TDateTimeField.SetAsDateTime
 0001:00041294       TDateTimeField.SetAsFloat
 0001:000412A8       TDateTimeField.SetAsString
 0001:0004130C       TDateTimeField.SetDisplayFormat
 0001:00041340       TDateTimeField.SetVarValue
 0001:0008F010       TDBCtrlGrid.AcquireFocus
 0001:0008F050       TDBCtrlGrid.AdjustSize
 0001:00090D08       TDBCtrlGrid.CMChildKey
 0001:00090E04       TDBCtrlGrid.CMColorChanged
 0001:0008EEA4       TDBCtrlGrid.Create
 0001:0008F0D0       TDBCtrlGrid.CreatePanelBitmap
 0001:0008F168       TDBCtrlGrid.CreateParams
 0001:0008F194       TDBCtrlGrid.CreateWnd
 0001:0008F204       TDBCtrlGrid.DataSetChanged
 0001:0008EFB8       TDBCtrlGrid.Destroy
 0001:0008F3E4       TDBCtrlGrid.DestroyPanelBitmap
 0001:0008F43C       TDBCtrlGrid.DoKey
 0001:0008F6A8       TDBCtrlGrid.DrawPanel
 0001:0008F784       TDBCtrlGrid.DrawPanelBackground
 0001:000901C8       TDBCtrlGrid.FindNext
 0001:0008F824       TDBCtrlGrid.GetChildParent
 0001:0008F840       TDBCtrlGrid.GetChildren
 0001:0008F870       TDBCtrlGrid.GetDataSource
 0001:0008F890       TDBCtrlGrid.GetEditMode
 0001:0008F8D0       TDBCtrlGrid.GetPanelBounds
 0001:0008F988       TDBCtrlGrid.GetTabOrderList
 0001:0008F998       TDBCtrlGrid.KeyDown
 0001:0008FD38       TDBCtrlGrid.PaintPanel
 0001:0008FAD8       TDBCtrlGrid.PaintWindow
 0001:0008FD6C       TDBCtrlGrid.PointInPanel
 0001:0008FDC8       TDBCtrlGrid.ReadState
 0001:0008FDF4       TDBCtrlGrid.Reset
 0001:0008FE48       TDBCtrlGrid.Scroll
 0001:00090058       TDBCtrlGrid.ScrollMessage
 0001:0009030C       TDBCtrlGrid.SelectNext
 0001:000903F8       TDBCtrlGrid.SetBounds
 0001:000904D0       TDBCtrlGrid.SetColCount
 0001:0009051C       TDBCtrlGrid.SetDataSource
 0001:00090550       TDBCtrlGrid.SetEditMode
 0001:000905A4       TDBCtrlGrid.SetOrientation
 0001:000905E0       TDBCtrlGrid.SetPanelBorder
 0001:00090620       TDBCtrlGrid.SetPanelHeight
 0001:00090670       TDBCtrlGrid.SetPanelIndex
 0001:000906BC       TDBCtrlGrid.SetPanelWidth
 0001:0009070C       TDBCtrlGrid.SetRowCount
 0001:00090758       TDBCtrlGrid.SetSelectedColor
 0001:000907B0       TDBCtrlGrid.UpdateDataLinks
 0001:000908A4       TDBCtrlGrid.UpdateScrollBar
 0001:00090BF8       TDBCtrlGrid.WMEraseBkgnd
 0001:00090C80       TDBCtrlGrid.WMGetDlgCode
 0001:00090BC0       TDBCtrlGrid.WMHScroll
 0001:00090C58       TDBCtrlGrid.WMKillFocus
 0001:00090B84       TDBCtrlGrid.WMLButtonDblClk
 0001:000909F0       TDBCtrlGrid.WMLButtonDown
 0001:00090C14       TDBCtrlGrid.WMPaint
 0001:00090C30       TDBCtrlGrid.WMSetFocus
 0001:00090C9C       TDBCtrlGrid.WMSize
 0001:00090BDC       TDBCtrlGrid.WMVScroll
 0001:0008EAEC       TDBCtrlGridLink.ActiveChanged
 0001:0008EAA0       TDBCtrlGridLink.Create
 0001:0008EB04       TDBCtrlGridLink.DataSetChanged
 0001:0008ED3C       TDBCtrlPanel.CMControlListChange
 0001:0008EB1C       TDBCtrlPanel.CreateLinked
 0001:0008EB84       TDBCtrlPanel.CreateParams
 0001:0008EBA8       TDBCtrlPanel.PaintWindow
 0001:0008EE88       TDBCtrlPanel.WMEraseBkgnd
 0001:0008EE58       TDBCtrlPanel.WMNCHitTest
 0001:0008ED6C       TDBCtrlPanel.WMPaint
 0001:00054CFC       TDBDataSet.CheckOpen
 0001:00054C78       TDBDataSet.CloseCursor
 0001:00054D44       TDBDataSet.ConstraintsStored
 0001:00054D5C       TDBDataSet.Disconnect
 0001:00054D68       TDBDataSet.GetDBHandle
 0001:00054D7C       TDBDataSet.GetDBLocale
 0001:00054D90       TDBDataSet.GetDBSession
 0001:00054DC0       TDBDataSet.GetProvider
 0001:00054C44       TDBDataSet.OpenCursor
 0001:00054E58       TDBDataSet.OpenDatabase
 0001:00054E80       TDBDataSet.SetDatabaseName
 0001:00054F08       TDBDataSet.SetDBFlag
 0001:00055004       TDBDataSet.SetSessionName
 0001:00055030       TDBDataSet.SetUpdateMode
 0001:0004E0A0       TDBError.Create
 0001:0006556C       TDBNavigator.ActiveChanged
 0001:00065110       TDBNavigator.BtnClick
 0001:000655B4       TDBNavigator.CMEnabledChanged
 0001:00064958       TDBNavigator.Create
 0001:000653C0       TDBNavigator.DataChanged
 0001:00064A5C       TDBNavigator.Destroy
 0001:000654B4       TDBNavigator.EditingChanged
 0001:00064D94       TDBNavigator.GetChildren
 0001:00065608       TDBNavigator.GetDataSource
 0001:000652C0       TDBNavigator.KeyDown
 0001:00065614       TDBNavigator.Loaded
 0001:00064D9C       TDBNavigator.Notification
 0001:00064FA4       TDBNavigator.SetBounds
 0001:000655D4       TDBNavigator.SetDataSource
 0001:00064D44       TDBNavigator.SetFlat
 0001:00064D84       TDBNavigator.SetHints
 0001:00064DDC       TDBNavigator.SetVisible
 0001:000653B8       TDBNavigator.WMGetDlgCode
 0001:000652A4       TDBNavigator.WMKillFocus
 0001:00065288       TDBNavigator.WMSetFocus
 0001:00064FF4       TDBNavigator.WMSize
 0001:0001E888       TDragControlObject.Create
 0001:0001E90C       TDragControlObject.Finished
 0001:0001E8F4       TDragControlObject.GetDragCursor
 0001:0001E8A8       TDragControlObject.GetDragImages
 0001:0001E8B4       TDragControlObject.HideDragImage
 0001:0001E8D4       TDragControlObject.ShowDragImage
 0001:0001E7F8       TDragObject.Finished
 0001:0001E7E0       TDragObject.GetDragCursor
 0001:0001E7B0       TDragObject.GetDragImages
 0001:0001E788       TDragObject.GetName
 0001:0001E800       TDragObject.HideDragImage
 0001:0001E780       TDragObject.Instance
 0001:0001E804       TDragObject.ShowDragImage
 0002:00000324       TerminateProcList
 0002:00002043       Test8086
 0002:00002044       Test8087
 0001:0004A638       TExprParser.Create
 0001:0004A728       TExprParser.Destroy
 0001:000050C8       TextOut
 0001:0000C4AF       TextToFloat
 0001:00026B48       TextToShortCut
 0001:0003E520       TField.AccessError
 0001:0003E5C8       TField.Assign
 0001:0003E6C0       TField.AssignValue
 0001:0003E938       TField.Change
 0001:0003E95C       TField.CheckInactive
 0001:0003F928       TField.CheckTypeSize
 0001:0003E974       TField.Clear
 0001:0003E470       TField.Create
 0001:0003EA48       TField.DefineProperties
 0001:0003E4DC       TField.Destroy
 0001:0003EB0C       TField.FieldKindStored
 0001:0003EB14       TField.FocusControl
 0001:0003EB44       TField.FreeBuffers
 0001:0003EB48       TField.GetAsBoolean
 0001:0003EB78       TField.GetAsCurrency
 0001:0003EBA0       TField.GetAsDateTime
 0001:0003EBDC       TField.GetAsFloat
 0001:0003EC14       TField.GetAsInteger
 0001:0003EC44       TField.GetAsString
 0001:0003ED94       TField.GetAsVariant
 0001:0003EDC4       TField.GetCalculated
 0001:0003EDCC       TField.GetCanModify
 0001:0003EE10       TField.GetData
 0001:0003EED4       TField.GetDataSize
 0001:0003EED8       TField.GetDefaultWidth
 0001:0003EEE0       TField.GetDisplayLabel
 0001:0003EEF8       TField.GetDisplayName
 0001:0003EF24       TField.GetDisplayText
 0001:0003EF64       TField.GetDisplayWidth
 0001:0003EF7C       TField.GetEditText
 0001:0003EFBC       TField.GetHasConstraints
 0001:0003EFE0       TField.GetIndex
 0001:0003EFFC       TField.GetIsIndexField
 0001:0003F01C       TField.GetIsNull
 0001:0003F030       TField.GetLookup
 0001:0003F038       TField.GetLookupList
 0001:0003F0B0       TField.GetParentComponent
 0001:0003F05C       TField.GetText
 0001:0003F0AC       TField.HasParent
 0001:0003F018       TField.IsBlob
 0001:0003F0F0       TField.IsDisplayLabelStored
 0001:0003F100       TField.IsDisplayWidthStored
 0001:0003F0E0       TField.IsValidChar
 0001:0003F108       TField.Notification
 0001:0003F134       TField.PropertyChanged
 0001:0003F1F4       TField.ReadState
 0001:0003F22C       TField.RefreshLookupList
 0001:0003F554       TField.SetAlignment
 0001:0003F358       TField.SetAsBoolean
 0001:0003F388       TField.SetAsCurrency
 0001:0003F3B4       TField.SetAsDateTime
 0001:0003F3EC       TField.SetAsFloat
 0001:0003F420       TField.SetAsInteger
 0001:0003F450       TField.SetAsString
 0001:0003F480       TField.SetAsVariant
 0001:0003F568       TField.SetData
 0001:0003F5FC       TField.SetDataSet
 0001:0003F650       TField.SetDataType
 0001:0003F654       TField.SetDisplayLabel
 0001:0003F6CC       TField.SetDisplayWidth
 0001:0003F6E0       TField.SetEditMask
 0001:0003F700       TField.SetEditText
 0001:0003F730       TField.SetFieldKind
 0001:0003F798       TField.SetFieldName
 0001:0003F7E8       TField.SetFieldType
 0001:0003F7EC       TField.SetIndex
 0001:0003F8F0       TField.SetKeyFields
 0001:0003F910       TField.SetLookupCache
 0001:0003F84C       TField.SetLookupDataSet
 0001:0003F8B0       TField.SetLookupKeyFields
 0001:0003F8D0       TField.SetLookupResultField
 0001:0003F0B4       TField.SetParentComponent
 0001:0003F9B8       TField.SetReadOnly
 0001:0003F988       TField.SetSize
 0001:0003F9A8       TField.SetText
 0001:0003F9CC       TField.SetVarValue
 0001:0003F9FC       TField.SetVisible
 0001:0003FA10       TField.Validate
 0001:00064820       TFieldDataLink.ActiveChanged
 0001:000647C4       TFieldDataLink.Edit
 0001:00064840       TFieldDataLink.EditingChanged
 0001:00064868       TFieldDataLink.FocusControl
 0001:000647E4       TFieldDataLink.GetCanModify
 0001:000648D4       TFieldDataLink.LayoutChanged
 0001:0006480C       TFieldDataLink.Modified
 0001:000648AC       TFieldDataLink.RecordChanged
 0001:00064814       TFieldDataLink.Reset
 0001:00064718       TFieldDataLink.SetFieldName
 0001:000648E0       TFieldDataLink.UpdateData
 0001:0003DF9C       TFieldDef.Create
 0001:0003E058       TFieldDef.CreateField
 0001:0003E024       TFieldDef.Destroy
 0001:0003E170       TFieldDef.GetFieldClass
 0001:0003E1F4       TFieldDefs.Clear
 0001:0003E188       TFieldDefs.Create
 0001:0003E1C4       TFieldDefs.Destroy
 0001:0003E218       TFieldDefs.Find
 0001:0003E2AC       TFieldDefs.GetCount
 0001:0003E2B4       TFieldDefs.GetItem
 0001:0003E2C4       TFieldDefs.IndexOf
 0001:0003E308       TFieldDefs.Update
 0001:000117DC       TFiler.Create
 0001:0001181C       TFiler.Destroy
 0001:000112BC       TFileStream.Create
 0001:000113B4       TFileStream.Destroy
 0001:00049950       TFilterExpr.Create
 0001:0004997C       TFilterExpr.Destroy
 0001:00049A8C       TFilterExpr.GetFilterData
 0001:00049AE4       TFilterExpr.NewCompareNode
 0001:00049B74       TFilterExpr.NewNode
 0001:000407BC       TFloatField.Create
 0001:00040858       TFloatField.GetAsFloat
 0001:00040880       TFloatField.GetAsInteger
 0001:00040898       TFloatField.GetAsString
 0001:000408D4       TFloatField.GetAsVariant
 0001:00040910       TFloatField.GetDataSize
 0001:00040918       TFloatField.GetText
 0001:00040A28       TFloatField.SetAsFloat
 0001:00040A90       TFloatField.SetAsInteger
 0001:00040AB0       TFloatField.SetAsString
 0001:00040B6C       TFloatField.SetCurrency
 0001:00040B88       TFloatField.SetMaxValue
 0001:00040BA8       TFloatField.SetMinValue
 0001:00040BC8       TFloatField.SetPrecision
 0001:00040BF8       TFloatField.SetVarValue
 0001:00015FD4       TFont.Assign
 0001:00015FB8       TFont.Changed
 0001:00015F44       TFont.Create
 0001:00015F94       TFont.Destroy
 0001:0001642C       TFont.GetCharset
 0001:00016124       TFont.GetHandle
 0001:000162E4       TFont.GetHeight
 0001:00016314       TFont.GetName
 0001:000163FC       TFont.GetPitch
 0001:00016388       TFont.GetSize
 0001:000163C4       TFont.GetStyle
 0001:00016434       TFont.SetCharset
 0001:00016110       TFont.SetColor
 0001:000162C0       TFont.SetHandle
 0001:000162EC       TFont.SetHeight
 0001:0001632C       TFont.SetName
 0001:00016404       TFont.SetPitch
 0001:000163A4       TFont.SetSize
 0001:000163D0       TFont.SetStyle
 0001:0009123C       TForm1.correggi1Click
 0001:000911AC       TForm1.inserisci1Click
 0001:00091138       TForm1.leggi1Click
 0001:00091E24       TForm2.FormShow
 0001:00092060       TForm2.SpeedButton1Click
 0001:00091834       TForm3.DBNavigator1Click
 0001:00091C10       TForm3.FormKeyPress
 0001:00091624       TForm3.FormShow
 0001:00091970       TForm3.ShowHint
 0001:00091884       TForm3.SpeedButton1Click
 0001:00091B98       TForm3.wwDBComboBox1Enter
 0001:00091960       TForm3.wwDBComboBox1Exit
 0001:00091A30       TForm3.wwDBEdit1Enter
 0001:00091940       TForm3.wwDBEdit1focus
 0001:00091AA8       TForm3.wwDBEdit2Enter
 0001:00091950       TForm3.wwDBEdit2Exit
 0001:00091B20       TForm3.wwDBEdit3Enter
 0001:000919E4       TForm3.wwDBEdit3Exit
 0001:000189E8       TGraphic.Changed
 0001:000189B8       TGraphic.Create
 0001:00018A58       TGraphic.DefineProperties
 0001:00018AA4       TGraphic.Equals
 0001:00018BE8       TGraphic.GetPalette
 0001:00018BEC       TGraphic.GetTransparent
 0001:00018BF0       TGraphic.LoadFromFile
 0001:00018C44       TGraphic.Progress
 0001:00018C6C       TGraphic.ReadData
 0001:00018C78       TGraphic.SaveToFile
 0001:00018CD0       TGraphic.SetPalette
 0001:00018CD4       TGraphic.SetTransparent
 0001:00018CE4       TGraphic.WriteData
 0001:00023D10       TGraphicControl.Create
 0001:00023D64       TGraphicControl.Destroy
 0001:00023E38       TGraphicControl.Paint
 0001:00023D94       TGraphicControl.WMPaint
 0001:0004264C       TGraphicField.Create
 0001:00015C88       TGraphicsObject.Changed
 0001:00015C9C       TGraphicsObject.Lock
 0001:00015CAC       TGraphicsObject.Unlock
 0001:00011260       THandleStream.Read
 0001:00011288       THandleStream.Seek
 0001:00011298       THandleStream.SetSize
 0001:00011274       THandleStream.Write
 0001:00024134       THintWindow.ActivateHint
 0001:000241F4       THintWindow.ActivateHintData
 0001:00024220       THintWindow.CalcHintRect
 0001:000240AC       THintWindow.CMTextChanged
 0001:00023E3C       THintWindow.Create
 0001:00023EE0       THintWindow.CreateParams
 0001:00024040       THintWindow.IsHintMsg
 0001:00023FAC       THintWindow.Paint
 0001:000240A4       THintWindow.ReleaseHandle
 0001:00023F0C       THintWindow.WMNCHitTest
 0001:00023F14       THintWindow.WMNCPaint
 0002:000024D2       ThousandSeparator
 0001:0001C9F4       TIcon.Assign
 0001:0001C974       TIcon.Create
 0001:0001C9C8       TIcon.Destroy
 0001:0001CA54       TIcon.Draw
 0001:0001CA8C       TIcon.GetEmpty
 0001:0001CAA4       TIcon.GetHandle
 0001:0001CAB8       TIcon.GetHeight
 0001:0001CAC0       TIcon.GetWidth
 0001:0001CDE0       TIcon.LoadFromClipboardFormat
 0001:0001CBE4       TIcon.LoadFromStream
 0001:0001CE2C       TIcon.SaveToClipboardFormat
 0001:0001CDB4       TIcon.SaveToStream
 0001:0001CD0C       TIcon.SetHandle
 0001:0001CD24       TIcon.SetHeight
 0001:0001CD6C       TIcon.SetWidth
 0001:0001C930       TIconImage.Destroy
 0001:0001C95C       TIconImage.FreeHandle
 0001:0003692C       TImage.Create
 0001:00036A08       TImage.DestRect
 0001:000369BC       TImage.Destroy
 0001:00036B68       TImage.DoPaletteChange
 0001:000369EC       TImage.GetPalette
 0001:00036AA8       TImage.Paint
 0001:00036C00       TImage.Progress
 0001:00036C64       TImage.SetAutoSize
 0001:00036C74       TImage.SetCenter
 0001:00036C8C       TImage.SetPicture
 0001:00036C9C       TImage.SetStretch
 0001:00036CB4       TImage.SetTransparent
 0001:00007FD0       Time
 0002:000024E4       TimeAMString
 0002:000024E8       TimePMString
 0002:000024E0       TimeSeparator
 0001:00007998       TimeStampToDateTime
 0001:000079E4       TimeStampToMSecs
 0001:00008CE0       TimeToStr
 0001:00042688       TIndexDef.Create
 0001:000426E8       TIndexDef.Destroy
 0001:0004271C       TIndexDef.GetFields
 0001:000427B0       TIndexDefs.Add
 0001:0004283C       TIndexDefs.Clear
 0001:00042744       TIndexDefs.Create
 0001:00042780       TIndexDefs.Destroy
 0001:00042860       TIndexDefs.FindIndexForFields
 0001:000428EC       TIndexDefs.GetCount
 0001:000428F4       TIndexDefs.GetIndexForFields
 0001:00042A28       TIndexDefs.GetItem
 0001:00042A38       TIndexDefs.IndexOf
 0001:00042A7C       TIndexDefs.Update
 0001:000550C0       TIndexFiles.Add
 0001:000550FC       TIndexFiles.Clear
 0001:00055084       TIndexFiles.Create
 0001:000551C4       TIndexFiles.Delete
 0001:0005518C       TIndexFiles.Insert
 0001:000756E4       TInplaceEdit.BoundsChanged
 0001:00074F8C       TInplaceEdit.CMShowingChanged
 0001:00074F18       TInplaceEdit.Create
 0001:00074F70       TInplaceEdit.CreateParams
 0001:00075028       TInplaceEdit.DblClick
 0001:00075528       TInplaceEdit.Deselect
 0001:00075040       TInplaceEdit.EditCanModify
 0001:000755D8       TInplaceEdit.Hide
 0001:0007554C       TInplaceEdit.Invalidate
 0001:0007519C       TInplaceEdit.KeyDown
 0001:000753A8       TInplaceEdit.KeyPress
 0001:00075490       TInplaceEdit.KeyUp
 0001:00075768       TInplaceEdit.Move
 0001:00075774       TInplaceEdit.SetFocus
 0001:0007579C       TInplaceEdit.UpdateContents
 0001:00075740       TInplaceEdit.UpdateLoc
 0001:0007574C       TInplaceEdit.Visible
 0001:00074FE0       TInplaceEdit.WMClear
 0001:00075004       TInplaceEdit.WMCut
 0001:00074F90       TInplaceEdit.WMGetDlgCode
 0001:00074FBC       TInplaceEdit.WMPaste
 0001:000754B0       TInplaceEdit.WndProc
 0001:00040268       TIntegerField.Create
 0001:00040338       TIntegerField.GetAsFloat
 0001:0004035C       TIntegerField.GetAsInteger
 0001:00040380       TIntegerField.GetAsString
 0001:000403C8       TIntegerField.GetAsVariant
 0001:00040400       TIntegerField.GetDataSize
 0001:00040408       TIntegerField.GetText
 0001:000404EC       TIntegerField.GetValue
 0001:00040530       TIntegerField.SetAsFloat
 0001:0004054C       TIntegerField.SetAsInteger
 0001:000405A4       TIntegerField.SetAsString
 0001:00040658       TIntegerField.SetMaxValue
 0001:00040684       TIntegerField.SetMinValue
 0001:000406B0       TIntegerField.SetVarValue
 0001:00004170       TInterfacedObject.QueryInterface
 0001:00004198       TInterfacedObject._AddRef
 0001:000041A8       TInterfacedObject._Release
 0001:0000E96C       TList.Add
 0001:0000E994       TList.Clear
 0001:0000E9B0       TList.Delete
 0001:0000E948       TList.Destroy
 0001:0000EA34       TList.Error
 0001:0000EA6C       TList.Expand
 0001:0000EA88       TList.First
 0001:0000EA94       TList.Get
 0001:0000EAF8       TList.Grow
 0001:0000EB30       TList.IndexOf
 0001:0000EB50       TList.Insert
 0001:0000EBF0       TList.Last
 0001:0000EC00       TList.Move
 0001:0000EC8C       TList.Put
 0001:0000ECF4       TList.Remove
 0001:0000ED18       TList.SetCapacity
 0001:0000ED8C       TList.SetCount
 0001:0004B878       TLoginDialog.FormShow
 0001:0003E380       TLookupList.Add
 0001:0003E3C4       TLookupList.Clear
 0001:0003E318       TLookupList.Create
 0001:0003E350       TLookupList.Destroy
 0001:0003E400       TLookupList.ValueOfKey
 0002:000024B0       TlsIndex
 0002:FFB6C008       TlsLast
 0001:00027EDC       TMainMenu.GetHandle
 0001:00027E5C       TMainMenu.MenuChanged
 0001:00027E7C       TMainMenu.Merge
 0001:00027E3C       TMainMenu.SetAutoMerge
 0001:00027E98       TMainMenu.Unmerge
 0001:0004AEA0       TMasterDataLink.ActiveChanged
 0001:0004AF6C       TMasterDataLink.CheckBrowseMode
 0001:0004AE28       TMasterDataLink.Create
 0001:0004AE70       TMasterDataLink.Destroy
 0001:0004AF8C       TMasterDataLink.LayoutChanged
 0001:0004AF98       TMasterDataLink.RecordChanged
 0001:0004AFE4       TMasterDataLink.SetFieldNames
 0001:00042608       TMemoField.Create
 0001:0001147C       TMemoryStream.Clear
 0001:0001144C       TMemoryStream.Destroy
 0001:000114F4       TMemoryStream.Realloc
 0001:00011498       TMemoryStream.SetCapacity
 0001:000114C4       TMemoryStream.SetSize
 0001:000115B4       TMemoryStream.Write
 0001:00027990       TMenu.Create
 0001:000279F0       TMenu.Destroy
 0001:00027B98       TMenu.DispatchCommand
 0001:00027BBC       TMenu.DispatchPopup
 0001:00027AF8       TMenu.FindItem
 0001:00027A1C       TMenu.GetChildren
 0001:00027A38       TMenu.GetHandle
 0001:00027B28       TMenu.GetHelpContext
 0001:00027C6C       TMenu.IsShortCut
 0001:00027E38       TMenu.MenuChanged
 0001:00027A44       TMenu.SetChildOrder
 0001:00027E2C       TMenu.SetWindowHandle
 0001:0002780C       TMenuItem.Add
 0001:000277D8       TMenuItem.Click
 0001:00026DC8       TMenuItem.Create
 0001:0002734C       TMenuItem.DefineProperties
 0001:00027770       TMenuItem.Delete
 0001:00026E08       TMenuItem.Destroy
 0001:000275C0       TMenuItem.GetChildren
 0001:00027518       TMenuItem.GetCount
 0001:000272B8       TMenuItem.GetHandle
 0001:00027528       TMenuItem.GetItem
 0001:00027560       TMenuItem.GetMenuIndex
 0001:000278FC       TMenuItem.GetParentComponent
 0001:00027390       TMenuItem.HasParent
 0001:000277F4       TMenuItem.IndexOf
 0001:00027674       TMenuItem.Insert
 0001:00027898       TMenuItem.MenuChanged
 0001:00027828       TMenuItem.Remove
 0001:00027394       TMenuItem.SetBreak
 0001:000273A4       TMenuItem.SetCaption
 0001:00027414       TMenuItem.SetChecked
 0001:000275F8       TMenuItem.SetChildOrder
 0001:00027618       TMenuItem.SetDefault
 0001:00027460       TMenuItem.SetEnabled
 0001:000274D4       TMenuItem.SetGroupIndex
 0001:00027578       TMenuItem.SetMenuIndex
 0001:00027910       TMenuItem.SetParentComponent
 0001:00027964       TMenuItem.SetRadioItem
 0001:00027548       TMenuItem.SetShortCut
 0001:00027554       TMenuItem.SetVisible
 0001:00019888       TMetafile.Assign
 0001:0001981C       TMetafile.Create
 0001:0001985C       TMetafile.Destroy
 0001:0001991C       TMetafile.Draw
 0001:000199B0       TMetafile.GetEmpty
 0001:000199B8       TMetafile.GetHeight
 0001:00019A1C       TMetafile.GetPalette
 0001:00019AA8       TMetafile.GetWidth
 0001:0001A318       TMetafile.LoadFromClipboardFormat
 0001:00019B0C       TMetafile.LoadFromStream
 0001:00019B88       TMetafile.ReadData
 0001:00019BE4       TMetafile.ReadEMFStream
 0001:00019CB4       TMetafile.ReadWMFStream
 0001:0001A3D8       TMetafile.SaveToClipboardFormat
 0001:00019DDC       TMetafile.SaveToFile
 0001:00019E68       TMetafile.SaveToStream
 0001:00019E84       TMetafile.SetHeight
 0001:00019EF8       TMetafile.SetMMHeight
 0001:00019F34       TMetafile.SetMMWidth
 0001:00019F70       TMetafile.SetWidth
 0001:00019FE4       TMetafile.TestEMF
 0001:0001A0C8       TMetafile.WriteData
 0001:0001A14C       TMetafile.WriteEMFStream
 0001:0001A1D0       TMetafile.WriteWMFStream
 0001:000197E0       TMetafileImage.Destroy
 0001:00019818       TMetafileImage.FreeHandle
 0001:00065678       TNavButton.Destroy
 0001:000656B0       TNavButton.MouseDown
 0001:00065728       TNavButton.MouseUp
 0001:000657D8       TNavButton.Paint
 0001:000658F0       TNavDataLink.ActiveChanged
 0001:00065860       TNavDataLink.Create
 0001:000658DC       TNavDataLink.DataSetChanged
 0001:0006589C       TNavDataLink.Destroy
 0001:000658C8       TNavDataLink.EditingChanged
 0001:00040128       TNumericField.Create
 0001:00040164       TNumericField.RangeError
 0001:00040200       TNumericField.SetDisplayFormat
 0001:00040234       TNumericField.SetEditFormat
 0001:00001F8C       TObject.ClassInfo
 0001:00001D64       TObject.ClassName
 0001:00001D78       TObject.ClassNameIs
 0001:00001DA0       TObject.ClassParent
 0001:00001D60       TObject.ClassType
 0001:00001DE8       TObject.Create
 0001:00001F98       TObject.DefaultHandler
 0001:00001E04       TObject.Destroy
 0001:00001F9C       TObject.Dispatch
 0001:00002014       TObject.FieldAddress
 0001:00001E10       TObject.Free
 0001:00001DC0       TObject.FreeInstance
 0001:00001E70       TObject.GetInterface
 0001:00001EA0       TObject.GetInterfaceEntry
 0001:00001F78       TObject.InheritsFrom
 0001:00001E1C       TObject.InitInstance
 0001:00001FC4       TObject.MethodAddress
 0001:00001DAC       TObject.NewInstance
 0001:00001F90       TObject.SafeCallException
 0001:00061334       ToolWin
 0002:000028D4       totE
 0002:000028DC       totM
 0001:000628D8       TParaAttributes.Assign
 0001:0006253C       TParaAttributes.Create
 0001:00062600       TParaAttributes.GetAlignment
 0001:000626F8       TParaAttributes.GetFirstIndent
 0001:00062768       TParaAttributes.GetLeftIndent
 0001:00062668       TParaAttributes.GetNumbering
 0001:000627D8       TParaAttributes.GetRightIndent
 0001:00062848       TParaAttributes.GetTab
 0001:00062620       TParaAttributes.SetAlignment
 0001:00062720       TParaAttributes.SetFirstIndent
 0001:00062790       TParaAttributes.SetLeftIndent
 0001:00062688       TParaAttributes.SetNumbering
 0001:00062800       TParaAttributes.SetRightIndent
 0001:00062874       TParaAttributes.SetTab
 0001:00057F5C       TParam.Assign
 0001:000580A8       TParam.AssignField
 0001:0005804C       TParam.AssignParam
 0001:00058018       TParam.AssignTo
 0001:00058150       TParam.Clear
 0001:000574E8       TParam.Create
 0001:00057534       TParam.Destroy
 0001:0005820C       TParam.GetAsBCD
 0001:00058308       TParam.GetAsDateTime
 0001:000579D0       TParam.GetData
 0001:000575E0       TParam.GetDataSize
 0001:0005755C       TParam.IsEqual
 0001:000583B8       TParam.LoadFromStream
 0001:0005773C       TParam.RecBufDataSize
 0001:00057890       TParam.RecBufGetData
 0001:000581E8       TParam.SetAsBCD
 0001:0005835C       TParam.SetAsBlob
 0001:0005817C       TParam.SetAsBoolean
 0001:000581CC       TParam.SetAsCurrency
 0001:000582A4       TParam.SetAsDate
 0001:000582EC       TParam.SetAsDateTime
 0001:000581A4       TParam.SetAsFloat
 0001:0005822C       TParam.SetAsInteger
 0001:00058334       TParam.SetAsMemo
 0001:00058268       TParam.SetAsSmallInt
 0001:0005827C       TParam.SetAsString
 0001:000582D0       TParam.SetAsTime
 0001:00058254       TParam.SetAsWord
 0001:00057C0C       TParam.SetBlobData
 0001:00057C74       TParam.SetData
 0001:000575C4       TParam.SetDataType
 0001:00056ED0       TParams.AddParam
 0001:00056D94       TParams.Assign
 0001:00056E10       TParams.AssignTo
 0001:00056E44       TParams.AssignValues
 0001:00056FB4       TParams.Clear
 0001:00056F40       TParams.Count
 0001:00056D24       TParams.Create
 0001:00056F04       TParams.CreateParam
 0001:000570DC       TParams.DefineProperties
 0001:00056D5C       TParams.Destroy
 0001:00056FD8       TParams.GetParam
 0001:00056F48       TParams.IsEqual
 0001:00056FFC       TParams.ParamByName
 0001:00056EEC       TParams.RemoveParam
 0001:0004B404       TPasswordDialog.AddButtonClick
 0001:0004B37C       TPasswordDialog.EditChange
 0001:0004B52C       TPasswordDialog.OKButtonClick
 0001:0004B500       TPasswordDialog.RemoveAllButtonClick
 0001:0004B484       TPasswordDialog.RemoveButtonClick
 0001:000164BC       TPen.Assign
 0001:0001645C       TPen.Create
 0001:00016498       TPen.Destroy
 0001:000165DC       TPen.GetColor
 0001:0001660C       TPen.GetHandle
 0001:000166DC       TPen.GetStyle
 0001:0001670C       TPen.GetWidth
 0001:000165E4       TPen.SetColor
 0001:000166A4       TPen.SetHandle
 0001:000166C8       TPen.SetMode
 0001:000166E4       TPen.SetStyle
 0001:00016714       TPen.SetWidth
 0001:0000F1F0       TPersistent.Assign
 0001:0000F2F8       TPersistent.AssignTo
 0001:0000F304       TPersistent.DefineProperties
 0001:0000F1C0       TPersistent.Destroy
 0001:0000F308       TPersistent.GetNamePath
 0001:0000F3B8       TPersistent.GetOwner
 0001:000194F8       TPicture.Assign
 0001:00019240       TPicture.AssignTo
 0001:00019554       TPicture.Changed
 0001:000191DC       TPicture.Create
 0001:00019764       TPicture.DefineProperties
 0001:00019214       TPicture.Destroy
 0001:000192D8       TPicture.GetBitmap
 0001:000197C8       TPicture.GetHeight
 0001:000192F0       TPicture.GetIcon
 0001:000197B0       TPicture.GetWidth
 0001:000193B4       TPicture.LoadFromClipboardFormat
 0001:00019578       TPicture.Progress
 0001:000194B4       TPicture.SaveToClipboardFormat
 0001:00019308       TPicture.SetGraphic
 0001:000194E0       TPicture.SupportsClipboardFormat
 0001:000281B8       TPopupMenu.Create
 0001:00028210       TPopupMenu.Destroy
 0001:00028254       TPopupMenu.GetHelpContext
 0001:00028264       TPopupMenu.Popup
 0001:0002825C       TPopupMenu.SetHelpContext
 0001:0005916C       TQuery.Create
 0001:00059B08       TQuery.CreateHandle
 0001:00059544       TQuery.DefineProperties
 0001:00059200       TQuery.Destroy
 0001:00059264       TQuery.Disconnect
 0001:0005930C       TQuery.GetDataSource
 0001:0005A048       TQuery.GetRowsAffected
 0001:000592A0       TQuery.SetDataSource
 0001:00059E0C       TQuery.SetDBFlag
 0001:00059534       TQuery.SetParamsList
 0001:00059318       TQuery.SetQuery
 0001:0005927C       TQuery.UnPrepare
 0001:000055C0       TrackPopupMenu
 0001:00009C2C       TranslateDateFormat
 0001:000055C8       TranslateMDISysAccel
 0001:000055D0       TranslateMessage
 0001:00017ACC       TransparentStretchBlt
 0001:00011D18       TReader.DefineBinaryProperty
 0001:00011CE4       TReader.DefineProperty
 0001:00011C80       TReader.Destroy
 0001:00011DF4       TReader.EndOfList
 0001:00011E0C       TReader.Error
 0001:0001374C       TReader.FindAncestorComponent
 0001:00011E34       TReader.FindMethod
 0001:00011FA0       TReader.FlushBuffer
 0001:00012004       TReader.GetPosition
 0001:00012020       TReader.NextValue
 0001:00012044       TReader.Read
 0001:00012108       TReader.ReadBoolean
 0001:00012120       TReader.ReadChar
 0001:000121A4       TReader.ReadCollection
 0001:0001244C       TReader.ReadComponent
 0001:00012708       TReader.ReadFloat
 0001:0001274C       TReader.ReadIdent
 0001:00012804       TReader.ReadInteger
 0001:00012870       TReader.ReadListBegin
 0001:0001287C       TReader.ReadListEnd
 0001:00012888       TReader.ReadPrefix
 0001:00013018       TReader.ReadRootComponent
 0001:000132F4       TReader.ReadSignature
 0001:0001335C       TReader.ReadStr
 0001:000133A0       TReader.ReadString
 0001:00013404       TReader.ReadValue
 0001:0001380C       TReader.ReferenceName
 0001:00013828       TReader.SetName
 0001:0005AECC       TRegIniFile.Create
 0001:0005AF18       TRegIniFile.ReadString
 0001:0005AAA8       TRegistry.ChangeKey
 0001:0005AA44       TRegistry.CloseKey
 0001:0005A9D8       TRegistry.Create
 0001:0005AA14       TRegistry.Destroy
 0001:0005AAD0       TRegistry.GetBaseKey
 0001:0005ADA4       TRegistry.GetData
 0001:0005AC34       TRegistry.GetDataInfo
 0001:0005AC88       TRegistry.GetDataSize
 0001:0005AE0C       TRegistry.GetKey
 0001:0005AAE8       TRegistry.OpenKey
 0001:0005ACB4       TRegistry.ReadString
 0001:0005AAE4       TRegistry.SetCurrentKey
 0001:0005AA78       TRegistry.SetRootKey
 0001:0005ADF8       TRegistry.ValueExists
 0001:0001160C       TResourceStream.Create
 0001:0001174C       TResourceStream.Destroy
 0001:00011784       TResourceStream.Write
 0001:00006658       Trim
 0001:0002DD68       TScreen.Create
 0001:0002DF04       TScreen.Destroy
 0001:0002E33C       TScreen.GetCursors
 0001:0002E328       TScreen.GetDataModule
 0001:0002E334       TScreen.GetDataModuleCount
 0001:0002DF78       TScreen.GetForm
 0001:0002DF84       TScreen.GetFormCount
 0001:0002DF68       TScreen.GetHeight
 0001:0002DF70       TScreen.GetWidth
 0001:0002E364       TScreen.SetCursor
 0001:0002A498       TScrollingWinControl.AlignControls
 0001:0002A68C       TScrollingWinControl.AutoScrollInView
 0001:0002A89C       TScrollingWinControl.ChangeScale
 0001:0002A3D8       TScrollingWinControl.Create
 0001:0002A474       TScrollingWinControl.CreateParams
 0001:0002A484       TScrollingWinControl.CreateWnd
 0001:0002A43C       TScrollingWinControl.Destroy
 0001:0002A6A4       TScrollingWinControl.ScrollInView
 0001:0002A540       TScrollingWinControl.SetAutoScroll
 0001:0002A57C       TScrollingWinControl.SetHorzScrollBar
 0001:0002A588       TScrollingWinControl.SetVertScrollBar
 0001:0002A930       TScrollingWinControl.WMHScroll
 0001:0002A8C0       TScrollingWinControl.WMSize
 0001:0002A954       TScrollingWinControl.WMVScroll
 0001:0004E790       TSession.AddPassword
 0001:0004E8C8       TSession.CloseDatabase
 0001:0004E698       TSession.Create
 0001:0004E718       TSession.Destroy
 0001:0004EBFC       TSession.FindDatabase
 0001:0004ED24       TSession.GetActive
 0001:0004ED2C       TSession.GetAliasDriverName
 0001:0004EE30       TSession.GetAliasParams
 0001:0005014C       TSession.GetConfigMode
 0001:0004EFF8       TSession.GetConfigParams
 0001:0004F178       TSession.GetDriverParams
 0001:0004F370       TSession.GetHandle
 0001:0004F39C       TSession.GetNetFileDir
 0001:0004F574       TSession.GetPassword
 0001:0004F494       TSession.GetPrivateDir
 0001:0004F9AC       TSession.Loaded
 0001:0004FA98       TSession.Notification
 0001:0004FB90       TSession.OpenDatabase
 0001:0004FEDC       TSession.RemoveAllPasswords
 0001:0004FF20       TSession.RemovePassword
 0001:0004FB9C       TSession.SessionNameStored
 0001:0005000C       TSession.SetActive
 0001:00050038       TSession.SetAutoSessionName
 0001:000501A4       TSession.SetConfigMode
 0001:00050204       TSession.SetName
 0001:00050224       TSession.SetNetFileDir
 0001:000502B4       TSession.SetPrivateDir
 0001:00050334       TSession.SetSessionName
 0001:00050480       TSession.SetTraceFlags
 0001:0004E4CC       TSessionList.Create
 0001:0004E528       TSessionList.Destroy
 0001:0004E63C       TSessionList.FindSession
 0001:0004E5B8       TSessionList.GetSessionByName
 0001:0001A7B4       TSharedImage.Reference
 0001:0001A7B8       TSharedImage.Release
 0001:000406D0       TSmallintField.Create
 0001:00040720       TSmallintField.GetDataSize
 0001:000606C4       TSpeedButton.Click
 0001:000608FC       TSpeedButton.CMButtonPressed
 0001:00060948       TSpeedButton.CMDialogChar
 0001:000608D0       TSpeedButton.CMEnabledChanged
 0001:000609C4       TSpeedButton.CMFontChanged
 0001:000609F8       TSpeedButton.CMMouseEnter
 0001:00060A2C       TSpeedButton.CMMouseLeave
 0001:000609D4       TSpeedButton.CMSysColorChange
 0001:000609CC       TSpeedButton.CMTextChanged
 0001:00060170       TSpeedButton.Create
 0001:00060214       TSpeedButton.Destroy
 0001:000606E0       TSpeedButton.GetGlyph
 0001:00060704       TSpeedButton.GetNumGlyphs
 0001:000606CC       TSpeedButton.GetPalette
 0001:000604D0       TSpeedButton.Loaded
 0001:000604F8       TSpeedButton.MouseDown
 0001:00060548       TSpeedButton.MouseMove
 0001:000605D8       TSpeedButton.MouseUp
 0001:00060264       TSpeedButton.Paint
 0001:00060898       TSpeedButton.SetAllowAllUp
 0001:0006077C       TSpeedButton.SetDown
 0001:000607E8       TSpeedButton.SetFlat
 0001:000606EC       TSpeedButton.SetGlyph
 0001:0006082C       TSpeedButton.SetGroupIndex
 0001:00060840       TSpeedButton.SetLayout
 0001:0006085C       TSpeedButton.SetMargin
 0001:00060710       TSpeedButton.SetNumGlyphs
 0001:0006087C       TSpeedButton.SetSpacing
 0001:000608AC       TSpeedButton.WMLButtonDblClk
 0001:0005B35C       TStackPtr.count
 0001:0005B328       TStackPtr.create
 0001:0005B364       TStackPtr.destroy
 0001:0005B394       TStackPtr.pop
 0001:0005B388       TStackPtr.push
 0001:0005B284       TStackStr.count
 0001:0005B21C       TStackStr.create
 0001:0005B260       TStackStr.destroy
 0001:0005B2DC       TStackStr.pop
 0001:0005B290       TStackStr.push
 0001:000584E4       TStoredProc.Create
 0001:000585C8       TStoredProc.CreateHandle
 0001:00058540       TStoredProc.Destroy
 0001:00058584       TStoredProc.Disconnect
 0001:00058C1C       TStoredProc.GetResults
 0001:000590A0       TStoredProc.SetDBFlag
 0001:0005866C       TStoredProc.SetOverLoad
 0001:00059120       TStoredProc.SetParamsList
 0001:00058F30       TStoredProc.SetPrepared
 0001:00058614       TStoredProc.SetProcName
 0001:0005901C       TStoredProc.UnPrepare
 0001:0001114C       TStream.CopyFrom
 0001:00010FF0       TStream.GetPosition
 0001:00011014       TStream.GetSize
 0001:00011054       TStream.ReadBuffer
 0001:00011200       TStream.ReadComponent
 0001:00011004       TStream.SetPosition
 0001:00011050       TStream.SetSize
 0001:000110D0       TStream.WriteBuffer
 0001:00014594       TStreamAdapter.Clone
 0001:000144E0       TStreamAdapter.Commit
 0001:000143DC       TStreamAdapter.CopyTo
 0001:000141E0       TStreamAdapter.Create
 0001:000144F8       TStreamAdapter.LockRegion
 0001:0001421C       TStreamAdapter.Read
 0001:000144EC       TStreamAdapter.Revert
 0001:000142EC       TStreamAdapter.Seek
 0001:0001436C       TStreamAdapter.SetSize
 0001:00014510       TStreamAdapter.Stat
 0001:00014504       TStreamAdapter.UnlockRegion
 0001:00014284       TStreamAdapter.Write
 0001:0003FBB8       TStringField.CheckTypeSize
 0001:0003FB68       TStringField.Create
 0001:0003FC10       TStringField.GetAsBoolean
 0001:0003FC7C       TStringField.GetAsDateTime
 0001:0003FCD4       TStringField.GetAsFloat
 0001:0003FD2C       TStringField.GetAsInteger
 0001:0003FD7C       TStringField.GetAsString
 0001:0003FDA0       TStringField.GetAsVariant
 0001:0003FE04       TStringField.GetDataSize
 0001:0003FE0C       TStringField.GetDefaultWidth
 0001:0003FE14       TStringField.GetText
 0001:0003FEA0       TStringField.GetValue
 0001:0003FF18       TStringField.SetAsBoolean
 0001:0003FF70       TStringField.SetAsDateTime
 0001:0003FFC4       TStringField.SetAsFloat
 0001:0004001C       TStringField.SetAsInteger
 0001:0004006C       TStringField.SetAsString
 0001:000400D8       TStringField.SetVarValue
 0001:00010864       TStringList.Add
 0001:000108FC       TStringList.Changed
 0001:0001091C       TStringList.Changing
 0001:0001093C       TStringList.Clear
 0001:00010978       TStringList.Delete
 0001:00010808       TStringList.Destroy
 0001:00010A18       TStringList.Exchange
 0001:00010AD8       TStringList.Find
 0001:00010B44       TStringList.Get
 0001:00010BB4       TStringList.GetCapacity
 0001:00010BB8       TStringList.GetCount
 0001:00010BBC       TStringList.GetObject
 0001:00010C5C       TStringList.IndexOf
 0001:00010C9C       TStringList.Insert
 0001:00010D98       TStringList.Put
 0001:00010E34       TStringList.PutObject
 0001:00010F68       TStringList.SetCapacity
 0001:00010F88       TStringList.SetSorted
 0001:00010FA8       TStringList.SetUpdateState
 0001:00010FC0       TStringList.Sort
 0001:0000FA88       TStrings.Add
 0001:0000FAB0       TStrings.AddObject
 0001:0000FAD8       TStrings.AddStrings
 0001:0000FB90       TStrings.Assign
 0001:0000FC00       TStrings.BeginUpdate
 0001:0000FC74       TStrings.DefineProperties
 0001:0000FA58       TStrings.Destroy
 0001:0000FCC0       TStrings.EndUpdate
 0001:0000FCD8       TStrings.Equals
 0001:0000FD84       TStrings.Error
 0001:0000FDBC       TStrings.Exchange
 0001:0000FEA4       TStrings.GetCapacity
 0001:0000FEB0       TStrings.GetName
 0001:0000FF00       TStrings.GetObject
 0001:0000FF04       TStrings.GetText
 0001:0000FF58       TStrings.GetTextStr
 0001:00010040       TStrings.GetValue
 0001:000100CC       TStrings.IndexOf
 0001:0001014C       TStrings.IndexOfName
 0001:00010210       TStrings.InsertObject
 0001:00010240       TStrings.LoadFromFile
 0001:00010294       TStrings.LoadFromStream
 0001:00010340       TStrings.Move
 0001:000103F0       TStrings.Put
 0001:00010428       TStrings.PutObject
 0001:000104DC       TStrings.SaveToFile
 0001:00010534       TStrings.SaveToStream
 0001:00010590       TStrings.SetCapacity
 0001:00010594       TStrings.SetStringsAdapter
 0001:000105CC       TStrings.SetText
 0001:0001061C       TStrings.SetTextStr
 0001:000106DC       TStrings.SetUpdateState
 0001:000106E0       TStrings.SetValue
 0001:00056760       TTable.ApplyRange
 0001:00056784       TTable.CancelRange
 0001:0005614C       TTable.CloseIndexFile
 0001:00055244       TTable.Create
 0001:00055488       TTable.CreateHandle
 0001:00056AF8       TTable.DataEvent
 0001:000552D0       TTable.Destroy
 0001:00055B94       TTable.DestroyHandle
 0001:00056968       TTable.DestroyLookupCursor
 0001:00056AA0       TTable.DoOnNewRecord
 0001:0005653C       TTable.FindKey
 0001:00056568       TTable.FindNearest
 0001:00056B14       TTable.GetCanModify
 0001:000569F8       TTable.GetDataSource
 0001:00055318       TTable.GetHandle
 0001:00055D44       TTable.GetIndexFieldNames
 0001:00055D70       TTable.GetIndexName
 0001:00055570       TTable.GetLanguageDriverName
 0001:00056820       TTable.GetLookupCursor
 0001:00056A70       TTable.GetMasterFields
 0001:00056594       TTable.GotoKey
 0001:00056674       TTable.GotoNearest
 0001:00055930       TTable.InitFieldDefs
 0001:00056468       TTable.IsProductionIndex
 0001:00056114       TTable.OpenIndexFile
 0001:000558B4       TTable.PrepareCursor
 0001:00056A04       TTable.SetDataSource
 0001:00056C84       TTable.SetExclusive
 0001:000560DC       TTable.SetIndexFieldNames
 0001:00056104       TTable.SetIndexFiles
 0001:000560F8       TTable.SetIndexName
 0001:00056A90       TTable.SetMasterFields
 0001:000567BC       TTable.SetRange
 0001:000567FC       TTable.SetRangeEnd
 0001:00056CA0       TTable.SetReadOnly
 0001:00056CBC       TTable.SetTableName
 0001:00056D08       TTable.SetTableType
 0001:00056218       TTable.UpdateIndexDefs
 0001:000622F0       TTextAttributes.Assign
 0001:00062414       TTextAttributes.AssignTo
 0001:00061F48       TTextAttributes.Create
 0001:00062030       TTextAttributes.GetCharset
 0001:00062078       TTextAttributes.GetColor
 0001:000620E4       TTextAttributes.GetName
 0001:0006227C       TTextAttributes.GetPitch
 0001:00062224       TTextAttributes.GetSize
 0001:0006217C       TTextAttributes.GetStyle
 0001:00061F8C       TTextAttributes.InitFormat
 0001:00062048       TTextAttributes.SetCharset
 0001:0006209C       TTextAttributes.SetColor
 0001:0006210C       TTextAttributes.SetName
 0001:000622B0       TTextAttributes.SetPitch
 0001:00062244       TTextAttributes.SetSize
 0001:000621D0       TTextAttributes.SetStyle
 0001:0000EEE4       TThreadList.Add
 0001:0000EE1C       TThreadList.Create
 0001:0000EE68       TThreadList.Destroy
 0001:0000EF44       TThreadList.LockList
 0001:0000EF5C       TThreadList.Remove
 0001:0000EFAC       TThreadList.UnlockList
 0001:000413A8       TTimeField.Create
 0001:000413E4       TTimeField.GetDataSize
 0001:000371B8       TTimer.Create
 0001:00037200       TTimer.Destroy
 0001:00037338       TTimer.SetEnabled
 0001:00037348       TTimer.SetInterval
 0001:00037358       TTimer.SetOnTimer
 0001:00037370       TTimer.Timer
 0001:000417CC       TVarBytesField.Create
 0001:00041818       TVarBytesField.GetDataSize
 0001:00020FD8       TWinControl.AlignControls
 0001:0002136C       TWinControl.Broadcast
 0001:000237B4       TWinControl.CanFocus
 0001:000233D0       TWinControl.ChangeScale
 0001:00022D84       TWinControl.CMChanged
 0001:00022D98       TWinControl.CMChildKey
 0001:00022E5C       TWinControl.CMColorChanged
 0001:00022FF8       TWinControl.CMControlListChange
 0001:00022F00       TWinControl.CMCtl3DChanged
 0001:00022EC0       TWinControl.CMCursorChanged
 0001:00022D64       TWinControl.CMDesignHitTest
 0001:00022DB4       TWinControl.CMDialogChar
 0001:00022DAC       TWinControl.CMDialogKey
 0001:00022FA0       TWinControl.CMDrag
 0001:00022E1C       TWinControl.CMEnabledChanged
 0001:00022D3C       TWinControl.CMEnter
 0001:00022D50       TWinControl.CMExit
 0001:00022DBC       TWinControl.CMFocusChanged
 0001:00022F90       TWinControl.CMFontChange
 0001:00022E84       TWinControl.CMFontChanged
 0001:000236FC       TWinControl.CMInvalidate
 0001:00022F40       TWinControl.CMParentCtl3DChanged
 0001:00021878       TWinControl.CMRecreateWnd
 0001:00022D24       TWinControl.CMShowHintChanged
 0001:00022DF4       TWinControl.CMShowingChanged
 0001:00022F80       TWinControl.CMSysColorChange
 0001:0002300C       TWinControl.CMSysFontChanged
 0001:00022F98       TWinControl.CMTimeChange
 0001:00022DC4       TWinControl.CMVisibleChanged
 0001:00022F88       TWinControl.CMWinIniChange
 0001:000231DC       TWinControl.CNChar
 0001:000230B0       TWinControl.CNKeyDown
 0001:00023188       TWinControl.CNKeyUp
 0001:00023284       TWinControl.CNSysChar
 0001:00023228       TWinControl.CNSysKeyDown
 0001:00021118       TWinControl.ContainsControl
 0001:00021A60       TWinControl.ControlAtPos
 0001:000209F4       TWinControl.Create
 0001:000217B0       TWinControl.CreateHandle
 0001:00021444       TWinControl.CreateParams
 0001:000213D4       TWinControl.CreateSubClass
 0001:000216BC       TWinControl.CreateWindowHandle
 0001:00021564       TWinControl.CreateWnd
 0001:00021CD4       TWinControl.DefaultHandler
 0001:00020A88       TWinControl.Destroy
 0001:0002181C       TWinControl.DestroyHandle
 0001:00021758       TWinControl.DestroyWindowHandle
 0001:00021700       TWinControl.DestroyWnd
 0001:000210E8       TWinControl.DisableAlign
 0001:00022868       TWinControl.DoEnter
 0001:00022888       TWinControl.DoExit
 0001:000228D0       TWinControl.DoKeyDown
 0001:00022A90       TWinControl.DoKeyPress
 0001:000229CC       TWinControl.DoKeyUp
 0001:000210F0       TWinControl.EnableAlign
 0001:00023B14       TWinControl.FindNextControl
 0001:00020B24       TWinControl.FixupTabList
 0001:00023820       TWinControl.Focused
 0001:00023C88       TWinControl.GetChildren
 0001:0002387C       TWinControl.GetClientOrigin
 0001:0002389C       TWinControl.GetClientRect
 0001:0002131C       TWinControl.GetControl
 0001:0002134C       TWinControl.GetControlCount
 0001:00023654       TWinControl.GetDeviceContext
 0001:00023868       TWinControl.GetHandle
 0001:00023908       TWinControl.GetTabOrder
 0001:00023ABC       TWinControl.GetTabOrderList
 0001:00023A00       TWinControl.HandleAllocated
 0001:00023844       TWinControl.HandleNeeded
 0001:000211E0       TWinControl.InsertControl
 0001:000236EC       TWinControl.Invalidate
 0001:00021B20       TWinControl.IsControlMouseMsg
 0001:000238D8       TWinControl.IsCtl3DStored
 0001:000228A8       TWinControl.KeyDown
 0001:00022A70       TWinControl.KeyPress
 0001:000229A4       TWinControl.KeyUp
 0001:000219E8       TWinControl.MainWndProc
 0001:000213AC       TWinControl.NotifyControls
 0001:00021F10       TWinControl.PaintControls
 0001:00021DBC       TWinControl.PaintHandler
 0001:00022118       TWinControl.PaintTo
 0001:00021EE4       TWinControl.PaintWindow
 0001:00022C7C       TWinControl.PaletteChanged
 0001:00020BF8       TWinControl.ReadState
 0001:00021110       TWinControl.Realign
 0001:00021860       TWinControl.RecreateWnd
 0001:000212A0       TWinControl.RemoveControl
 0001:00023768       TWinControl.Repaint
 0001:0002280C       TWinControl.ResetIme
 0001:00023388       TWinControl.ScaleControls
 0001:00023430       TWinControl.ScrollBy
 0001:00023C44       TWinControl.SelectFirst
 0001:00023C18       TWinControl.SelectNext
 0001:000232B8       TWinControl.SetBounds
 0001:00023CD0       TWinControl.SetChildOrder
 0001:000238B4       TWinControl.SetCtl3D
 0001:000237E8       TWinControl.SetFocus
 0001:00022764       TWinControl.SetIme
 0001:000238E4       TWinControl.SetParentCtl3D
 0001:00023988       TWinControl.SetTabOrder
 0001:000239A0       TWinControl.SetTabStop
 0001:000235F4       TWinControl.SetZOrder
 0001:00023508       TWinControl.ShowControl
 0001:0002374C       TWinControl.Update
 0001:000219A8       TWinControl.UpdateControlState
 0001:00022AFC       TWinControl.WMChar
 0001:00022B94       TWinControl.WMCharToItem
 0001:000223C4       TWinControl.WMCommand
 0001:00022498       TWinControl.WMCompareItem
 0001:000224BC       TWinControl.WMDeleteItem
 0001:00022C08       TWinControl.WMDestroy
 0001:000224E0       TWinControl.WMDrawItem
 0001:00022528       TWinControl.WMEraseBkgnd
 0001:00022438       TWinControl.WMFontChange
 0001:00022458       TWinControl.WMHScroll
 0001:00022750       TWinControl.WMIMEEndComp
 0001:0002273C       TWinControl.WMIMEStartComp
 0001:00022964       TWinControl.WMKeyDown
 0001:00022A30       TWinControl.WMKeyUp
 0001:00022728       TWinControl.WMKillFocus
 0001:00022504       TWinControl.WMMeasureItem
 0001:00022614       TWinControl.WMMove
 0001:00022C3C       TWinControl.WMNCDestroy
 0001:00022C58       TWinControl.WMNCHitTest
 0001:000223E4       TWinControl.WMNotify
 0001:00022268       TWinControl.WMPaint
 0001:00022D04       TWinControl.WMPaletteChanged
 0001:00022BB4       TWinControl.WMParentNotify
 0001:00022CE0       TWinControl.WMQueryNewPalette
 0001:00022628       TWinControl.WMSetCursor
 0001:00022714       TWinControl.WMSetFocus
 0001:000225F4       TWinControl.WMSize
 0001:00022408       TWinControl.WMSysColorChange
 0001:00022B1C       TWinControl.WMSysCommand
 0001:00022984       TWinControl.WMSysKeyDown
 0001:00022A50       TWinControl.WMSysKeyUp
 0001:00022448       TWinControl.WMTimeChange
 0001:00022BE8       TWinControl.WMVKeyToItem
 0001:00022478       TWinControl.WMVScroll
 0001:00022564       TWinControl.WMWindowPosChanged
 0001:00022424       TWinControl.WMWinIniChange
 0001:00021BAC       TWinControl.WndProc
 0001:00040728       TWordField.Create
 0001:00040778       TWordField.GetDataSize
 0001:0001385C       TWriter.Write
 0001:000138C4       TWriter.WriteBoolean
 0001:000138E0       TWriter.WriteInteger
 0001:00013958       TWriter.WriteListBegin
 0001:00013964       TWriter.WriteListEnd
 0001:00013970       TWriter.WriteString
 0001:000139D0       TWriter.WriteValue
 0001:0007AD30       TwwComboDlgButton.Paint
 0001:000890A8       TwwCustomDBGrid.AllowCancelOnExit
 0001:00089318       TwwCustomDBGrid.AllowPerfectFit
 0001:000880A0       TwwCustomDBGrid.CalcRowHeight
 0001:0008847C       TwwCustomDBGrid.CanEditAcceptKey
 0001:000884FC       TwwCustomDBGrid.CanEditModify
 0001:00089760       TwwCustomDBGrid.CellColor
 0001:00089178       TwwCustomDBGrid.CMDesignHitTest
 0001:000890AC       TwwCustomDBGrid.CMExit
 0001:00089160       TwwCustomDBGrid.CMFontChanged
 0001:0008903C       TwwCustomDBGrid.CMParentFontChanged
 0001:0008CA8C       TwwCustomDBGrid.ColEnter
 0001:0008CAAC       TwwCustomDBGrid.ColExit
 0001:0008CACC       TwwCustomDBGrid.ColumnMoved
 0001:0008CCA8       TwwCustomDBGrid.ColWidthsChanged
 0001:000877F0       TwwCustomDBGrid.Create
 0001:0008BD4C       TwwCustomDBGrid.CreateEditor
 0001:00088450       TwwCustomDBGrid.CreateWnd
 0001:00088710       TwwCustomDBGrid.DataChanged
 0001:0008D4B0       TwwCustomDBGrid.DbCol
 0001:0008D4C4       TwwCustomDBGrid.DbRow
 0001:00087B58       TwwCustomDBGrid.DefineFieldMap
 0001:00087AEC       TwwCustomDBGrid.Destroy
 0001:0008D1C0       TwwCustomDBGrid.DoCalcCellColors
 0001:0008D154       TwwCustomDBGrid.DoCalcTitleAttributes
 0001:00089344       TwwCustomDBGrid.DoPerfectFit
 0001:0008C5FC       TwwCustomDBGrid.DoTitleButtonClick
 0001:00088BB8       TwwCustomDBGrid.DoTopRowChanged
 0001:00089764       TwwCustomDBGrid.Draw3DLines
 0001:0008B2EC       TwwCustomDBGrid.DrawCell
 0001:00089F58       TwwCustomDBGrid.DrawCheckBox
 0001:00089D1C       TwwCustomDBGrid.DrawCheckBox_Checkmark
 0001:00087C90       TwwCustomDBGrid.DrawDataCell
 0001:0008E00C       TwwCustomDBGrid.FlushChanges
 0001:0008E0E4       TwwCustomDBGrid.GetChildren
 0001:00088D28       TwwCustomDBGrid.GetColField
 0001:00088470       TwwCustomDBGrid.GetDataSource
 0001:000884C4       TwwCustomDBGrid.GetEditLimit
 0001:000885AC       TwwCustomDBGrid.GetEditMask
 0001:00088608       TwwCustomDBGrid.GetEditText
 0001:0008868C       TwwCustomDBGrid.GetFieldCount
 0001:00088698       TwwCustomDBGrid.GetFields
 0001:00088D58       TwwCustomDBGrid.GetFieldValue
 0001:000886C8       TwwCustomDBGrid.GetSelectedField
 0001:0008DF48       TwwCustomDBGrid.GetSelectedFields
 0001:000886FC       TwwCustomDBGrid.GetSelectedIndex
 0001:0008D21C       TwwCustomDBGrid.GetShowHorzScrollBar
 0001:0008D4E4       TwwCustomDBGrid.HideControls
 0001:00089718       TwwCustomDBGrid.HighlightCell
 0001:0008D2B0       TwwCustomDBGrid.IsCheckBox
 0001:0008D260       TwwCustomDBGrid.IsMemoField
 0001:0008D4D8       TwwCustomDBGrid.IsSelected
 0001:0008DF5C       TwwCustomDBGrid.IsSelectedCheckbox
 0001:0008D4DC       TwwCustomDBGrid.IsSelectedRow
 0001:0008D444       TwwCustomDBGrid.IsValidCell
 0001:0008BD48       TwwCustomDBGrid.IsWWControl
 0001:0008C0CC       TwwCustomDBGrid.KeyDown
 0001:0008C518       TwwCustomDBGrid.KeyPress
 0001:0008822C       TwwCustomDBGrid.LayoutChanged
 0001:0008842C       TwwCustomDBGrid.LinkActive
 0001:0008CF5C       TwwCustomDBGrid.Loaded
 0001:0008C768       TwwCustomDBGrid.MouseDown
 0001:0008C558       TwwCustomDBGrid.MouseUp
 0001:0008CBD4       TwwCustomDBGrid.Notification
 0001:0008D4E0       TwwCustomDBGrid.RefreshBookmarkList
 0001:00088934       TwwCustomDBGrid.Scroll
 0001:0008DF20       TwwCustomDBGrid.SelectRecord
 0001:00087E74       TwwCustomDBGrid.SetColumnAttributes
 0001:000886A4       TwwCustomDBGrid.SetDataSource
 0001:00088670       TwwCustomDBGrid.SetEditText
 0001:0008D0C8       TwwCustomDBGrid.SetIndicatorColor
 0001:0008821C       TwwCustomDBGrid.SetIndicatorWidth
 0001:0008CF74       TwwCustomDBGrid.SetOptions
 0001:0008D124       TwwCustomDBGrid.SetRowHeightPercent
 0001:0008DF50       TwwCustomDBGrid.SetSelectedFields
 0001:0008D230       TwwCustomDBGrid.SetShowHorzScrollBar
 0001:0008D244       TwwCustomDBGrid.SetShowVertScrollBar
 0001:0008D0E0       TwwCustomDBGrid.SetTitleAlignment
 0001:0008DF28       TwwCustomDBGrid.SetTitleButtons
 0001:0008D0AC       TwwCustomDBGrid.SetTitleFont
 0001:0008D100       TwwCustomDBGrid.SetTitleLines
 0001:0008CC28       TwwCustomDBGrid.TimedScroll
 0001:0008DF44       TwwCustomDBGrid.UnselectAll
 0001:0008DF24       TwwCustomDBGrid.UnselectRecord
 0001:00088EF4       TwwCustomDBGrid.UpdateRowCount
 0001:00088D84       TwwCustomDBGrid.UpdateScrollBar
 0001:000891F8       TwwCustomDBGrid.WMSetCursor
 0001:0008922C       TwwCustomDBGrid.WMSize
 0001:000895B0       TwwCustomDBGrid.WMVScroll
 0001:00085734       TwwCustomMaskEdit.ApplyMask
 0001:000831B0       TwwCustomMaskEdit.Create
 0001:00083284       TwwCustomMaskEdit.CreateParams
 0001:00085D64       TwwCustomMaskEdit.CreateWnd
 0001:000831FC       TwwCustomMaskEdit.Destroy
 0001:00083374       TwwCustomMaskEdit.DoExit
 0001:000832F4       TwwCustomMaskEdit.DoOnCheckValue
 0001:00085CF4       TwwCustomMaskEdit.EnableEdit
 0001:00083314       TwwCustomMaskEdit.HavePictureMask
 0001:000855F0       TwwCustomMaskEdit.IsValidPictureValue
 0001:000858F0       TwwCustomMaskEdit.KeyPress
 0001:000856BC       TwwCustomMaskEdit.KeyUp
 0001:00085D04       TwwCustomMaskEdit.SetEditRect
 0001:00083238       TwwCustomMaskEdit.SetShowVertScrollBar
 0001:0008322C       TwwCustomMaskEdit.SetWordWrap
 0001:00085D7C       TwwCustomMaskEdit.WMSize
 0001:0008324C       TwwCustomMaskEdit.WMVScroll
 0001:0007C970       TwwDBComboBox.ApplyList
 0001:0007CD3C       TwwDBComboBox.CloseUp
 0001:0007CFB0       TwwDBComboBox.CMCancelMode
 0001:0007D03C       TwwDBComboBox.CNKeyDown
 0001:0007C1DC       TwwDBComboBox.Create
 0001:0007C24C       TwwDBComboBox.Destroy
 0001:0007CEC0       TwwDBComboBox.DoSelectAll
 0001:0007CA40       TwwDBComboBox.DropDown
 0001:0007D4E4       TwwDBComboBox.Editable
 0001:0007C438       TwwDBComboBox.GetComboDisplay
 0001:0007C55C       TwwDBComboBox.GetComboValue
 0001:0007C334       TwwDBComboBox.GetFieldMapText
 0001:0007CEDC       TwwDBComboBox.GetItemIndex
 0001:0007C930       TwwDBComboBox.GetSorted
 0001:0007C3B0       TwwDBComboBox.GetStoredText
 0001:0007CFA8       TwwDBComboBox.isDroppedDown
 0001:0007D22C       TwwDBComboBox.KeyDown
 0001:0007BBEC       TwwDBComboBox.KeyPress
 0001:0007D08C       TwwDBComboBox.KeyUp
 0001:0007C294       TwwDBComboBox.ListBoxNeeded
 0001:0007D520       TwwDBComboBox.MouseEditable
 0001:0007CEF8       TwwDBComboBox.SetItemIndex
 0001:0007C910       TwwDBComboBox.SetItemList
 0001:0007C94C       TwwDBComboBox.SetSorted
 0001:0007D64C       TwwDBComboBox.SetStyle
 0001:0007D540       TwwDBComboBox.ShowText
 0001:0007CFD4       TwwDBComboBox.WMKillFocus
 0001:0007B97C       TwwDBComboBox.WndProc
 0001:0007A990       TwwDBCustomCombo.BtnClick
 0001:0007A9D8       TwwDBCustomCombo.CloseUp
 0001:0007AE3C       TwwDBCustomCombo.CMEnabledChanged
 0001:0007A638       TwwDBCustomCombo.Create
 0001:0007A810       TwwDBCustomCombo.CreateParams
 0001:0007A788       TwwDBCustomCombo.Destroy
 0001:0007ACD4       TwwDBCustomCombo.DrawButton
 0001:0007A9E4       TwwDBCustomCombo.DropDown
 0001:0007AAA0       TwwDBCustomCombo.Editable
 0001:0007AD98       TwwDBCustomCombo.GetClientEditRect
 0001:0007A7C0       TwwDBCustomCombo.GetIconIndent
 0001:0007A7CC       TwwDBCustomCombo.GetIconLeft
 0001:0007A7DC       TwwDBCustomCombo.GetShowButton
 0001:0007AAD0       TwwDBCustomCombo.HandleDropDownKeys
 0001:0007AE00       TwwDBCustomCombo.IsDroppedDown
 0001:0007AB58       TwwDBCustomCombo.KeyDown
 0001:0007ABB0       TwwDBCustomCombo.KeyPress
 0001:0007A7D8       TwwDBCustomCombo.LoadComboGlyph
 0001:0007AE08       TwwDBCustomCombo.Loaded
 0001:0007AAC4       TwwDBCustomCombo.MouseEditable
 0001:0007ADC4       TwwDBCustomCombo.SetButtonStyle
 0001:0007A82C       TwwDBCustomCombo.SetEditRect
 0001:0007A7E8       TwwDBCustomCombo.SetShowButton
 0001:0007AC00       TwwDBCustomCombo.WMLButtonDblClk
 0001:0007ABD4       TwwDBCustomCombo.WMLButtonDown
 0001:0007AC2C       TwwDBCustomCombo.WMLButtonUp
 0001:0007A97C       TwwDBCustomCombo.WMSize
 0001:000838F0       TwwDBCustomEdit.AllSelected
 0001:00084730       TwwDBCustomEdit.Change
 0001:00084C44       TwwDBCustomEdit.CMEnter
 0001:00084CF4       TwwDBCustomEdit.CMExit
 0001:000853A8       TwwDBCustomEdit.CMFontChanged
 0001:00085CF8       TwwDBCustomEdit.CMGetDataLink
 0001:00084548       TwwDBCustomEdit.CNKeyDown
 0001:000830CC       TwwDBCustomEdit.Create
 0001:000832EC       TwwDBCustomEdit.CreateParams
 0001:000847FC       TwwDBCustomEdit.DataChange
 0001:00083168       TwwDBCustomEdit.Destroy
 0001:00085DD4       TwwDBCustomEdit.DoEnter
 0001:00085D94       TwwDBCustomEdit.Editable
 0001:000845F8       TwwDBCustomEdit.EditCanModify
 0001:00085CE8       TwwDBCustomEdit.EnableEdit
 0001:00085DC0       TwwDBCustomEdit.GetClientEditRect
 0001:0008479C       TwwDBCustomEdit.GetDataField
 0001:00084758       TwwDBCustomEdit.GetDataSource
 0001:000847F0       TwwDBCustomEdit.GetField
 0001:00084AA4       TwwDBCustomEdit.GetFieldMapText
 0001:00084D40       TwwDBCustomEdit.GetIconIndent
 0001:00084D44       TwwDBCustomEdit.GetIconLeft
 0001:00085450       TwwDBCustomEdit.GetPicture
 0001:000847C4       TwwDBCustomEdit.GetReadOnly
 0001:000862B4       TwwDBCustomEdit.GetShowButton
 0001:00084A90       TwwDBCustomEdit.GetStoredText
 0001:000862BC       TwwDBCustomEdit.isDateField
 0001:0008632C       TwwDBCustomEdit.isDateTimeField
 0001:000862F4       TwwDBCustomEdit.isTimeField
 0001:00083628       TwwDBCustomEdit.KeyDown
 0001:000841E4       TwwDBCustomEdit.KeyPress
 0001:00084538       TwwDBCustomEdit.KeyUp
 0001:0008639C       TwwDBCustomEdit.Loaded
 0001:0008341C       TwwDBCustomEdit.Notification
 0001:00084DBC       TwwDBCustomEdit.ParentGridFocused
 0001:00084610       TwwDBCustomEdit.Reset
 0001:000847B8       TwwDBCustomEdit.SetDataField
 0001:00084790       TwwDBCustomEdit.SetDataSource
 0001:00086260       TwwDBCustomEdit.SetModified
 0001:000854F8       TwwDBCustomEdit.SetPicture
 0001:000847D0       TwwDBCustomEdit.SetReadOnly
 0001:000862B8       TwwDBCustomEdit.SetShowButton
 0001:00084D54       TwwDBCustomEdit.ShowText
 0001:000861F8       TwwDBCustomEdit.StorePictureProperty
 0001:00084C8C       TwwDBCustomEdit.UpdateRecord
 0001:00084BCC       TwwDBCustomEdit.WMCut
 0001:00084E34       TwwDBCustomEdit.WMPaint
 0001:00084AD4       TwwDBCustomEdit.WMPaste
 0001:00085D98       TwwDBCustomEdit.WMSetFocus
 0001:0007F75C       TwwDBGrid.AllowCancelOnExit
 0001:0007F7E4       TwwDBGrid.ApplySelected
 0001:0008230C       TwwDBGrid.CalcRowHeight
 0001:00080FD0       TwwDBGrid.CallMemoDialog
 0001:00080078       TwwDBGrid.CanEditGrid
 0001:00080180       TwwDBGrid.CanEditShow
 0001:0007FC18       TwwDBGrid.CellColor
 0001:0008093C       TwwDBGrid.CMCtl3DChanged
 0001:00080AD8       TwwDBGrid.CMDesignHitTest
 0001:0008220C       TwwDBGrid.ColEnter
 0001:00080948       TwwDBGrid.ColExit
 0001:00081678       TwwDBGrid.ColumnMoved
 0001:00081670       TwwDBGrid.ColWidthsChanged
 0001:0007F230       TwwDBGrid.Create
 0001:0007F2F8       TwwDBGrid.Destroy
 0001:0007F760       TwwDBGrid.DoExit
 0001:0007FC2C       TwwDBGrid.DrawCell
 0001:00080278       TwwDBGrid.FieldName
 0001:00081DAC       TwwDBGrid.findBookmark
 0001:00082314       TwwDBGrid.FlushChanges
 0001:00081654       TwwDBGrid.GetActiveField
 0001:00081648       TwwDBGrid.GetActiveRow
 0001:000802B0       TwwDBGrid.GetComponent
 0001:0007F470       TwwDBGrid.GetDataSource
 0001:00081E78       TwwDBGrid.GetFieldValue
 0001:0007F468       TwwDBGrid.GetFixedCols
 0001:0007F4C0       TwwDBGrid.GetTitleColor
 0001:0007FA5C       TwwDBGrid.Hidecontrols
 0001:00080740       TwwDBGrid.InitControls
 0001:000821A4       TwwDBGrid.InvalidateCurrentRow
 0001:00080568       TwwDBGrid.IsCustomEditCell
 0001:000803E0       TwwDBGrid.IsRichEditCell
 0001:00081D08       TwwDBGrid.IsSelected
 0001:00081B38       TwwDBGrid.IsSelectedRecord
 0001:00081D28       TwwDBGrid.IsSelectedRow
 0001:00080090       TwwDBGrid.IsWWControl
 0001:000811E8       TwwDBGrid.KeyDown
 0001:0007F730       TwwDBGrid.LinkActive
 0001:0008216C       TwwDBGrid.Loaded
 0001:0007FA38       TwwDBGrid.MouseCoord
 0001:00080DA0       TwwDBGrid.MouseDown
 0001:00080D84       TwwDBGrid.MouseUp
 0001:0007FA98       TwwDBGrid.Paint
 0001:0007F4E8       TwwDBGrid.RedrawGrid
 0001:00081BE0       TwwDBGrid.RefreshBookmarkList
 0001:00080720       TwwDBGrid.RefreshDisplay
 0001:000818A8       TwwDBGrid.RemoveSelected
 0001:00082128       TwwDBGrid.Scroll
 0001:00081A5C       TwwDBGrid.SelectRecord
 0001:00080B90       TwwDBGrid.SelectRecordRange
 0001:000821D0       TwwDBGrid.SetActiveRow
 0001:0007F838       TwwDBGrid.SetColumnAttributes
 0001:0007F4A4       TwwDBGrid.SetDataSource
 0001:00080200       TwwDBGrid.SetFieldValue
 0001:0007F3C8       TwwDBGrid.SetFixedCols
 0001:0007F4C8       TwwDBGrid.SetTitleColor
 0001:0007F4AC       TwwDBGrid.SetwwMemoAttributes
 0001:000814B4       TwwDBGrid.ToggleCheckBox
 0001:000809C0       TwwDBGrid.TopLeftChanged
 0001:00081958       TwwDBGrid.UnselectAll
 0001:000819E8       TwwDBGrid.UnselectRecord
 0001:00080F20       TwwDBGrid.WMChar
 0001:00081420       TwwDBGrid.WMLButtonDblClk
 0001:00082190       TwwDBGrid.XIndicatorOffset
 0001:00083050       TwwDBPicture.Assign
 0001:00083028       TwwDBPicture.Create
 0001:000861E0       TwwDBPicture.GetAllowInvalidExit
 0001:0008613C       TwwDBPicture.GetAutoFill
 0001:00086094       TwwDBPicture.GetPictureMask
 0001:00085E18       TwwDBPicture.IsDatasetMask
 0001:0008607C       TwwDBPicture.SetAllowInvalidExit
 0001:0008606C       TwwDBPicture.SetAutoFill
 0001:00085F70       TwwDBPicture.SetPictureMask
 0001:0006CC3C       TwwDBRichEditIntl.Destroy
 0001:00086E90       TwwGridDataLink.ActiveChanged
 0001:00086D7C       TwwGridDataLink.AddMapping
 0001:00086EA0       TwwGridDataLink.ClearMapping
 0001:00086CD0       TwwGridDataLink.Create
 0001:00086ED0       TwwGridDataLink.DataSetChanged
 0001:00086EE4       TwwGridDataLink.DataSetScrolled
 0001:00086D08       TwwGridDataLink.Destroy
 0001:00086F00       TwwGridDataLink.EditingChanged
 0001:00086D34       TwwGridDataLink.GetDefaultFields
 0001:00086D54       TwwGridDataLink.GetFields
 0001:00086EF4       TwwGridDataLink.LayoutChanged
 0001:00086EC8       TwwGridDataLink.Modified
 0001:00086F0C       TwwGridDataLink.RecordChanged
 0001:00086F80       TwwGridDataLink.Reset
 0001:00086F28       TwwGridDataLink.UpdateData
 0001:0008E018       TwwIButton.Loaded
 0001:0008E064       TwwIButton.Paint
 0001:0008E06C       TwwIButton.SetBounds
 0001:0008DEB8       TwwInplaceEdit.CMFontChanged
 0001:0008DC10       TwwInplaceEdit.CreateParams
 0001:0008D584       TwwInplaceEdit.Destroy
 0001:0008DE58       TwwInplaceEdit.HavePictureMask
 0001:0008DC58       TwwInplaceEdit.IsValidPictureValue
 0001:0008D614       TwwInplaceEdit.KeyDown
 0001:0008D82C       TwwInplaceEdit.KeyPress
 0001:0008D678       TwwInplaceEdit.KeyUp
 0001:0008DC04       TwwInplaceEdit.SetWordWrap
 0001:0008DBDC       TwwInplaceEdit.WMPaste
 0001:0008DD30       TwwInplaceEdit.WMSetFocus
 0001:0008D4E8       TwwInplaceEdit.wwCreate
 0001:0006CD80       TwwIntl.Connect
 0001:0006AD48       TwwIntl.Create
 0001:0006CC8C       TwwIntl.Destroy
 0001:0006CCE8       TwwIntl.Loaded
 0001:0006CD64       TwwIntl.SetCheckboxInGridStyle
 0001:0006CD54       TwwIntl.SetConnected
 0001:0006CD2C       TwwIntl.SetIPVersion
 0001:0006CD04       TwwIntl.SetRegistrationNo
 0001:0008169C       TwwMemoDialog.Create
 0001:0008170C       TwwMemoDialog.Destroy
 0001:00081854       TwwMemoDialog.DoCloseDialog
 0001:0008183C       TwwMemoDialog.DoInitDialog
 0001:00081814       TwwMemoDialog.Execute
 0001:000817A4       TwwMemoDialog.GetDataField
 0001:00081744       TwwMemoDialog.GetDataSource
 0001:000817C8       TwwMemoDialog.SetCaption
 0001:00081758       TwwMemoDialog.SetDataField
 0001:0008174C       TwwMemoDialog.SetDataSource
 0001:000817BC       TwwMemoDialog.SetFont
 0001:00081830       TwwMemoDialog.SetwwMemoAttributes
 0001:0007DB84       TwwMemoDlg.Create
 0001:0007DE00       TwwMemoDlg.FormCloseQuery
 0001:0007DE78       TwwMemoDlg.FormShow
 0001:0007DDF0       TwwMemoDlg.KeyPress
 0001:0007E0A0       TwwMemoDlg.MemoKeyDown
 0001:0007DDE0       TwwMemoDlg.OKBtnClick
 0001:0007DC18       TwwMemoDlg.ResizeControls
 0001:0007E0E0       TwwMemoDlg.UserButton1Click
 0001:0007E124       TwwMemoDlg.UserButton2Click
 0001:00067424       TwwPictureValidator.Create
 0001:000674D0       TwwPictureValidator.Destroy
 0001:00067534       TwwPictureValidator.IsValid
 0001:000674FC       TwwPictureValidator.IsValidInput
 0001:00068108       TwwPictureValidator.Picture
 0001:0007BE3C       TwwPopupListbox.Create
 0001:0007C0D8       TwwPopupListbox.CreateParams
 0001:0007C0FC       TwwPopupListbox.CreateWnd
 0001:0007C134       TwwPopupListbox.DrawItem
 0001:0007BF58       TwwPopupListbox.Keypress
 0001:00066944       TwwQBE.Create
 0001:00067020       TwwQBE.CreateHandle
 0001:00067378       TwwQBE.DataEvent
 0001:00066A58       TwwQBE.Destroy
 0001:00066B20       TwwQBE.DoAfterOpen
 0001:000671C8       TwwQBE.DoOnCalcFields
 0001:0006715C       TwwQBE.getControlType
 0001:00067170       TwwQBE.GetLookupFields
 0001:00067198       TwwQBE.GetLookupLinks
 0001:0006735C       TwwQBE.GetNextRecords
 0001:00067184       TwwQBE.GetPictureMasks
 0001:00067340       TwwQBE.IsSequenced
 0001:00066B48       TwwQBE.OpenCursor
 0001:00066B94       TwwQBE.PerformQuery
 0001:000671AC       TwwQBE.RemoveObsoleteLinks
 0001:00067304       TwwQBE.ResetMouseCursor
 0001:00067164       TwwQBE.SetControlType
 0001:00067178       TwwQBE.SetLookupFields
 0001:000671A0       TwwQBE.SetLookupLinks
 0001:000671F8       TwwQBE.SetOnFilter
 0001:000672A4       TwwQBE.SetOnFilterOptions
 0001:0006718C       TwwQBE.SetPictureMasks
 0001:00066AF0       TwwQBE.SetQBE
 0001:00065EE4       TwwQuery.Create
 0001:0006634C       TwwQuery.DataEvent
 0001:00065FB4       TwwQuery.Destroy
 0001:0006602C       TwwQuery.DoAfterOpen
 0001:00066250       TwwQuery.DoBeforePost
 0001:000660E0       TwwQuery.DoOnCalcFields
 0001:00066074       TwwQuery.GetControlType
 0001:00066088       TwwQuery.GetLookupFields
 0001:000660B0       TwwQuery.GetLookupLinks
 0001:00066330       TwwQuery.GetNextRecords
 0001:0006609C       TwwQuery.GetPictureMasks
 0001:00066314       TwwQuery.IsSequenced
 0001:00066054       TwwQuery.OpenCursor
 0001:000660C4       TwwQuery.RemoveObsoleteLinks
 0001:000662D8       TwwQuery.ResetMouseCursor
 0001:0006607C       TwwQuery.SetControlType
 0001:00066090       TwwQuery.SetLookupFields
 0001:000660B8       TwwQuery.SetLookupLinks
 0001:00066110       TwwQuery.SetOnFilter
 0001:00066278       TwwQuery.SetOnFilterOptions
 0001:000660A4       TwwQuery.SetPictureMasks
 0001:0006E234       TwwStoredProc.Create
 0001:0006E670       TwwStoredProc.DataEvent
 0001:0006E2F8       TwwStoredProc.Destroy
 0001:0006E370       TwwStoredProc.DoAfterOpen
 0001:0006E574       TwwStoredProc.DoBeforePost
 0001:0006E404       TwwStoredProc.DoOnCalcFields
 0001:0006E398       TwwStoredProc.GetControlType
 0001:0006E3AC       TwwStoredProc.GetLookupFields
 0001:0006E3D4       TwwStoredProc.GetLookupLinks
 0001:0006E654       TwwStoredProc.GetNextRecords
 0001:0006E3C0       TwwStoredProc.GetPictureMasks
 0001:0006E638       TwwStoredProc.IsSequenced
 0001:0006E3E8       TwwStoredProc.RemoveObsoleteLinks
 0001:0006E5FC       TwwStoredProc.ResetMouseCursor
 0001:0006E3A0       TwwStoredProc.SetControlType
 0001:0006E3B4       TwwStoredProc.SetLookupFields
 0001:0006E3DC       TwwStoredProc.SetLookupLinks
 0001:0006E434       TwwStoredProc.SetOnFilter
 0001:0006E59C       TwwStoredProc.SetOnFilterOptions
 0001:0006E3C8       TwwStoredProc.SetPictureMasks
 0001:00073314       TwwTable.CloseCursor
 0001:00072D98       TwwTable.Create
 0001:00073348       TwwTable.CreateHandle
 0001:000745F0       TwwTable.DataEvent
 0001:00072EE0       TwwTable.Destroy
 0001:00074180       TwwTable.DoBeforePost
 0001:0007378C       TwwTable.DoOnCalcFields
 0001:00073F3C       TwwTable.FieldsToIndex
 0001:0007363C       TwwTable.FilterActivate
 0001:00073520       TwwTable.FilterString
 0001:00073234       TwwTable.FreeLookupTables
 0001:000732F8       TwwTable.getControlType
 0001:0007435C       TwwTable.GetDBPicture
 0001:0007330C       TwwTable.getFilter
 0001:000732D0       TwwTable.getLookupFields
 0001:0007375C       TwwTable.getLookupLinks
 0001:000745D4       TwwTable.GetNextRecords
 0001:000732E4       TwwTable.getPictureMasks
 0001:00073D70       TwwTable.GetTableName
 0001:00074464       TwwTable.InitFieldDefs
 0001:00073164       TwwTable.IsParadoxTable
 0001:0007456C       TwwTable.IsSequenced
 0001:000733A4       TwwTable.OpenCursor
 0001:00074000       TwwTable.PerformQuery
 0001:000734B0       TwwTable.PrepareCursor
 0001:00073770       TwwTable.RemoveObsoleteLinks
 0001:00074530       TwwTable.ResetMouseCursor
 0001:00073300       TwwTable.setControlType
 0001:000736B8       TwwTable.setFilterArray
 0001:000732D8       TwwTable.setLookupFields
 0001:00073764       TwwTable.setLookupLinks
 0001:00073120       TwwTable.SetOnFilter
 0001:000744D0       TwwTable.SetOnFilterOptions
 0001:000732EC       TwwTable.setPictureMasks
 0001:00073274       TwwTable.SetQuery
 0001:00073D10       TwwTable.SetTableName
 0001:00073A6C       TwwTable.wwFindKey
 0001:000737BC       TwwTable.wwFindRecord
 0001:00073D88       TwwTable.wwSetRangeStart
 0001:0000D22C       TypInfo
 0002:000023E0       Unassigned
 0001:000055D8       UnhookWindowsHookEx
 0001:000055E0       UnionRect
 0001:00002D58       UniqueString
 0001:00091308       Unit1
 0001:000920D8       Unit2
 0001:00091C78       Unit3
 0001:0000562C       UnlockResource
 0001:000050D0       UnrealizeObject
 0001:000055E8       UnregisterClass
 0001:00004074       UnregisterModule
 0001:0000E56C       UnRegisterModuleClasses
 0001:000018E8       UpCase
 0001:000055F0       UpdateWindow
 0001:000063AC       UpperCase
 0001:000055F8       ValidateRect
 0001:00029DE0       ValidParentForm
 0001:00003A60       VarArrayCreate
 0001:00003B28       VarArrayDimCount
 0001:00003B78       VarArrayHighBound
 0001:00003BA8       VarArrayLock
 0001:00003B48       VarArrayLowBound
 0001:00003BD4       VarArrayUnlock
 0001:00003A0C       VarFromDateTime
 0001:00003BF8       VarIsArray
 0001:000039E0       VarIsEmpty
 0001:00003A04       VarIsNull
 0001:00003A30       VarToDateTime
 0001:000039DC       VarType
 0001:00004E70       VirtualAlloc
 0001:00004E78       VirtualQuery
 0001:00004E80       WaitForSingleObject
 0001:00005600       WaitMessage
 0001:00003228       WideCharLenToStrVar
 0002:0000011C       Win32BuildNumber
 0001:0000B7B8       Win32Check
 0002:00000120       Win32CSDVersion
 0002:00000114       Win32MajorVersion
 0002:00000118       Win32MinorVersion
 0001:00025F28       Win32NLSEnableIME
 0002:00000110       Win32Platform
 0001:00005610       WindowFromPoint
 0001:0000570C       Windows
 0001:00005608       WinHelp
 0001:0001D2C4       WinSpool
 0001:00004E88       WriteFile
 0001:000719B0       Wwcommon
 0001:0006DACC       wwCreateCommonButton
 0001:00070B00       wwDataModuleChanged
 0001:0006EBAC       wwDataSet
 0001:000718EC       wwDataSetCompareBookmarks
 0001:0006F7E0       wwDataSetDoOnCalcFields
 0001:00071328       wwDataSetFindRecord
 0001:0006E93C       wwDataSetIsValidField
 0001:0006EE2C       wwDataSetLookupDisplayField
 0001:00070018       wwDataSetRemoveObsolete
 0001:0006FCC4       wwDataSetRemoveObsoleteControls
 0001:0006E9F0       wwDataSetUpdateFieldProperties
 0001:000713EC       wwDataSetUpdateSelected
 0001:0006FE80       wwDataSet_GetControl
 0001:0006DDC8       Wwdatsrc
 0001:0007D6B4       Wwdbcomb
 0001:000863F8       wwdbedit
 0001:00082370       Wwdbgrid
 0001:0008E12C       Wwdbigrd
 0001:0007A380       wwdblook
 0001:0005E1B8       wwDoEncodeDate
 0001:0006EFE4       wwDoLookupTable
 0001:0007AE88       Wwdotdot
 0001:00070FE4       wwDrawDropDownArrow
 0001:00070EFC       wwDrawEllipsis
 0001:0007D924       wwEditMemoField
 0001:0005B7F8       wwEqualStr
 0001:0005DF10       wwfilter
 0001:00072124       wwFindMatch
 0001:000714C8       wwFindSelected
 0001:00070140       wwGetAlias
 0001:0007184C       wwGetControlDataField
 0001:000718A8       wwGetControlDataSource
 0001:0006E768       wwGetControlType
 0001:0006E8F0       wwGetDatabaseName
 0001:0005E120       wwGetDateOrder
 0001:0005E438       wwGetDateTimeCursorPosition
 0001:0006E7F8       wwGetLookupFields
 0001:0006E840       wwGetLookupLinks
 0001:00071668       wwGetOnFilterOptions
 0001:0006E6BC       wwGetOnInvalidValue
 0001:00070E20       wwGetOwnerForm
 0001:0006E720       wwGetPictureMasks
 0001:0007078C       wwGetQueryText
 0001:0005E600       wwGetTimeCursorPosition
 0001:0006E7AC       wwGetValidateWithMask
 0001:00070700       wwInPaintCopyState
 0002:00002864       wwInternational
 0001:0006DCE8       Wwintl
 0001:000718F8       wwIsClass
 0001:0006F57C       wwisNonBDEField
 0001:0006F5D8       wwisNonPhysicalField
 0001:00071048       wwIsTableQuery
 0001:000713C0       wwIsValidChar
 0001:000728B4       Wwlocate
 0001:0007174C       wwmax
 0001:000708DC       wwMemAvail
 0001:0007E1AC       Wwmemo
 0001:00071074       wwPdxPictureMask
 0001:000682B4       Wwpict
 0001:000708E0       wwPictureByField
 0001:00070710       wwPlayKeystroke
 0001:00071700       wwProcessEscapeFilterEvent
 0001:000673BC       Wwqbe
 0001:00066390       Wwquery
 0001:0005DD80       wwRemoveFilter
 0001:0007038C       wwSaveAnswerTable
 0001:000717B4       wwSetControlDataField
 0001:00071754       wwSetControlDataSource
 0001:0005DB70       wwSetFilter
 0001:0005DDB0       wwSetFilterFunction
 0001:000715F4       wwSetOnFilterEnabled
 0001:00070BA4       wwSetPictureMask
 0001:0005B3F0       wwStacks
 0001:0006E6B4       wwstorep
 0001:0005B9A4       Wwstr
 0001:0005E400       wwStrToFloat
 0001:0005E718       wwSystem
 0001:00074634       Wwtable
 0001:0005B4D8       Wwtypes
 0001:00071178       wwValidatePictureFields
 0001:00087504       wwWriteTextLines


  Address         Publics by Value

 0002:FFB6C008       TlsLast
 0001:000011A4       SysGetMem
 0001:0000132C       SysFreeMem
 0001:000016AC       SysReallocMem
 0001:00001770       @GetMem
 0001:00001788       @FreeMem
 0001:000017A0       @ReallocMem
 0001:00001834       @_IOTest
 0001:00001864       @Copy
 0001:000018A8       Move
 0001:000018E8       UpCase
 0001:000018F8       @ROUND
 0001:00001900       @TRUNC
 0001:0000191C       @AbstractError
 0001:00001938       @PStrNCat
 0001:00001968       @PStrCpy
 0001:00001984       @PStrNCpy
 0001:000019B4       @PStrCmp
 0001:00001A38       @AStrCmp
 0001:00001AA8       @FillChar
 0001:00001AC8       @StrLong
 0001:00001B28       @Str0Long
 0001:00001B34       @ValLong
 0001:00001BDC       @_CToPasStr
 0001:00001BF4       @_CLenToPasStr
 0001:00001C18       @SetEq
 0001:00001C2C       @SetExpand
 0001:00001D58       @IntOver
 0001:00001D60       TObject.ClassType
 0001:00001D64       TObject.ClassName
 0001:00001D78       TObject.ClassNameIs
 0001:00001DA0       TObject.ClassParent
 0001:00001DAC       TObject.NewInstance
 0001:00001DC0       TObject.FreeInstance
 0001:00001DE8       TObject.Create
 0001:00001E04       TObject.Destroy
 0001:00001E10       TObject.Free
 0001:00001E1C       TObject.InitInstance
 0001:00001E70       TObject.GetInterface
 0001:00001EA0       TObject.GetInterfaceEntry
 0001:00001EE4       @IsClass
 0001:00001EFC       @AsClass
 0001:00001F48       @CallDynaInst
 0001:00001F60       @FindDynaInst
 0001:00001F78       TObject.InheritsFrom
 0001:00001F8C       TObject.ClassInfo
 0001:00001F90       TObject.SafeCallException
 0001:00001F98       TObject.DefaultHandler
 0001:00001F9C       TObject.Dispatch
 0001:00001FC4       TObject.MethodAddress
 0001:00002014       TObject.FieldAddress
 0001:00002064       @ClassCreate
 0001:000020A0       @ClassDestroy
 0001:000021A4       @HandleAnyException
 0001:00002268       @HandleOnException
 0001:000023A0       @HandleFinally
 0001:000023D8       @RaiseExcept
 0001:000023F4       @RaiseAgain
 0001:00002448       @DoneExcept
 0001:00002478       @TryFinallyExit
 0001:000026C0       @StartExe
 0001:000026F0       @InitResStrings
 0001:0000270C       @InitResStringImports
 0001:00002728       @InitImports
 0001:000027CC       @Halt0
 0001:000028E4       @Halt
 0001:000028F0       @RunError
 0001:000028FC       @LStrClr
 0001:00002920       @LStrArrayClr
 0001:00002950       @LStrAsg
 0001:00002994       @LStrLAsg
 0001:000029BC       @NewAnsiString
 0001:000029E0       @LStrFromPCharLen
 0001:00002A10       @LStrFromPWCharLen
 0001:00002AB0       @LStrFromChar
 0001:00002AC0       @LStrFromPChar
 0001:00002AF0       @LStrFromPWChar
 0001:00002B2C       @LStrFromString
 0001:00002B38       @LStrFromArray
 0001:00002B50       @LStrFromWStr
 0001:00002B64       @LStrToString
 0001:00002B88       @LStrLen
 0001:00002B90       @LStrCat
 0001:00002BD4       @LStrCat3
 0001:00002C48       @LStrCatN
 0001:00002C98       @LStrCmp
 0001:00002D3C       @LStrAddRef
 0001:00002D4C       @LStrToPChar
 0001:00002D58       UniqueString
 0001:00002D8C       @LStrCopy
 0001:00002DCC       @LStrDelete
 0001:00002E14       @LStrInsert
 0001:00002E70       @LStrPos
 0001:00002EB8       @LStrSetLength
 0001:00002F24       @WStrClr
 0001:00002F3C       @WStrArrayClr
 0001:00002F60       @WStrAsg
 0001:00002F84       @WStrFromPCharLen
 0001:00003018       @WStrFromPWCharLen
 0001:00003034       @WStrFromLStr
 0001:00003044       @InitializeRecord
 0001:00003070       @InitializeArray
 0001:00003100       @Initialize
 0001:0000310C       @FinalizeRecord
 0001:00003138       @FinalizeArray
 0001:000031F8       @Finalize
 0001:00003204       @New
 0001:00003218       @Dispose
 0001:00003228       WideCharLenToStrVar
 0001:000032BC       OleStrToStrVar
 0001:000032E4       StringToOleStr
 0001:00003380       @VarClear
 0001:000033B4       @VarCopy
 0001:000034EC       @VarCast
 0001:000035E0       @VarToInt
 0001:0000364C       @VarToBool
 0001:00003680       @VarToReal
 0001:000036DC       @VarToCurr
 0001:00003738       @VarToLStr
 0001:00003774       @VarFromInt
 0001:0000378C       @VarFromBool
 0001:000037AC       @VarFromReal
 0001:000037C4       @VarFromCurr
 0001:000037DC       @VarFromLStr
 0001:000038B4       @VarCmp
 0001:000039B0       @VarClr
 0001:000039B8       @VarAddRef
 0001:000039DC       VarType
 0001:000039E0       VarIsEmpty
 0001:00003A04       VarIsNull
 0001:00003A0C       VarFromDateTime
 0001:00003A30       VarToDateTime
 0001:00003A60       VarArrayCreate
 0001:00003B28       VarArrayDimCount
 0001:00003B48       VarArrayLowBound
 0001:00003B78       VarArrayHighBound
 0001:00003BA8       VarArrayLock
 0001:00003BD4       VarArrayUnlock
 0001:00003BF8       VarIsArray
 0001:00003C00       @VarArrayGet
 0001:00003C84       @VarArrayPut
 0001:00003D70       FindHInstance
 0001:00003D98       FindClassHInstance
 0001:00003DA4       FindResourceHInstance
 0001:00003DC0       LoadResourceModule
 0001:00003F80       AddModuleUnloadProc
 0001:00003FA4       RemoveModuleUnloadProc
 0001:00004064       RegisterModule
 0001:00004074       UnregisterModule
 0001:000040E4       LoadResString
 0001:0000412C       @IntfClear
 0001:00004144       @IntfCopy
 0001:00004160       @IntfAddRef
 0001:00004170       TInterfacedObject.QueryInterface
 0001:00004198       TInterfacedObject._AddRef
 0001:000041A8       TInterfacedObject._Release
 0001:000043CE       @Assign
 0001:00004424       @_Flush
 0001:00004449       @Flush
 0001:00004470       @Close
 0001:000044E7       @ResetText
 0001:000044EE       @RewritText
 0001:000044F5       @Append
 0001:000045A0       @Write0String
 0001:000045AA       @WriteString
 0001:000045C7       @WriteLn
 0001:000045DB       @Write0Char
 0001:0000462D       @WriteChar
 0001:00004644       @Write0CString
 0001:00004648       @WriteCString
 0001:00004674       @Pow10
 0001:00004674       FPower10
 0001:00004948       @Real2Ext
 0001:00004978       @Ext2Real
 0001:000049C4       Finalization
 0001:00004A24       System
 0001:00004B5C       @GetTls
 0001:00004BF4       @InitExe
 0001:00004C18       Finalization
 0001:00004C48       SysInit
 0001:00004C50       RegCloseKey
 0001:00004C58       RegCreateKeyEx
 0001:00004C60       RegFlushKey
 0001:00004C68       RegOpenKeyExA
 0001:00004C70       RegOpenKeyEx
 0001:00004C78       RegQueryValueExA
 0001:00004C80       RegQueryValueEx
 0001:00004C88       CloseHandle
 0001:00004C90       CompareString
 0001:00004C98       CreateEvent
 0001:00004CA0       CreateFile
 0001:00004CA8       CreateMutexA
 0001:00004CB0       CreateThread
 0001:00004CB8       DeleteCriticalSection
 0001:00004CC0       EnterCriticalSection
 0001:00004CC8       EnumCalendarInfoA
 0001:00004CD0       FatalAppExitA
 0001:00004CD8       FindClose
 0001:00004CE0       FindFirstFileA
 0001:00004CE8       FindResource
 0001:00004CF0       FormatMessage
 0001:00004CF8       FreeLibrary
 0001:00004D00       InterlockedDecrement
 0001:00004D08       InterlockedIncrement
 0001:00004D10       FreeResource
 0001:00004D18       GetCPInfo
 0001:00004D20       GetCurrentDirectoryA
 0001:00004D28       GetCurrentProcessId
 0001:00004D30       GetCurrentThreadId
 0001:00004D38       GetDateFormat
 0001:00004D40       GetLastError
 0001:00004D48       GetLocalTime
 0001:00004D50       GetLocaleInfo
 0001:00004D58       GetModuleFileName
 0001:00004D60       GetModuleHandleA
 0001:00004D68       GetModuleHandle
 0001:00004D70       GetProcAddress
 0001:00004D78       GetSystemInfo
 0001:00004D80       GetThreadLocale
 0001:00004D88       GetTickCount
 0001:00004D90       GetVersion
 0001:00004D98       GetVersionEx
 0001:00004DA0       GlobalAddAtom
 0001:00004DA8       GlobalAlloc
 0001:00004DB0       GlobalDeleteAtom
 0001:00004DB8       GlobalFree
 0001:00004DC0       GlobalLock
 0001:00004DC8       GlobalHandle
 0001:00004DD0       GlobalReAlloc
 0001:00004DD8       GlobalUnlock
 0001:00004DE0       InitializeCriticalSection
 0001:00004DE8       IsDBCSLeadByte
 0001:00004DF0       LeaveCriticalSection
 0001:00004DF8       LoadLibraryA
 0001:00004E00       LoadLibrary
 0001:00004E08       LoadResource
 0001:00004E10       LockResource
 0001:00004E18       MulDiv
 0001:00004E20       OpenFileMapping
 0001:00004E28       ReadFile
 0001:00004E30       ReleaseMutex
 0001:00004E38       SearchPathA
 0001:00004E40       SetEndOfFile
 0001:00004E48       SetErrorMode
 0001:00004E50       SetEvent
 0001:00004E58       SetFilePointer
 0001:00004E60       SetThreadLocale
 0001:00004E68       SizeofResource
 0001:00004E70       VirtualAlloc
 0001:00004E78       VirtualQuery
 0001:00004E80       WaitForSingleObject
 0001:00004E88       WriteFile
 0001:00004E90       BitBlt
 0001:00004E98       CopyEnhMetaFile
 0001:00004EA0       CreateBitmap
 0001:00004EA8       CreateBrushIndirect
 0001:00004EB0       CreateCompatibleBitmap
 0001:00004EB8       CreateCompatibleDC
 0001:00004EC0       CreateDIBSection
 0001:00004EC8       CreateDIBitmap
 0001:00004ED0       CreateFontIndirect
 0001:00004ED8       CreateHalftonePalette
 0001:00004EE0       CreateHatchBrush
 0001:00004EE8       CreatePalette
 0001:00004EF0       CreatePenIndirect
 0001:00004EF8       CreateRectRgn
 0001:00004F00       CreateSolidBrush
 0001:00004F08       DeleteDC
 0001:00004F10       DeleteEnhMetaFile
 0001:00004F18       DeleteObject
 0001:00004F20       EnumFontFamiliesEx
 0001:00004F28       EnumFonts
 0001:00004F30       ExcludeClipRect
 0001:00004F38       ExtCreatePen
 0001:00004F40       ExtTextOut
 0001:00004F48       GetBitmapBits
 0001:00004F50       GetBrushOrgEx
 0001:00004F58       GetClipBox
 0001:00004F60       GetCurrentPositionEx
 0001:00004F68       GetDIBColorTable
 0001:00004F70       GetDIBits
 0001:00004F78       GetDeviceCaps
 0001:00004F80       GetEnhMetaFileBits
 0001:00004F88       GetEnhMetaFileHeader
 0001:00004F90       GetEnhMetaFilePaletteEntries
 0001:00004F98       GetNearestColor
 0001:00004FA0       GetObject
 0001:00004FA8       GetPaletteEntries
 0001:00004FB0       GetPixel
 0001:00004FB8       GetStockObject
 0001:00004FC0       GetSystemPaletteEntries
 0001:00004FC8       GetTextExtentPoint
 0001:00004FD0       GetTextMetrics
 0001:00004FD8       GetWinMetaFileBits
 0001:00004FE0       GetWindowOrgEx
 0001:00004FE8       IntersectClipRect
 0001:00004FF0       LineTo
 0001:00004FF8       MaskBlt
 0001:00005000       MoveToEx
 0001:00005008       PatBlt
 0001:00005010       PlayEnhMetaFile
 0001:00005018       PolyPolyline
 0001:00005020       Polyline
 0001:00005028       RealizePalette
 0001:00005030       RectVisible
 0001:00005038       Rectangle
 0001:00005040       RestoreDC
 0001:00005048       SaveDC
 0001:00005050       SelectObject
 0001:00005058       SelectPalette
 0001:00005060       SetBkColor
 0001:00005068       SetBkMode
 0001:00005070       SetBrushOrgEx
 0001:00005078       SetDIBColorTable
 0001:00005080       SetEnhMetaFileBits
 0001:00005088       SetPixel
 0001:00005090       SetROP2
 0001:00005098       SetStretchBltMode
 0001:000050A0       SetTextColor
 0001:000050A8       SetViewportOrgEx
 0001:000050B0       SetWinMetaFileBits
 0001:000050B8       SetWindowOrgEx
 0001:000050C0       StretchBlt
 0001:000050C8       TextOut
 0001:000050D0       UnrealizeObject
 0001:000050D8       ActivateKeyboardLayout
 0001:000050E0       AdjustWindowRectEx
 0001:000050E8       AnsiLower
 0001:000050F0       BeginPaint
 0001:000050F8       CallNextHookEx
 0001:00005100       CallWindowProc
 0001:00005108       CharLowerBuff
 0001:00005110       CharToOem
 0001:00005118       CharToOemBuff
 0001:00005120       CharUpperBuff
 0001:00005128       CheckMenuItem
 0001:00005130       ClientToScreen
 0001:00005138       CloseClipboard
 0001:00005140       CreateIcon
 0001:00005148       CreateMenu
 0001:00005150       CreatePopupMenu
 0001:00005158       CreateWindowEx
 0001:00005160       DefFrameProc
 0001:00005168       DefMDIChildProc
 0001:00005170       DefWindowProc
 0001:00005178       DeleteMenu
 0001:00005180       DestroyCursor
 0001:00005188       DestroyIcon
 0001:00005190       DestroyMenu
 0001:00005198       DestroyWindow
 0001:000051A0       DispatchMessage
 0001:000051A8       DrawEdge
 0001:000051B0       DrawFocusRect
 0001:000051B8       DrawFrameControl
 0001:000051C0       DrawIcon
 0001:000051C8       DrawMenuBar
 0001:000051D0       DrawText
 0001:000051D8       EmptyClipboard
 0001:000051E0       EnableMenuItem
 0001:000051E8       EnableWindow
 0001:000051F0       EndPaint
 0001:000051F8       EnumClipboardFormats
 0001:00005200       EnumThreadWindows
 0001:00005208       EnumWindows
 0001:00005210       EqualRect
 0001:00005218       FillRect
 0001:00005220       FrameRect
 0001:00005228       GetActiveWindow
 0001:00005230       GetCapture
 0001:00005238       GetClassInfo
 0001:00005240       GetClientRect
 0001:00005248       GetClipboardData
 0001:00005250       GetCursor
 0001:00005258       GetCursorPos
 0001:00005260       GetDC
 0001:00005268       GetDCEx
 0001:00005270       GetDesktopWindow
 0001:00005278       GetDoubleClickTime
 0001:00005280       GetFocus
 0001:00005288       GetForegroundWindow
 0001:00005290       GetIconInfo
 0001:00005298       GetKeyNameText
 0001:000052A0       GetKeyState
 0001:000052A8       GetKeyboardLayout
 0001:000052B0       GetKeyboardLayoutList
 0001:000052B8       GetKeyboardState
 0001:000052C0       GetLastActivePopup
 0001:000052C8       GetMenu
 0001:000052D0       GetMenuItemCount
 0001:000052D8       GetMenuState
 0001:000052E0       GetMenuString
 0001:000052E8       GetMessageTime
 0001:000052F0       GetParent
 0001:000052F8       GetProp
 0001:00005300       GetScrollInfo
 0001:00005308       GetScrollPos
 0001:00005310       GetScrollRange
 0001:00005318       GetSubMenu
 0001:00005320       GetSysColor
 0001:00005328       GetSystemMenu
 0001:00005330       GetSystemMetrics
 0001:00005338       GetUpdateRect
 0001:00005340       GetWindow
 0001:00005348       GetWindowDC
 0001:00005350       GetWindowLong
 0001:00005358       GetWindowPlacement
 0001:00005360       GetWindowRect
 0001:00005368       GetWindowRgn
 0001:00005370       GetWindowText
 0001:00005378       GetWindowThreadProcessId
 0001:00005380       HideCaret
 0001:00005388       InflateRect
 0001:00005390       InsertMenu
 0001:00005398       InsertMenuItem
 0001:000053A0       IntersectRect
 0001:000053A8       InvalidateRect
 0001:000053B0       IsCharAlpha
 0001:000053B8       IsCharAlphaNumeric
 0001:000053C0       IsChild
 0001:000053C8       IsDialogMessage
 0001:000053D0       IsIconic
 0001:000053D8       IsRectEmpty
 0001:000053E0       IsWindow
 0001:000053E8       IsWindowEnabled
 0001:000053F0       IsWindowVisible
 0001:000053F8       IsZoomed
 0001:00005400       KillTimer
 0001:00005408       LoadBitmap
 0001:00005410       LoadCursor
 0001:00005418       LoadIcon
 0001:00005420       LoadString
 0001:00005428       MapVirtualKey
 0001:00005430       MapWindowPoints
 0001:00005438       MessageBeep
 0001:00005440       MessageBox
 0001:00005448       OemToAnsi
 0001:00005450       OemToChar
 0001:00005458       OemToCharBuff
 0001:00005460       OffsetRect
 0001:00005468       OpenClipboard
 0001:00005470       PeekMessage
 0001:00005478       PostMessage
 0001:00005480       PostQuitMessage
 0001:00005488       PtInRect
 0001:00005490       RedrawWindow
 0001:00005498       RegisterClass
 0001:000054A0       RegisterClipboardFormat
 0001:000054A8       RegisterWindowMessage
 0001:000054B0       ReleaseCapture
 0001:000054B8       ReleaseDC
 0001:000054C0       RemoveMenu
 0001:000054C8       RemoveProp
 0001:000054D0       ScreenToClient
 0001:000054D8       ScrollWindow
 0001:000054E0       ScrollWindowEx
 0001:000054E8       SendMessage
 0001:000054F0       SetActiveWindow
 0001:000054F8       SetCapture
 0001:00005500       SetClipboardData
 0001:00005508       SetCursor
 0001:00005510       SetFocus
 0001:00005518       SetForegroundWindow
 0001:00005520       SetKeyboardState
 0001:00005528       SetMenu
 0001:00005530       SetParent
 0001:00005538       SetProp
 0001:00005540       SetRect
 0001:00005548       SetScrollInfo
 0001:00005550       SetScrollPos
 0001:00005558       SetScrollRange
 0001:00005560       SetTimer
 0001:00005568       SetWindowLong
 0001:00005570       SetWindowPlacement
 0001:00005578       SetWindowPos
 0001:00005580       SetWindowText
 0001:00005588       SetWindowsHookEx
 0001:00005590       SetWindowRgn
 0001:00005598       ShowCaret
 0001:000055A0       ShowCursor
 0001:000055A8       ShowOwnedPopups
 0001:000055B0       ShowWindow
 0001:000055B8       SystemParametersInfo
 0001:000055C0       TrackPopupMenu
 0001:000055C8       TranslateMDISysAccel
 0001:000055D0       TranslateMessage
 0001:000055D8       UnhookWindowsHookEx
 0001:000055E0       UnionRect
 0001:000055E8       UnregisterClass
 0001:000055F0       UpdateWindow
 0001:000055F8       ValidateRect
 0001:00005600       WaitMessage
 0001:00005608       WinHelp
 0001:00005610       WindowFromPoint
 0001:00005618       MakeLong
 0001:00005624       HiByte
 0001:0000562C       UnlockResource
 0001:00005630       GlobalAllocPtr
 0001:00005640       GlobalReAllocPtr
 0001:0000565C       GlobalFreePtr
 0001:00005670       MakeROP4
 0001:0000567C       SmallPointToPoint
 0001:00005690       PointToSmallPoint
 0001:000056A8       CreateWindow
 0001:000056DC       Finalization
 0001:0000570C       Windows
 0001:00005714       Finalization
 0001:00005744       Messages
 0001:0000621C       DivMod
 0001:00006238       ConvertError
 0001:00006258       ConvertErrorFmt
 0001:00006288       AllocMem
 0001:000062B0       DoExitProc
 0001:000062F4       AddExitProc
 0001:00006344       NewStr
 0001:00006384       DisposeStr
 0001:000063AC       UpperCase
 0001:00006428       LowerCase
 0001:000064A4       CompareStr
 0001:000064D4       CompareMem
 0001:000064F4       CompareText
 0001:00006548       AnsiUpperCase
 0001:00006588       AnsiLowerCase
 0001:000065C8       AnsiCompareText
 0001:00006618       AnsiStrLIComp
 0001:00006658       Trim
 0001:000066EC       AdjustLineBreaks
 0001:0000685C       IsValidIdent
 0001:000068D8       IntToStr
 0001:00006910       StrToInt
 0001:0000698C       StrToIntDef
 0001:000069BC       FileOpen
 0001:00006A0C       FileCreate
 0001:00006A40       FileRead
 0001:00006A78       FileWrite
 0001:00006AB0       FileSeek
 0001:00006ADC       FileClose
 0001:00006AF0       AnsiLastChar
 0001:00006B38       LastDelimiter
 0001:00006BB8       ChangeFileExt
 0001:00006C60       ExtractFileName
 0001:00006CAC       ExtractFileExt
 0001:00006D0C       StrLen
 0001:00006D24       StrEnd
 0001:00006D38       StrMove
 0001:00006D74       StrCopy
 0001:00006D9C       StrECopy
 0001:00006DC8       StrLCopy
 0001:00006DFC       StrPCopy
 0001:00006E2C       StrPLCopy
 0001:00006E5C       StrComp
 0001:00006E80       StrIComp
 0001:00006EC0       StrLIComp
 0001:00006F08       StrScan
 0001:00006F28       StrPos
 0001:00006F7C       StrUpper
 0001:00006F9C       StrPas
 0001:00006FB8       StrAlloc
 0001:00006FEC       StrBufSize
 0001:00007014       StrNew
 0001:0000705C       StrDispose
 0001:00007080       FormatError
 0001:000070F8       FormatVarToStr
 0001:00007114       FormatClearStr
 0001:00007128       FormatBuf
 0001:00007478       StrFmt
 0001:000074C0       StrLFmt
 0001:00007504       Format
 0001:0000752C       FmtStr
 0001:00007648       FloatToStr
 0001:00007678       CurrToStr
 0001:000076A8       FloatToStrF
 0001:000076E4       CurrToStrF
 0001:00007720       FormatFloat
 0001:000077C0       FormatCurr
 0001:00007860       StrToFloat
 0001:000078DC       StrToCurr
 0001:00007958       DateTimeToTimeStamp
 0001:00007998       TimeStampToDateTime
 0001:000079C8       MSecsToTimeStamp
 0001:000079E4       TimeStampToMSecs
 0001:000079F0       DoEncodeTime
 0001:00007AA8       EncodeTime
 0001:00007B28       DecodeTime
 0001:00007B88       IsLeapYear
 0001:00007BD4       DoEncodeDate
 0001:00007D24       EncodeDate
 0001:00007DA0       DecodeDate
 0001:00007F6C       DayOfWeek
 0001:00007FA4       Date
 0001:00007FD0       Time
 0001:00008000       Now
 0001:00008024       CurrentYear
 0001:00008044       AppendChars
 0001:000080B4       AppendString
 0001:000080D8       AppendNumber
 0001:00008128       GetCount
 0001:00008174       GetDate
 0001:000081AC       GetTime
 0001:000081EC       ConvertEraString
 0001:00008378       ConvertYearString
 0001:00008498       AppendFormat
 0001:00008C54       DateTimeToString
 0001:00008CC0       DateToStr
 0001:00008CE0       TimeToStr
 0001:00008D00       DateTimeToStr
 0001:00008D1C       ScanBlanks
 0001:00008D64       ScanNumber
 0001:00008E1C       ScanString
 0001:00008EBC       ScanChar
 0001:00008F14       GetDateOrder
 0001:00008F84       ScanToNumber
 0001:00008FEC       GetEraYearOffset
 0001:00009050       EraToYear
 0001:000090E4       ScanDate
 0001:00009440       ScanTime
 0001:0000961C       StrToDate
 0001:000096A8       StrToTime
 0001:00009734       StrToDateTime
 0001:00009804       SysErrorMessage
 0001:00009870       GetLocaleStr
 0001:000098D4       GetLocaleChar
 0001:00009910       LocalGetLocaleStr
 0001:00009954       GetMonthDayNames
 0001:00009ABC       EnumEraNames
 0001:00009B18       EnumEraYearOffsets
 0001:00009B84       GetEraNamesAndYearOffsets
 0001:00009C2C       TranslateDateFormat
 0001:00009EE4       GetFormatSettings
 0001:0000A248       ExceptObject
 0001:0000A278       ExceptAddr
 0001:0000A2A8       ConvertAddr
 0001:0000A2B4       ExceptionErrorMessage
 0001:0000A474       ShowException
 0001:0000A544       ReturnAddr
 0001:0000A54C       Abort
 0001:0000A5A8       Exception.Create
 0001:0000A5E8       Exception.CreateFmt
 0001:0000A670       EOutOfMemory.Destroy
 0001:0000A694       EOutOfMemory.FreeInstance
 0001:0000A6D0       CreateInOutError
 0001:0000A7D4       ErrorHandler
 0001:0000A840       AssertErrorHandler
 0001:0000A8FC       AbstractErrorHandler
 0001:0000A968       MapException
 0001:0000AA1C       GetExceptionClass
 0001:0000AA48       CreateAVObject
 0001:0000AC18       GetExceptionObject
 0001:0000ACE8       ExceptHandler
 0001:0000AD10       InitExceptions
 0001:0000ADD4       DoneExceptions
 0001:0000AE3C       InitPlatformId
 0001:0000AEA4       ByteTypeTest
 0001:0000AF30       ByteType
 0001:0000AF70       StrByteType
 0001:0000AFA0       ByteToCharLen
 0001:0000AFDC       ByteToCharIndex
 0001:0000B06C       CountChars
 0001:0000B128       CharToByteIndex
 0001:0000B1B8       CharToByteLen
 0001:0000B22C       AnsiPos
 0001:0000B288       AnsiLowerCaseFileName
 0001:0000B374       AnsiUpperCaseFileName
 0001:0000B460       AnsiStrPos
 0001:0000B550       AnsiStrRScan
 0001:0000B5A4       AnsiStrScan
 0001:0000B604       InitSysLocale
 0001:0000B6F0       RaiseLastWin32Error
 0001:0000B7B8       Win32Check
 0001:0000B7DC       CallTerminateProcs
 0001:0000B818       FreeTerminateProcs
 0001:0000B84C       AL1
 0001:0000B85C       AL2
 0001:0000B874       ALV
 0001:0000B8C8       ALR
 0001:0000B964       GDAL
 0001:0000B9E8       RPR
 0001:0000BB08       .
 0001:0000BB2A       FloatToText
 0001:0000BE93       FloatToTextFmt
 0001:0000C268       FloatToDecimal
 0001:0000C4AF       TextToFloat
 0001:0000C5F8       Finalization
 0001:0000C738       SysUtils
 0001:0000C79C       CoInitialize
 0001:0000C7A4       CoUninitialize
 0001:0000C7AC       CoCreateInstance
 0001:0000C7B4       Finalization
 0001:0000C7E4       ActiveX
 0001:0000CB7C       Finalization
 0001:0000CBAC       Consts
 0001:0000CBB4       GetTypeData
 0001:0000CBC0       GetEnumValue
 0001:0000CC0C       GetPropInfo
 0001:0000CC78       GetPropInfos
 0001:0000CCCC       GetOrdProp
 0001:0000CD40       SetOrdProp
 0001:0000D074       GetStrProp
 0001:0000D0B8       SetStrProp
 0001:0000D0EC       SetFloatProp
 0001:0000D184       GetMethodProp
 0001:0000D1C4       SetMethodProp
 0001:0000D1FC       Finalization
 0001:0000D22C       TypInfo
 0001:0000E214       Point
 0001:0000E21C       SmallPoint
 0001:0000E22C       Rect
 0001:0000E248       Bounds
 0001:0000E2F4       GetClass
 0001:0000E35C       FindClass
 0001:0000E44C       RegisterClass
 0001:0000E53C       RegisterClasses
 0001:0000E56C       UnRegisterModuleClasses
 0001:0000E680       RegisterIntegerConsts
 0001:0000E6B0       IdentToInt
 0001:0000E6F0       IntToIdent
 0001:0000E7BC       BeginGlobalLoading
 0001:0000E7E4       NotifyGlobalLoading
 0001:0000E814       EndGlobalLoading
 0001:0000E8F0       InitInheritedComponent
 0001:0000E948       TList.Destroy
 0001:0000E96C       TList.Add
 0001:0000E994       TList.Clear
 0001:0000E9B0       TList.Delete
 0001:0000EA34       TList.Error
 0001:0000EA6C       TList.Expand
 0001:0000EA88       TList.First
 0001:0000EA94       TList.Get
 0001:0000EAF8       TList.Grow
 0001:0000EB30       TList.IndexOf
 0001:0000EB50       TList.Insert
 0001:0000EBF0       TList.Last
 0001:0000EC00       TList.Move
 0001:0000EC8C       TList.Put
 0001:0000ECF4       TList.Remove
 0001:0000ED18       TList.SetCapacity
 0001:0000ED8C       TList.SetCount
 0001:0000EE1C       TThreadList.Create
 0001:0000EE68       TThreadList.Destroy
 0001:0000EEE4       TThreadList.Add
 0001:0000EF44       TThreadList.LockList
 0001:0000EF5C       TThreadList.Remove
 0001:0000EFAC       TThreadList.UnlockList
 0001:0000EFBC       TBits.Destroy
 0001:0000F04C       TBits.SetSize
 0001:0000F0FC       TBits.SetBit
 0001:0000F128       TBits.GetBit
 0001:0000F140       TBits.OpenBit
 0001:0000F1C0       TPersistent.Destroy
 0001:0000F1F0       TPersistent.Assign
 0001:0000F2F8       TPersistent.AssignTo
 0001:0000F304       TPersistent.DefineProperties
 0001:0000F308       TPersistent.GetNamePath
 0001:0000F3B8       TPersistent.GetOwner
 0001:0000F3BC       TCollectionItem.Create
 0001:0000F3F0       TCollectionItem.Destroy
 0001:0000F420       TCollectionItem.Changed
 0001:0000F448       TCollectionItem.GetIndex
 0001:0000F464       TCollectionItem.GetDisplayName
 0001:0000F494       TCollectionItem.GetNamePath
 0001:0000F548       TCollectionItem.GetOwner
 0001:0000F54C       TCollectionItem.SetCollection
 0001:0000F578       TCollectionItem.SetDisplayName
 0001:0000F584       TCollectionItem.SetIndex
 0001:0000F5B8       TCollection.Create
 0001:0000F5F4       TCollection.Destroy
 0001:0000F638       TCollection.Add
 0001:0000F648       TCollection.Assign
 0001:0000F6E0       TCollection.BeginUpdate
 0001:0000F6E4       TCollection.Changed
 0001:0000F6F8       TCollection.Clear
 0001:0000F760       TCollection.EndUpdate
 0001:0000F770       TCollection.GetAttrCount
 0001:0000F774       TCollection.GetAttr
 0001:0000F784       TCollection.GetItemAttr
 0001:0000F7A4       TCollection.GetCount
 0001:0000F7AC       TCollection.GetItem
 0001:0000F7BC       TCollection.GetNamePath
 0001:0000F884       TCollection.GetPropName
 0001:0000FA50       TCollection.SetItemName
 0001:0000FA54       TCollection.Update
 0001:0000FA58       TStrings.Destroy
 0001:0000FA88       TStrings.Add
 0001:0000FAB0       TStrings.AddObject
 0001:0000FAD8       TStrings.AddStrings
 0001:0000FB90       TStrings.Assign
 0001:0000FC00       TStrings.BeginUpdate
 0001:0000FC74       TStrings.DefineProperties
 0001:0000FCC0       TStrings.EndUpdate
 0001:0000FCD8       TStrings.Equals
 0001:0000FD84       TStrings.Error
 0001:0000FDBC       TStrings.Exchange
 0001:0000FEA4       TStrings.GetCapacity
 0001:0000FEB0       TStrings.GetName
 0001:0000FF00       TStrings.GetObject
 0001:0000FF04       TStrings.GetText
 0001:0000FF58       TStrings.GetTextStr
 0001:00010040       TStrings.GetValue
 0001:000100CC       TStrings.IndexOf
 0001:0001014C       TStrings.IndexOfName
 0001:00010210       TStrings.InsertObject
 0001:00010240       TStrings.LoadFromFile
 0001:00010294       TStrings.LoadFromStream
 0001:00010340       TStrings.Move
 0001:000103F0       TStrings.Put
 0001:00010428       TStrings.PutObject
 0001:000104DC       TStrings.SaveToFile
 0001:00010534       TStrings.SaveToStream
 0001:00010590       TStrings.SetCapacity
 0001:00010594       TStrings.SetStringsAdapter
 0001:000105CC       TStrings.SetText
 0001:0001061C       TStrings.SetTextStr
 0001:000106DC       TStrings.SetUpdateState
 0001:000106E0       TStrings.SetValue
 0001:00010808       TStringList.Destroy
 0001:00010864       TStringList.Add
 0001:000108FC       TStringList.Changed
 0001:0001091C       TStringList.Changing
 0001:0001093C       TStringList.Clear
 0001:00010978       TStringList.Delete
 0001:00010A18       TStringList.Exchange
 0001:00010AD8       TStringList.Find
 0001:00010B44       TStringList.Get
 0001:00010BB4       TStringList.GetCapacity
 0001:00010BB8       TStringList.GetCount
 0001:00010BBC       TStringList.GetObject
 0001:00010C5C       TStringList.IndexOf
 0001:00010C9C       TStringList.Insert
 0001:00010D98       TStringList.Put
 0001:00010E34       TStringList.PutObject
 0001:00010F68       TStringList.SetCapacity
 0001:00010F88       TStringList.SetSorted
 0001:00010FA8       TStringList.SetUpdateState
 0001:00010FC0       TStringList.Sort
 0001:00010FF0       TStream.GetPosition
 0001:00011004       TStream.SetPosition
 0001:00011014       TStream.GetSize
 0001:00011050       TStream.SetSize
 0001:00011054       TStream.ReadBuffer
 0001:000110D0       TStream.WriteBuffer
 0001:0001114C       TStream.CopyFrom
 0001:00011200       TStream.ReadComponent
 0001:00011260       THandleStream.Read
 0001:00011274       THandleStream.Write
 0001:00011288       THandleStream.Seek
 0001:00011298       THandleStream.SetSize
 0001:000112BC       TFileStream.Create
 0001:000113B4       TFileStream.Destroy
 0001:000113DC       TCustomMemoryStream.SetPointer
 0001:000113E4       TCustomMemoryStream.Read
 0001:00011428       TCustomMemoryStream.Seek
 0001:0001144C       TMemoryStream.Destroy
 0001:0001147C       TMemoryStream.Clear
 0001:00011498       TMemoryStream.SetCapacity
 0001:000114C4       TMemoryStream.SetSize
 0001:000114F4       TMemoryStream.Realloc
 0001:000115B4       TMemoryStream.Write
 0001:0001160C       TResourceStream.Create
 0001:0001174C       TResourceStream.Destroy
 0001:00011784       TResourceStream.Write
 0001:000117DC       TFiler.Create
 0001:0001181C       TFiler.Destroy
 0001:00011980       GlobalFixupReferences
 0001:00011B08       RemoveFixupReferences
 0001:00011B70       RemoveFixups
 0001:00011C80       TReader.Destroy
 0001:00011CE4       TReader.DefineProperty
 0001:00011D18       TReader.DefineBinaryProperty
 0001:00011DF4       TReader.EndOfList
 0001:00011E0C       TReader.Error
 0001:00011E34       TReader.FindMethod
 0001:00011FA0       TReader.FlushBuffer
 0001:00012004       TReader.GetPosition
 0001:00012020       TReader.NextValue
 0001:00012044       TReader.Read
 0001:00012108       TReader.ReadBoolean
 0001:00012120       TReader.ReadChar
 0001:000121A4       TReader.ReadCollection
 0001:0001244C       TReader.ReadComponent
 0001:00012708       TReader.ReadFloat
 0001:0001274C       TReader.ReadIdent
 0001:00012804       TReader.ReadInteger
 0001:00012870       TReader.ReadListBegin
 0001:0001287C       TReader.ReadListEnd
 0001:00012888       TReader.ReadPrefix
 0001:00013018       TReader.ReadRootComponent
 0001:000132F4       TReader.ReadSignature
 0001:0001335C       TReader.ReadStr
 0001:000133A0       TReader.ReadString
 0001:00013404       TReader.ReadValue
 0001:0001374C       TReader.FindAncestorComponent
 0001:0001380C       TReader.ReferenceName
 0001:00013828       TReader.SetName
 0001:0001385C       TWriter.Write
 0001:000138C4       TWriter.WriteBoolean
 0001:000138E0       TWriter.WriteInteger
 0001:00013958       TWriter.WriteListBegin
 0001:00013964       TWriter.WriteListEnd
 0001:00013970       TWriter.WriteString
 0001:000139D0       TWriter.WriteValue
 0001:000139E8       TComponent.Create
 0001:00013A30       TComponent.Destroy
 0001:00013ABC       TComponent.FreeNotification
 0001:00013BB8       TComponent.InsertComponent
 0001:00013C10       TComponent.RemoveComponent
 0001:00013C54       TComponent.DestroyComponents
 0001:00013C84       TComponent.Destroying
 0001:00013CC0       TComponent.Notification
 0001:00013D34       TComponent.DefineProperties
 0001:00013DB8       TComponent.HasParent
 0001:00013DBC       TComponent.GetChildren
 0001:00013DC4       TComponent.GetChildOwner
 0001:00013DC8       TComponent.GetChildParent
 0001:00013DCC       TComponent.GetNamePath
 0001:00013DE4       TComponent.GetOwner
 0001:00013DE8       TComponent.SetChildOrder
 0001:00013DEC       TComponent.GetParentComponent
 0001:00013DF0       TComponent.SetParentComponent
 0001:00013DF4       TComponent.Updating
 0001:00013E04       TComponent.Updated
 0001:00013E14       TComponent.Loaded
 0001:00013E24       TComponent.ReadState
 0001:00013E30       TComponent.WriteState
 0001:00013E3C       TComponent.ValidateRename
 0001:00013EF0       TComponent.ValidateContainer
 0001:00013F08       TComponent.ValidateInsert
 0001:00013F0C       TComponent.FindComponent
 0001:00013F68       TComponent.SetName
 0001:00014034       TComponent.ChangeName
 0001:0001404C       TComponent.GetComponent
 0001:000140B8       TComponent.GetComponentCount
 0001:000140C8       TComponent.SetComponentIndex
 0001:00014120       TComponent.SetDesigning
 0001:000141B8       TComponent.SafeCallException
 0001:000141D8       TComponent.UpdateRegistry
 0001:000141E0       TStreamAdapter.Create
 0001:0001421C       TStreamAdapter.Read
 0001:00014284       TStreamAdapter.Write
 0001:000142EC       TStreamAdapter.Seek
 0001:0001436C       TStreamAdapter.SetSize
 0001:000143DC       TStreamAdapter.CopyTo
 0001:000144E0       TStreamAdapter.Commit
 0001:000144EC       TStreamAdapter.Revert
 0001:000144F8       TStreamAdapter.LockRegion
 0001:00014504       TStreamAdapter.UnlockRegion
 0001:00014510       TStreamAdapter.Stat
 0001:00014594       TStreamAdapter.Clone
 0001:000145F0       Finalization
 0001:0001466C       Classes
 0001:00015854       PaletteChanged
 0001:00015C58       ColorToRGB
 0001:00015C68       ColorToIdent
 0001:00015C78       IdentToColor
 0001:00015C88       TGraphicsObject.Changed
 0001:00015C9C       TGraphicsObject.Lock
 0001:00015CAC       TGraphicsObject.Unlock
 0001:00015E70       CharsetToIdent
 0001:00015E80       IdentToCharset
 0001:00015F44       TFont.Create
 0001:00015F94       TFont.Destroy
 0001:00015FB8       TFont.Changed
 0001:00015FD4       TFont.Assign
 0001:00016110       TFont.SetColor
 0001:00016124       TFont.GetHandle
 0001:000162C0       TFont.SetHandle
 0001:000162E4       TFont.GetHeight
 0001:000162EC       TFont.SetHeight
 0001:00016314       TFont.GetName
 0001:0001632C       TFont.SetName
 0001:00016388       TFont.GetSize
 0001:000163A4       TFont.SetSize
 0001:000163C4       TFont.GetStyle
 0001:000163D0       TFont.SetStyle
 0001:000163FC       TFont.GetPitch
 0001:00016404       TFont.SetPitch
 0001:0001642C       TFont.GetCharset
 0001:00016434       TFont.SetCharset
 0001:0001645C       TPen.Create
 0001:00016498       TPen.Destroy
 0001:000164BC       TPen.Assign
 0001:000165DC       TPen.GetColor
 0001:000165E4       TPen.SetColor
 0001:0001660C       TPen.GetHandle
 0001:000166A4       TPen.SetHandle
 0001:000166C8       TPen.SetMode
 0001:000166DC       TPen.GetStyle
 0001:000166E4       TPen.SetStyle
 0001:0001670C       TPen.GetWidth
 0001:00016714       TPen.SetWidth
 0001:00016740       TBrush.Create
 0001:00016778       TBrush.Destroy
 0001:0001679C       TBrush.Assign
 0001:000168B4       TBrush.SetBitmap
 0001:000168D8       TBrush.GetColor
 0001:000168E0       TBrush.SetColor
 0001:00016914       TBrush.GetHandle
 0001:000169F4       TBrush.GetStyle
 0001:000169FC       TBrush.SetStyle
 0001:00016A30       TCanvas.Create
 0001:00016AEC       TCanvas.Destroy
 0001:00016B44       TCanvas.BrushCopy
 0001:00016E04       TCanvas.CopyRect
 0001:00016E8C       TCanvas.Draw
 0001:00016F38       TCanvas.DrawFocusRect
 0001:00016F6C       TCanvas.FillRect
 0001:00016FA8       TCanvas.FrameRect
 0001:00016FE4       TCanvas.LineTo
 0001:0001701C       TCanvas.Lock
 0001:00017044       TCanvas.MoveTo
 0001:00017070       TCanvas.Polyline
 0001:000170A8       TCanvas.Rectangle
 0001:000170F0       TCanvas.StretchDraw
 0001:0001712C       TCanvas.TextOut
 0001:0001719C       TCanvas.TextRect
 0001:00017220       TCanvas.TextExtent
 0001:00017264       TCanvas.TextWidth
 0001:00017280       TCanvas.TextHeight
 0001:000172A0       TCanvas.TryLock
 0001:000172FC       TCanvas.Unlock
 0001:00017324       TCanvas.SetFont
 0001:00017334       TCanvas.SetPen
 0001:00017340       TCanvas.SetBrush
 0001:0001734C       TCanvas.GetPenPos
 0001:00017370       TCanvas.SetPenPos
 0001:00017390       TCanvas.GetPixel
 0001:000173BC       TCanvas.SetPixel
 0001:00017404       TCanvas.GetClipRect
 0001:00017428       TCanvas.GetHandle
 0001:000174A4       TCanvas.CreateHandle
 0001:000174A8       TCanvas.SetHandle
 0001:00017550       TCanvas.RequiredState
 0001:000175C4       TCanvas.Changing
 0001:000175D8       TCanvas.Changed
 0001:00017ACC       TransparentStretchBlt
 0001:000186E0       GetDIBSizes
 0001:00018798       GetDIB
 0001:000189B8       TGraphic.Create
 0001:000189E8       TGraphic.Changed
 0001:00018A58       TGraphic.DefineProperties
 0001:00018AA4       TGraphic.Equals
 0001:00018BE8       TGraphic.GetPalette
 0001:00018BEC       TGraphic.GetTransparent
 0001:00018BF0       TGraphic.LoadFromFile
 0001:00018C44       TGraphic.Progress
 0001:00018C6C       TGraphic.ReadData
 0001:00018C78       TGraphic.SaveToFile
 0001:00018CD0       TGraphic.SetPalette
 0001:00018CD4       TGraphic.SetTransparent
 0001:00018CE4       TGraphic.WriteData
 0001:000191DC       TPicture.Create
 0001:00019214       TPicture.Destroy
 0001:00019240       TPicture.AssignTo
 0001:000192D8       TPicture.GetBitmap
 0001:000192F0       TPicture.GetIcon
 0001:00019308       TPicture.SetGraphic
 0001:000193B4       TPicture.LoadFromClipboardFormat
 0001:000194B4       TPicture.SaveToClipboardFormat
 0001:000194E0       TPicture.SupportsClipboardFormat
 0001:000194F8       TPicture.Assign
 0001:00019554       TPicture.Changed
 0001:00019578       TPicture.Progress
 0001:00019764       TPicture.DefineProperties
 0001:000197B0       TPicture.GetWidth
 0001:000197C8       TPicture.GetHeight
 0001:000197E0       TMetafileImage.Destroy
 0001:00019818       TMetafileImage.FreeHandle
 0001:0001981C       TMetafile.Create
 0001:0001985C       TMetafile.Destroy
 0001:00019888       TMetafile.Assign
 0001:0001991C       TMetafile.Draw
 0001:000199B0       TMetafile.GetEmpty
 0001:000199B8       TMetafile.GetHeight
 0001:00019A1C       TMetafile.GetPalette
 0001:00019AA8       TMetafile.GetWidth
 0001:00019B0C       TMetafile.LoadFromStream
 0001:00019B88       TMetafile.ReadData
 0001:00019BE4       TMetafile.ReadEMFStream
 0001:00019CB4       TMetafile.ReadWMFStream
 0001:00019DDC       TMetafile.SaveToFile
 0001:00019E68       TMetafile.SaveToStream
 0001:00019E84       TMetafile.SetHeight
 0001:00019EF8       TMetafile.SetMMHeight
 0001:00019F34       TMetafile.SetMMWidth
 0001:00019F70       TMetafile.SetWidth
 0001:00019FE4       TMetafile.TestEMF
 0001:0001A0C8       TMetafile.WriteData
 0001:0001A14C       TMetafile.WriteEMFStream
 0001:0001A1D0       TMetafile.WriteWMFStream
 0001:0001A318       TMetafile.LoadFromClipboardFormat
 0001:0001A3D8       TMetafile.SaveToClipboardFormat
 0001:0001A49C       FreeMemoryContexts
 0001:0001A7B4       TSharedImage.Reference
 0001:0001A7B8       TSharedImage.Release
 0001:0001A7D8       TBitmapImage.Destroy
 0001:0001A828       TBitmapImage.FreeHandle
 0001:0001AFB0       CopyPalette
 0001:0001B220       TBitmap.Create
 0001:0001B284       TBitmap.Destroy
 0001:0001B2C0       TBitmap.Assign
 0001:0001B474       TBitmap.Changed
 0001:0001B480       TBitmap.Dormant
 0001:0001B49C       TBitmap.Draw
 0001:0001B6EC       TBitmap.FreeImage
 0001:0001B73C       TBitmap.GetEmpty
 0001:0001B754       TBitmap.GetCanvas
 0001:0001B794       TBitmap.GetHandle
 0001:0001B7B8       TBitmap.GetHandleType
 0001:0001B7E4       TBitmap.GetHeight
 0001:0001B7F4       TBitmap.GetMaskHandle
 0001:0001B808       TBitmap.GetMonochrome
 0001:0001B824       TBitmap.GetPalette
 0001:0001B838       TBitmap.GetTransparentColor
 0001:0001B880       TBitmap.GetWidth
 0001:0001B90C       TBitmap.HandleNeeded
 0001:0001B91C       TBitmap.Mask
 0001:0001B9FC       TBitmap.MaskHandleNeeded
 0001:0001BA5C       TBitmap.PaletteNeeded
 0001:0001BB14       TBitmap.LoadFromClipboardFormat
 0001:0001BBD4       TBitmap.LoadFromStream
 0001:0001BBF8       TBitmap.LoadFromResourceName
 0001:0001BD44       TBitmap.ReadData
 0001:0001C218       TBitmap.SetHandle
 0001:0001C2D8       TBitmap.SetHandleType
 0001:0001C40C       TBitmap.SetHeight
 0001:0001C460       TBitmap.SetMonochrome
 0001:0001C4E0       TBitmap.SetPalette
 0001:0001C5B4       TBitmap.SetTransparentColor
 0001:0001C604       TBitmap.SetWidth
 0001:0001C658       TBitmap.WriteData
 0001:0001C888       TBitmap.SaveToStream
 0001:0001C890       TBitmap.SaveToClipboardFormat
 0001:0001C930       TIconImage.Destroy
 0001:0001C95C       TIconImage.FreeHandle
 0001:0001C974       TIcon.Create
 0001:0001C9C8       TIcon.Destroy
 0001:0001C9F4       TIcon.Assign
 0001:0001CA54       TIcon.Draw
 0001:0001CA8C       TIcon.GetEmpty
 0001:0001CAA4       TIcon.GetHandle
 0001:0001CAB8       TIcon.GetHeight
 0001:0001CAC0       TIcon.GetWidth
 0001:0001CBE4       TIcon.LoadFromStream
 0001:0001CD0C       TIcon.SetHandle
 0001:0001CD24       TIcon.SetHeight
 0001:0001CD6C       TIcon.SetWidth
 0001:0001CDB4       TIcon.SaveToStream
 0001:0001CDE0       TIcon.LoadFromClipboardFormat
 0001:0001CE2C       TIcon.SaveToClipboardFormat
 0001:0001CEB0       GetDefFontCharSet
 0001:0001CFAC       Finalization
 0001:0001D074       Graphics
 0001:0001D160       ImageList_Create
 0001:0001D168       ImageList_Destroy
 0001:0001D170       ImageList_GetImageCount
 0001:0001D178       ImageList_Add
 0001:0001D180       ImageList_ReplaceIcon
 0001:0001D188       ImageList_SetBkColor
 0001:0001D190       ImageList_GetBkColor
 0001:0001D198       ImageList_AddIcon
 0001:0001D1A4       ImageList_Draw
 0001:0001D1AC       ImageList_Replace
 0001:0001D1B4       ImageList_DrawEx
 0001:0001D1BC       ImageList_Remove
 0001:0001D1C4       ImageList_BeginDrag
 0001:0001D1CC       ImageList_EndDrag
 0001:0001D1D4       ImageList_DragEnter
 0001:0001D1DC       ImageList_DragLeave
 0001:0001D1E4       ImageList_DragMove
 0001:0001D1EC       ImageList_SetDragCursorImage
 0001:0001D1F4       ImageList_DragShowNolock
 0001:0001D1FC       ImageList_GetDragImage
 0001:0001D204       ImageList_Read
 0001:0001D20C       ImageList_GetIconSize
 0001:0001D214       ImageList_SetIconSize
 0001:0001D21C       ImageList_GetImageInfo
 0001:0001D224       Finalization
 0001:0001D254       Commctrl
 0001:0001D25C       Finalization
 0001:0001D28C       Imm
 0001:0001D294       Finalization
 0001:0001D2C4       WinSpool
 0001:0001D2CC       Finalization
 0001:0001D308       Printers
 0001:0001E3E8       InitWndProc
 0001:0001E4A0       FindControl
 0001:0001E4BC       SendAppMessage
 0001:0001E66C       CursorToIdent
 0001:0001E67C       IdentToCursor
 0001:0001E68C       GetShortHint
 0001:0001E6D0       GetLongHint
 0001:0001E714       GetCaptureControl
 0001:0001E73C       SetCaptureControl
 0001:0001E780       TDragObject.Instance
 0001:0001E788       TDragObject.GetName
 0001:0001E7B0       TDragObject.GetDragImages
 0001:0001E7E0       TDragObject.GetDragCursor
 0001:0001E7F8       TDragObject.Finished
 0001:0001E800       TDragObject.HideDragImage
 0001:0001E804       TDragObject.ShowDragImage
 0001:0001E888       TDragControlObject.Create
 0001:0001E8A8       TDragControlObject.GetDragImages
 0001:0001E8B4       TDragControlObject.HideDragImage
 0001:0001E8D4       TDragControlObject.ShowDragImage
 0001:0001E8F4       TDragControlObject.GetDragCursor
 0001:0001E90C       TDragControlObject.Finished
 0001:0001EE24       CancelDrag
 0001:0001EE3C       FindVCLWindow
 0001:0001EE70       FindDragTarget
 0001:0001EEFC       MoveWindowOrg
 0001:0001F094       TControlCanvas.Destroy
 0001:0001F0C0       TControlCanvas.CreateHandle
 0001:0001F15C       TControlCanvas.FreeHandle
 0001:0001F190       TControlCanvas.SetControl
 0001:0001F1A8       TControl.Create
 0001:0001F238       TControl.Destroy
 0001:0001F284       TControl.GetDragImages
 0001:0001F288       TControl.GetPalette
 0001:0001F28C       TControl.HasParent
 0001:0001F294       TControl.GetParentComponent
 0001:0001F298       TControl.SetParentComponent
 0001:0001F2BC       TControl.PaletteChanged
 0001:0001F338       TControl.SetDragMode
 0001:0001F33C       TControl.RequestAlign
 0001:0001F34C       TControl.ReadState
 0001:0001F3CC       TControl.Notification
 0001:0001F3F8       TControl.SetAlign
 0001:0001F45C       TControl.SetBounds
 0001:0001F4C8       TControl.SetLeft
 0001:0001F4E8       TControl.SetTop
 0001:0001F508       TControl.SetWidth
 0001:0001F528       TControl.SetHeight
 0001:0001F548       TControl.GetBoundsRect
 0001:0001F568       TControl.SetBoundsRect
 0001:0001F590       TControl.GetClientRect
 0001:0001F5A8       TControl.GetClientWidth
 0001:0001F5C0       TControl.SetClientWidth
 0001:0001F5EC       TControl.GetClientHeight
 0001:0001F604       TControl.SetClientHeight
 0001:0001F62C       TControl.GetClientOrigin
 0001:0001F6BC       TControl.ClientToScreen
 0001:0001F6E8       TControl.ScreenToClient
 0001:0001F714       TControl.SendCancelMode
 0001:0001F72C       TControl.Changed
 0001:0001F73C       TControl.ChangeScale
 0001:0001F88C       TControl.SetName
 0001:0001F974       TControl.SetParent
 0001:0001F9F8       TControl.SetVisible
 0001:0001FA34       TControl.SetEnabled
 0001:0001FA4C       TControl.GetTextLen
 0001:0001FA5C       TControl.GetTextBuf
 0001:0001FA68       TControl.SetPopupMenu
 0001:0001FA78       TControl.SetTextBuf
 0001:0001FA9C       TControl.GetText
 0001:0001FACC       TControl.SetText
 0001:0001FB6C       TControl.SetFont
 0001:0001FB78       TControl.IsFontStored
 0001:0001FB8C       TControl.IsShowHintStored
 0001:0001FB94       TControl.SetParentFont
 0001:0001FBB4       TControl.SetShowHint
 0001:0001FBD0       TControl.SetParentShowHint
 0001:0001FBF0       TControl.SetColor
 0001:0001FC0C       TControl.IsColorStored
 0001:0001FC14       TControl.SetParentColor
 0001:0001FC34       TControl.SetCursor
 0001:0001FC50       TControl.GetMouseCapture
 0001:0001FC60       TControl.SetMouseCapture
 0001:0001FC88       TControl.BringToFront
 0001:0001FD18       TControl.SetZOrder
 0001:0001FD3C       TControl.GetDeviceContext
 0001:0001FEFC       TControl.Invalidate
 0001:0001FF0C       TControl.Hide
 0001:0001FF14       TControl.Update
 0001:0001FF24       TControl.Refresh
 0001:0001FF2C       TControl.Repaint
 0001:00020024       TControl.BeginDrag
 0001:000200F8       TControl.DragCanceled
 0001:000200FC       TControl.Dragging
 0001:00020108       TControl.DragOver
 0001:00020144       TControl.DragDrop
 0001:00020170       TControl.DoStartDrag
 0001:00020190       TControl.DoEndDrag
 0001:00020254       TControl.Perform
 0001:00020288       TControl.VisibleChanging
 0001:0002028C       TControl.WndProc
 0001:0002036C       TControl.DefaultHandler
 0001:00020434       TControl.DefineProperties
 0001:00020484       TControl.Click
 0001:000204A4       TControl.DblClick
 0001:000204C4       TControl.MouseDown
 0001:00020538       TControl.WMLButtonDown
 0001:00020584       TControl.WMNCLButtonDown
 0001:000205A0       TControl.WMLButtonDblClk
 0001:000205F4       TControl.GetPopupMenu
 0001:0002066C       TControl.WMRButtonDown
 0001:00020694       TControl.WMRButtonDblClk
 0001:000206BC       TControl.WMMButtonDown
 0001:000206E4       TControl.WMMButtonDblClk
 0001:0002070C       TControl.MouseMove
 0001:00020734       TControl.WMMouseMove
 0001:00020770       TControl.MouseUp
 0001:000207DC       TControl.WMLButtonUp
 0001:00020850       TControl.WMRButtonUp
 0001:00020880       TControl.WMMButtonUp
 0001:000208A0       TControl.WMCancelMode
 0001:000208D8       TControl.CMVisibleChanged
 0001:00020900       TControl.CMEnabledChanged
 0001:00020908       TControl.CMFontChanged
 0001:00020910       TControl.CMColorChanged
 0001:00020918       TControl.CMParentColorChanged
 0001:00020948       TControl.CMParentShowHintChanged
 0001:00020964       TControl.CMParentFontChanged
 0001:00020994       TControl.CMSysFontChanged
 0001:000209B4       TControl.CMHitTest
 0001:000209BC       TControl.CMMouseEnter
 0001:000209D4       TControl.CMMouseLeave
 0001:000209EC       TControl.CMDesignHitTest
 0001:000209F4       TWinControl.Create
 0001:00020A88       TWinControl.Destroy
 0001:00020B24       TWinControl.FixupTabList
 0001:00020BF8       TWinControl.ReadState
 0001:00020FD8       TWinControl.AlignControls
 0001:000210E8       TWinControl.DisableAlign
 0001:000210F0       TWinControl.EnableAlign
 0001:00021110       TWinControl.Realign
 0001:00021118       TWinControl.ContainsControl
 0001:000211E0       TWinControl.InsertControl
 0001:000212A0       TWinControl.RemoveControl
 0001:0002131C       TWinControl.GetControl
 0001:0002134C       TWinControl.GetControlCount
 0001:0002136C       TWinControl.Broadcast
 0001:000213AC       TWinControl.NotifyControls
 0001:000213D4       TWinControl.CreateSubClass
 0001:00021444       TWinControl.CreateParams
 0001:00021564       TWinControl.CreateWnd
 0001:000216BC       TWinControl.CreateWindowHandle
 0001:00021700       TWinControl.DestroyWnd
 0001:00021758       TWinControl.DestroyWindowHandle
 0001:000217B0       TWinControl.CreateHandle
 0001:0002181C       TWinControl.DestroyHandle
 0001:00021860       TWinControl.RecreateWnd
 0001:00021878       TWinControl.CMRecreateWnd
 0001:000219A8       TWinControl.UpdateControlState
 0001:000219E8       TWinControl.MainWndProc
 0001:00021A60       TWinControl.ControlAtPos
 0001:00021B20       TWinControl.IsControlMouseMsg
 0001:00021BAC       TWinControl.WndProc
 0001:00021CD4       TWinControl.DefaultHandler
 0001:00021DBC       TWinControl.PaintHandler
 0001:00021EE4       TWinControl.PaintWindow
 0001:00021F10       TWinControl.PaintControls
 0001:00022118       TWinControl.PaintTo
 0001:00022268       TWinControl.WMPaint
 0001:000223C4       TWinControl.WMCommand
 0001:000223E4       TWinControl.WMNotify
 0001:00022408       TWinControl.WMSysColorChange
 0001:00022424       TWinControl.WMWinIniChange
 0001:00022438       TWinControl.WMFontChange
 0001:00022448       TWinControl.WMTimeChange
 0001:00022458       TWinControl.WMHScroll
 0001:00022478       TWinControl.WMVScroll
 0001:00022498       TWinControl.WMCompareItem
 0001:000224BC       TWinControl.WMDeleteItem
 0001:000224E0       TWinControl.WMDrawItem
 0001:00022504       TWinControl.WMMeasureItem
 0001:00022528       TWinControl.WMEraseBkgnd
 0001:00022564       TWinControl.WMWindowPosChanged
 0001:000225F4       TWinControl.WMSize
 0001:00022614       TWinControl.WMMove
 0001:00022628       TWinControl.WMSetCursor
 0001:00022714       TWinControl.WMSetFocus
 0001:00022728       TWinControl.WMKillFocus
 0001:0002273C       TWinControl.WMIMEStartComp
 0001:00022750       TWinControl.WMIMEEndComp
 0001:00022764       TWinControl.SetIme
 0001:0002280C       TWinControl.ResetIme
 0001:00022868       TWinControl.DoEnter
 0001:00022888       TWinControl.DoExit
 0001:000228A8       TWinControl.KeyDown
 0001:000228D0       TWinControl.DoKeyDown
 0001:00022964       TWinControl.WMKeyDown
 0001:00022984       TWinControl.WMSysKeyDown
 0001:000229A4       TWinControl.KeyUp
 0001:000229CC       TWinControl.DoKeyUp
 0001:00022A30       TWinControl.WMKeyUp
 0001:00022A50       TWinControl.WMSysKeyUp
 0001:00022A70       TWinControl.KeyPress
 0001:00022A90       TWinControl.DoKeyPress
 0001:00022AFC       TWinControl.WMChar
 0001:00022B1C       TWinControl.WMSysCommand
 0001:00022B94       TWinControl.WMCharToItem
 0001:00022BB4       TWinControl.WMParentNotify
 0001:00022BE8       TWinControl.WMVKeyToItem
 0001:00022C08       TWinControl.WMDestroy
 0001:00022C3C       TWinControl.WMNCDestroy
 0001:00022C58       TWinControl.WMNCHitTest
 0001:00022C7C       TWinControl.PaletteChanged
 0001:00022CE0       TWinControl.WMQueryNewPalette
 0001:00022D04       TWinControl.WMPaletteChanged
 0001:00022D24       TWinControl.CMShowHintChanged
 0001:00022D3C       TWinControl.CMEnter
 0001:00022D50       TWinControl.CMExit
 0001:00022D64       TWinControl.CMDesignHitTest
 0001:00022D84       TWinControl.CMChanged
 0001:00022D98       TWinControl.CMChildKey
 0001:00022DAC       TWinControl.CMDialogKey
 0001:00022DB4       TWinControl.CMDialogChar
 0001:00022DBC       TWinControl.CMFocusChanged
 0001:00022DC4       TWinControl.CMVisibleChanged
 0001:00022DF4       TWinControl.CMShowingChanged
 0001:00022E1C       TWinControl.CMEnabledChanged
 0001:00022E5C       TWinControl.CMColorChanged
 0001:00022E84       TWinControl.CMFontChanged
 0001:00022EC0       TWinControl.CMCursorChanged
 0001:00022F00       TWinControl.CMCtl3DChanged
 0001:00022F40       TWinControl.CMParentCtl3DChanged
 0001:00022F80       TWinControl.CMSysColorChange
 0001:00022F88       TWinControl.CMWinIniChange
 0001:00022F90       TWinControl.CMFontChange
 0001:00022F98       TWinControl.CMTimeChange
 0001:00022FA0       TWinControl.CMDrag
 0001:00022FF8       TWinControl.CMControlListChange
 0001:0002300C       TWinControl.CMSysFontChanged
 0001:000230B0       TWinControl.CNKeyDown
 0001:00023188       TWinControl.CNKeyUp
 0001:000231DC       TWinControl.CNChar
 0001:00023228       TWinControl.CNSysKeyDown
 0001:00023284       TWinControl.CNSysChar
 0001:000232B8       TWinControl.SetBounds
 0001:00023388       TWinControl.ScaleControls
 0001:000233D0       TWinControl.ChangeScale
 0001:00023430       TWinControl.ScrollBy
 0001:00023508       TWinControl.ShowControl
 0001:000235F4       TWinControl.SetZOrder
 0001:00023654       TWinControl.GetDeviceContext
 0001:000236EC       TWinControl.Invalidate
 0001:000236FC       TWinControl.CMInvalidate
 0001:0002374C       TWinControl.Update
 0001:00023768       TWinControl.Repaint
 0001:000237B4       TWinControl.CanFocus
 0001:000237E8       TWinControl.SetFocus
 0001:00023820       TWinControl.Focused
 0001:00023844       TWinControl.HandleNeeded
 0001:00023868       TWinControl.GetHandle
 0001:0002387C       TWinControl.GetClientOrigin
 0001:0002389C       TWinControl.GetClientRect
 0001:000238B4       TWinControl.SetCtl3D
 0001:000238D8       TWinControl.IsCtl3DStored
 0001:000238E4       TWinControl.SetParentCtl3D
 0001:00023908       TWinControl.GetTabOrder
 0001:00023988       TWinControl.SetTabOrder
 0001:000239A0       TWinControl.SetTabStop
 0001:00023A00       TWinControl.HandleAllocated
 0001:00023ABC       TWinControl.GetTabOrderList
 0001:00023B14       TWinControl.FindNextControl
 0001:00023C18       TWinControl.SelectNext
 0001:00023C44       TWinControl.SelectFirst
 0001:00023C88       TWinControl.GetChildren
 0001:00023CD0       TWinControl.SetChildOrder
 0001:00023D10       TGraphicControl.Create
 0001:00023D64       TGraphicControl.Destroy
 0001:00023D94       TGraphicControl.WMPaint
 0001:00023E38       TGraphicControl.Paint
 0001:00023E3C       THintWindow.Create
 0001:00023EE0       THintWindow.CreateParams
 0001:00023F0C       THintWindow.WMNCHitTest
 0001:00023F14       THintWindow.WMNCPaint
 0001:00023FAC       THintWindow.Paint
 0001:00024040       THintWindow.IsHintMsg
 0001:000240A4       THintWindow.ReleaseHandle
 0001:000240AC       THintWindow.CMTextChanged
 0001:00024134       THintWindow.ActivateHint
 0001:000241F4       THintWindow.ActivateHintData
 0001:00024220       THintWindow.CalcHintRect
 0001:00024274       TCustomControl.Create
 0001:000242C8       TCustomControl.Destroy
 0001:000242F8       TCustomControl.WMPaint
 0001:00024300       TCustomControl.PaintWindow
 0001:00024398       TCustomControl.Paint
 0001:0002441C       TCustomImageList.Create
 0001:00024460       TCustomImageList.CreateSize
 0001:000244AC       TCustomImageList.Destroy
 0001:00024504       TCustomImageList.Initialize
 0001:000245C4       TCustomImageList.HandleAllocated
 0001:000245CC       TCustomImageList.HandleNeeded
 0001:000246B8       TCustomImageList.SetWidth
 0001:00024700       TCustomImageList.SetHeight
 0001:00024748       TCustomImageList.SetHandle
 0001:00024784       TCustomImageList.GetHandle
 0001:000248B8       TCustomImageList.GetImageBitmap
 0001:000248F8       TCustomImageList.GetMaskBitmap
 0001:00024938       TCustomImageList.Add
 0001:000249DC       TCustomImageList.AddMasked
 0001:00024AF4       TCustomImageList.GetCount
 0001:00024B18       TCustomImageList.ReplaceMasked
 0001:00024D14       TCustomImageList.Delete
 0001:00024DA0       TCustomImageList.Clear
 0001:00024DBC       TCustomImageList.SetBkColor
 0001:00024DF8       TCustomImageList.GetBkColor
 0001:00024F50       TCustomImageList.AddImages
 0001:00024F70       TCustomImageList.Assign
 0001:0002502C       TCustomImageList.AssignTo
 0001:00025214       TCustomImageList.SetDragCursor
 0001:0002522C       TCustomImageList.SetDragImage
 0001:00025274       TCustomImageList.BeginDrag
 0001:000252D4       TCustomImageList.DragLock
 0001:00025338       TCustomImageList.DragUnlock
 0001:0002535C       TCustomImageList.DragMove
 0001:000253A0       TCustomImageList.ShowDragImage
 0001:000253B8       TCustomImageList.HideDragImage
 0001:000253D0       TCustomImageList.EndDrag
 0001:00025418       TCustomImageList.Change
 0001:00025458       TCustomImageList.UnRegisterChanges
 0001:00025624       TCustomImageList.DefineProperties
 0001:00025F28       Win32NLSEnableIME
 0001:00025F40       SetImeMode
 0001:0002601C       Imm32IsIME
 0001:00026190       Finalization
 0001:000261DC       Controls
 0001:000268E4       ShortCutToText
 0001:00026B48       TextToShortCut
 0001:00026DC8       TMenuItem.Create
 0001:00026E08       TMenuItem.Destroy
 0001:000272B8       TMenuItem.GetHandle
 0001:0002734C       TMenuItem.DefineProperties
 0001:00027390       TMenuItem.HasParent
 0001:00027394       TMenuItem.SetBreak
 0001:000273A4       TMenuItem.SetCaption
 0001:00027414       TMenuItem.SetChecked
 0001:00027460       TMenuItem.SetEnabled
 0001:000274D4       TMenuItem.SetGroupIndex
 0001:00027518       TMenuItem.GetCount
 0001:00027528       TMenuItem.GetItem
 0001:00027548       TMenuItem.SetShortCut
 0001:00027554       TMenuItem.SetVisible
 0001:00027560       TMenuItem.GetMenuIndex
 0001:00027578       TMenuItem.SetMenuIndex
 0001:000275C0       TMenuItem.GetChildren
 0001:000275F8       TMenuItem.SetChildOrder
 0001:00027618       TMenuItem.SetDefault
 0001:00027674       TMenuItem.Insert
 0001:00027770       TMenuItem.Delete
 0001:000277D8       TMenuItem.Click
 0001:000277F4       TMenuItem.IndexOf
 0001:0002780C       TMenuItem.Add
 0001:00027828       TMenuItem.Remove
 0001:00027898       TMenuItem.MenuChanged
 0001:000278FC       TMenuItem.GetParentComponent
 0001:00027910       TMenuItem.SetParentComponent
 0001:00027964       TMenuItem.SetRadioItem
 0001:00027990       TMenu.Create
 0001:000279F0       TMenu.Destroy
 0001:00027A1C       TMenu.GetChildren
 0001:00027A38       TMenu.GetHandle
 0001:00027A44       TMenu.SetChildOrder
 0001:00027AF8       TMenu.FindItem
 0001:00027B28       TMenu.GetHelpContext
 0001:00027B98       TMenu.DispatchCommand
 0001:00027BBC       TMenu.DispatchPopup
 0001:00027C6C       TMenu.IsShortCut
 0001:00027E2C       TMenu.SetWindowHandle
 0001:00027E38       TMenu.MenuChanged
 0001:00027E3C       TMainMenu.SetAutoMerge
 0001:00027E5C       TMainMenu.MenuChanged
 0001:00027E7C       TMainMenu.Merge
 0001:00027E98       TMainMenu.Unmerge
 0001:00027EDC       TMainMenu.GetHandle
 0001:000281B8       TPopupMenu.Create
 0001:00028210       TPopupMenu.Destroy
 0001:00028254       TPopupMenu.GetHelpContext
 0001:0002825C       TPopupMenu.SetHelpContext
 0001:00028264       TPopupMenu.Popup
 0001:00028340       Finalization
 0001:0002839C       Menus
 0001:000295F4       DisableTaskWindows
 0001:000296A4       EnableTaskWindows
 0001:000297BC       ForegroundTask
 0001:00029860       InitCtl3D
 0001:00029A98       DoneCtl3D
 0001:00029AE4       MakeObjectInstance
 0001:00029B7C       FreeObjectInstance
 0001:00029BA0       AllocateHWnd
 0001:00029C5C       DeallocateHWnd
 0001:00029C84       KeysToShiftState
 0001:00029CD8       KeyDataToShiftState
 0001:00029D14       IsAccel
 0001:00029DB4       GetParentForm
 0001:00029DE0       ValidParentForm
 0001:00029EAC       TControlScrollBar.Assign
 0001:0002A224       TControlScrollBar.SetPosition
 0001:0002A2F8       TControlScrollBar.SetRange
 0001:0002A30C       TControlScrollBar.IsRangeStored
 0001:0002A318       TControlScrollBar.SetVisible
 0001:0002A3D8       TScrollingWinControl.Create
 0001:0002A43C       TScrollingWinControl.Destroy
 0001:0002A474       TScrollingWinControl.CreateParams
 0001:0002A484       TScrollingWinControl.CreateWnd
 0001:0002A498       TScrollingWinControl.AlignControls
 0001:0002A540       TScrollingWinControl.SetAutoScroll
 0001:0002A57C       TScrollingWinControl.SetHorzScrollBar
 0001:0002A588       TScrollingWinControl.SetVertScrollBar
 0001:0002A68C       TScrollingWinControl.AutoScrollInView
 0001:0002A6A4       TScrollingWinControl.ScrollInView
 0001:0002A89C       TScrollingWinControl.ChangeScale
 0001:0002A8C0       TScrollingWinControl.WMSize
 0001:0002A930       TScrollingWinControl.WMHScroll
 0001:0002A954       TScrollingWinControl.WMVScroll
 0001:0002A978       TCustomForm.Create
 0001:0002AB08       TCustomForm.CreateNew
 0001:0002AC14       TCustomForm.Destroy
 0001:0002AD3C       TCustomForm.Loaded
 0001:0002AD74       TCustomForm.Notification
 0001:0002ADFC       TCustomForm.ReadState
 0001:0002AFE0       TCustomForm.DefineProperties
 0001:0002B0CC       TCustomForm.ChangeScale
 0001:0002B1A8       TCustomForm.IsClientSizeStored
 0001:0002B1B8       TCustomForm.IsFormSizeStored
 0001:0002B1E0       TCustomForm.IsAutoScrollStored
 0001:0002B214       TCustomForm.DoHide
 0001:0002B234       TCustomForm.DoShow
 0001:0002B254       TCustomForm.GetClientRect
 0001:0002B2DC       TCustomForm.GetChildren
 0001:0002B348       TCustomForm.SetChildOrder
 0001:0002B3DC       TCustomForm.SetClientWidth
 0001:0002B408       TCustomForm.SetClientHeight
 0001:0002B434       TCustomForm.SetVisible
 0001:0002B460       TCustomForm.VisibleChanging
 0001:0002B4C4       TCustomForm.WantChildKey
 0001:0002B4C8       TCustomForm.SetParent
 0001:0002B500       TCustomForm.ValidateRename
 0001:0002B53C       TCustomForm.WndProc
 0001:0002B82C       TCustomForm.AlignControls
 0001:0002B86C       TCustomForm.SetBorderIcons
 0001:0002B898       TCustomForm.SetBorderStyle
 0001:0002B8D0       TCustomForm.GetActiveMDIChild
 0001:0002B904       TCustomForm.GetMDIChildCount
 0001:0002B950       TCustomForm.GetMDIChildren
 0001:0002B9A0       TCustomForm.GetCanvas
 0001:0002B9A8       TCustomForm.SetIcon
 0001:0002B9B4       TCustomForm.IsColorStored
 0001:0002B9E0       TCustomForm.IsForm
 0001:0002B9E8       TCustomForm.IsIconStored
 0001:0002BA10       TCustomForm.SetFormStyle
 0001:0002BB0C       TCustomForm.SetObjectMenuItem
 0001:0002BB20       TCustomForm.SetWindowMenu
 0001:0002BB48       TCustomForm.SetMenu
 0001:0002BD0C       TCustomForm.GetPixelsPerInch
 0001:0002BD20       TCustomForm.SetPixelsPerInch
 0001:0002BD54       TCustomForm.SetPosition
 0001:0002BD70       TCustomForm.GetScaled
 0001:0002BD7C       TCustomForm.SetScaled
 0001:0002BDAC       TCustomForm.CMColorChanged
 0001:0002BDE8       TCustomForm.CMCtl3DChanged
 0001:0002BE30       TCustomForm.CMFontChanged
 0001:0002BE50       TCustomForm.CMMenuChanged
 0001:0002BE6C       TCustomForm.SetWindowState
 0001:0002BEAC       TCustomForm.CreateParams
 0001:0002C098       TCustomForm.CreateWnd
 0001:0002C1D8       TCustomForm.CreateWindowHandle
 0001:0002C2D8       TCustomForm.DestroyWindowHandle
 0001:0002C31C       TCustomForm.DefaultHandler
 0001:0002C380       TCustomForm.SetActiveControl
 0001:0002C430       TCustomForm.DefocusControl
 0001:0002C478       TCustomForm.FocusControl
 0001:0002C498       TCustomForm.SetFocusedControl
 0001:0002C718       TCustomForm.ActiveChanged
 0001:0002C7D0       TCustomForm.SendCancelMode
 0001:0002C92C       TCustomForm.Activate
 0001:0002C94C       TCustomForm.Deactivate
 0001:0002C96C       TCustomForm.Paint
 0001:0002C98C       TCustomForm.Resize
 0001:0002C9C8       TCustomForm.PaintWindow
 0001:0002CA78       TCustomForm.PaletteChanged
 0001:0002CB24       TCustomForm.WMPaint
 0001:0002CB80       TCustomForm.WMIconEraseBkgnd
 0001:0002CBE0       TCustomForm.WMEraseBkgnd
 0001:0002CC18       TCustomForm.WMQueryDragIcon
 0001:0002CD28       TCustomForm.WMNCCreate
 0001:0002CD5C       TCustomForm.WMDestroy
 0001:0002CDBC       TCustomForm.WMCommand
 0001:0002CDF0       TCustomForm.WMInitMenuPopup
 0001:0002CE08       TCustomForm.WMMenuSelect
 0001:0002CEB4       TCustomForm.WMActivate
 0001:0002CED4       TCustomForm.WMSize
 0001:0002CF40       TCustomForm.WMClose
 0001:0002CF48       TCustomForm.WMQueryEndSession
 0001:0002CF74       TCustomForm.CMAppSysCommand
 0001:0002CFCC       TCustomForm.WMSysCommand
 0001:0002CFFC       TCustomForm.WMShowWindow
 0001:0002D094       TCustomForm.WMMDIActivate
 0001:0002D0EC       TCustomForm.WMNextDlgCtl
 0001:0002D118       TCustomForm.WMEnterMenuLoop
 0001:0002D174       TCustomForm.WMHelp
 0001:0002D278       TCustomForm.CMActivate
 0001:0002D284       TCustomForm.CMDeactivate
 0001:0002D298       TCustomForm.CMDialogKey
 0001:0002D334       TCustomForm.CMShowingChanged
 0001:0002D6EC       TCustomForm.CMIconChanged
 0001:0002D70C       TCustomForm.CMRelease
 0001:0002D714       TCustomForm.CMTextChanged
 0001:0002D764       TCustomForm.CMUIActivate
 0001:0002D76C       TCustomForm.CMParentFontChanged
 0001:0002D7D8       TCustomForm.Close
 0001:0002D880       TCustomForm.CloseQuery
 0001:0002D988       TCustomForm.Hide
 0001:0002D990       TCustomForm.Show
 0001:0002D9A8       TCustomForm.SetFocus
 0001:0002DA18       TCustomForm.Release
 0001:0002DA34       TCustomForm.ShowModal
 0001:0002DD68       TScreen.Create
 0001:0002DF04       TScreen.Destroy
 0001:0002DF68       TScreen.GetHeight
 0001:0002DF70       TScreen.GetWidth
 0001:0002DF78       TScreen.GetForm
 0001:0002DF84       TScreen.GetFormCount
 0001:0002E328       TScreen.GetDataModule
 0001:0002E334       TScreen.GetDataModuleCount
 0001:0002E33C       TScreen.GetCursors
 0001:0002E364       TScreen.SetCursor
 0001:0002E6A0       TApplication.Create
 0001:0002E81C       TApplication.Destroy
 0001:0002E8F4       TApplication.CreateHandle
 0001:0002EA7C       TApplication.ControlDestroyed
 0001:0002EBE0       TApplication.NormalizeTopMosts
 0001:0002EBE8       TApplication.NormalizeAllTopMosts
 0001:0002EBF0       TApplication.RestoreTopMosts
 0001:0002F3B4       TApplication.Minimize
 0001:0002F3FC       TApplication.Restore
 0001:0002F484       TApplication.BringToFront
 0001:0002F4C0       TApplication.GetTitle
 0001:0002F508       TApplication.SetTitle
 0001:0002F6F0       TApplication.ProcessMessages
 0001:0002F700       TApplication.HandleMessage
 0001:0002F718       TApplication.HookMainWindow
 0001:0002F774       TApplication.UnhookMainWindow
 0001:0002F7F0       TApplication.Initialize
 0001:0002F808       TApplication.CreateForm
 0001:0002F894       TApplication.Run
 0001:0002F948       TApplication.Terminate
 0001:0002F95C       TApplication.HandleException
 0001:0002F9EC       TApplication.MessageBox
 0001:0002FA60       TApplication.ShowException
 0001:0002FC64       TApplication.HelpContext
 0001:0002FC70       TApplication.HelpCommand
 0001:0002FC78       TApplication.SetShowHint
 0001:0002FEC4       TApplication.SetHint
 0001:00030008       TApplication.HintMouseMessage
 0001:000300F8       TApplication.HideHint
 0001:00030134       TApplication.CancelHint
 0001:00030660       Finalization
 0001:000306B4       Forms
 0001:000306D4       Finalization
 0001:00030704       CommDlg
 0001:00032E6C       TCustomGroupBox.Create
 0001:00032EC4       TCustomGroupBox.AlignControls
 0001:00032F2C       TCustomGroupBox.CreateParams
 0001:00032F40       TCustomGroupBox.Paint
 0001:000330C8       TCustomGroupBox.CMDialogChar
 0001:00033144       TCustomGroupBox.CMTextChanged
 0001:0003315C       TCustomGroupBox.CMCtl3DChanged
 0001:0003317C       TCustomGroupBox.WMSize
 0001:00033194       TCustomLabel.Create
 0001:00033200       TCustomLabel.GetLabelText
 0001:0003337C       TCustomLabel.Paint
 0001:00033470       TCustomLabel.Loaded
 0001:00033528       TCustomLabel.SetAlignment
 0001:00033548       TCustomLabel.SetAutoSize
 0001:00033560       TCustomLabel.GetTransparent
 0001:0003356C       TCustomLabel.SetFocusControl
 0001:00033584       TCustomLabel.SetShowAccelChar
 0001:000335A4       TCustomLabel.SetTransparent
 0001:000335EC       TCustomLabel.SetLayout
 0001:0003360C       TCustomLabel.SetWordWrap
 0001:00033634       TCustomLabel.Notification
 0001:00033668       TCustomLabel.CMTextChanged
 0001:00033680       TCustomLabel.CMFontChanged
 0001:00033698       TCustomLabel.CMDialogChar
 0001:00033724       TCustomEdit.Create
 0001:000337CC       TCustomEdit.DoSetMaxLength
 0001:000337F0       TCustomEdit.SetAutoSize
 0001:00033808       TCustomEdit.SetBorderStyle
 0001:00033830       TCustomEdit.SetCharCase
 0001:00033848       TCustomEdit.SetHideSelection
 0001:00033860       TCustomEdit.SetMaxLength
 0001:00033890       TCustomEdit.SetOEMConvert
 0001:000338A8       TCustomEdit.GetModified
 0001:000338E4       TCustomEdit.SetModified
 0001:00033920       TCustomEdit.SetPasswordChar
 0001:000339A8       TCustomEdit.SetReadOnly
 0001:000339E8       TCustomEdit.GetSelStart
 0001:00033A10       TCustomEdit.SetSelStart
 0001:00033A34       TCustomEdit.GetSelLength
 0001:00033A64       TCustomEdit.SetSelLength
 0001:00033AC8       TCustomEdit.Clear
 0001:00033AE8       TCustomEdit.CopyToClipboard
 0001:00033B08       TCustomEdit.SelectAll
 0001:00033B28       TCustomEdit.GetSelTextBuf
 0001:00033BC4       TCustomEdit.GetSelText
 0001:00033C60       TCustomEdit.CreateParams
 0001:00033D20       TCustomEdit.CreateWnd
 0001:00033DD0       TCustomEdit.DestroyWnd
 0001:00033EE4       TCustomEdit.Change
 0001:00033F0C       TCustomEdit.DefaultHandler
 0001:00033F5C       TCustomEdit.WMSetFont
 0001:00033FA0       TCustomEdit.CMCtl3DChanged
 0001:00033FD8       TCustomEdit.CMFontChanged
 0001:00034004       TCustomEdit.CNCommand
 0001:00034028       TCustomEdit.CMEnter
 0001:00034068       TCustomEdit.CMTextChanged
 0001:000344C4       TCustomMemo.Create
 0001:00034544       TCustomMemo.Destroy
 0001:00034578       TCustomMemo.CreateParams
 0001:000345C8       TCustomMemo.CreateWindowHandle
 0001:00034628       TCustomMemo.Loaded
 0001:00034644       TCustomMemo.SetAlignment
 0001:0003465C       TCustomMemo.SetLines
 0001:00034670       TCustomMemo.SetScrollBars
 0001:00034688       TCustomMemo.SetWordWrap
 0001:000346A0       TCustomMemo.WMGetDlgCode
 0001:000346D8       TCustomMemo.WMNCDestroy
 0001:000346E4       TCustomMemo.KeyPress
 0001:0003470C       TButtonControl.WndProc
 0001:0003477C       TButton.Create
 0001:000347E0       TButton.Click
 0001:00034808       TButton.SetButtonStyle
 0001:00034864       TButton.SetDefault
 0001:0003489C       TButton.CreateParams
 0001:000348DC       TButton.CreateWnd
 0001:000348F8       TButton.CNCommand
 0001:00034910       TButton.CMDialogKey
 0001:0003497C       TButton.CMDialogChar
 0001:000349FC       TButton.CMFocusChanged
 0001:00034A50       TButton.WMEraseBkgnd
 0001:00034D58       TCustomListBox.Create
 0001:00034E30       TCustomListBox.Destroy
 0001:00034E78       TCustomListBox.GetItemData
 0001:00034E9C       TCustomListBox.SetItemData
 0001:00034EC4       TCustomListBox.DeleteString
 0001:00034EE8       TCustomListBox.ResetContent
 0001:00034F48       TCustomListBox.GetItemIndex
 0001:00034F68       TCustomListBox.SetItemIndex
 0001:00034F98       TCustomListBox.SetIntegralHeight
 0001:00034FB0       TCustomListBox.GetItemHeight
 0001:00034FF4       TCustomListBox.SetItemHeight
 0001:00035010       TCustomListBox.GetSelected
 0001:000350A4       TCustomListBox.SetSorted
 0001:000350BC       TCustomListBox.SetStyle
 0001:000350D4       TCustomListBox.GetTopIndex
 0001:000350F4       TCustomListBox.SetTopIndex
 0001:00035124       TCustomListBox.ItemAtPos
 0001:000351AC       TCustomListBox.CreateParams
 0001:00035294       TCustomListBox.CreateWnd
 0001:00035338       TCustomListBox.DestroyWnd
 0001:00035394       TCustomListBox.WndProc
 0001:000353FC       TCustomListBox.WMLButtonDown
 0001:00035498       TCustomListBox.CNCommand
 0001:00035638       TCustomListBox.WMPaint
 0001:00035668       TCustomListBox.WMSize
 0001:00035680       TCustomListBox.DragCanceled
 0001:000356DC       TCustomListBox.DrawItem
 0001:00035798       TCustomListBox.MeasureItem
 0001:000357BC       TCustomListBox.CNDrawItem
 0001:0003587C       TCustomListBox.CNMeasureItem
 0001:000358AC       TCustomListBox.CMCtl3DChanged
 0001:000358DC       Finalization
 0001:0003590C       StdCtrls
 0001:000368CC       Frame3D
 0001:0003692C       TImage.Create
 0001:000369BC       TImage.Destroy
 0001:000369EC       TImage.GetPalette
 0001:00036A08       TImage.DestRect
 0001:00036AA8       TImage.Paint
 0001:00036B68       TImage.DoPaletteChange
 0001:00036C00       TImage.Progress
 0001:00036C64       TImage.SetAutoSize
 0001:00036C74       TImage.SetCenter
 0001:00036C8C       TImage.SetPicture
 0001:00036C9C       TImage.SetStretch
 0001:00036CB4       TImage.SetTransparent
 0001:00036DEC       TBevel.Create
 0001:00036E54       TBevel.SetStyle
 0001:00036E70       TBevel.SetShape
 0001:00036FBC       TBevel.Paint
 0001:000371B8       TTimer.Create
 0001:00037200       TTimer.Destroy
 0001:00037338       TTimer.SetEnabled
 0001:00037348       TTimer.SetInterval
 0001:00037358       TTimer.SetOnTimer
 0001:00037370       TTimer.Timer
 0001:00037384       TCustomPanel.Create
 0001:00037410       TCustomPanel.CreateParams
 0001:00037464       TCustomPanel.CMTextChanged
 0001:00037470       TCustomPanel.CMCtl3DChanged
 0001:0003749C       TCustomPanel.CMIsToolControl
 0001:000374B0       TCustomPanel.Resize
 0001:000374D0       TCustomPanel.WMWindowPosChanged
 0001:000375E0       TCustomPanel.AlignControls
 0001:00037664       TCustomPanel.Paint
 0001:000377C0       TCustomPanel.SetAlignment
 0001:000377D4       TCustomPanel.SetBevelInner
 0001:000377F0       TCustomPanel.SetBevelOuter
 0001:0003780C       TCustomPanel.SetBevelWidth
 0001:00037828       TCustomPanel.SetBorderWidth
 0001:00037844       TCustomPanel.SetBorderStyle
 0001:00037858       Finalization
 0001:00037888       ExtCtrls
 0001:00037890       Finalization
 0001:000378C0       Dlgs
 0001:00037B4C       CreateMessageDialog
 0001:00037FB4       MessageDlg
 0001:00037FD4       MessageDlgPos
 0001:00037FF8       MessageDlgPosHelp
 0001:00038098       ShowMessage
 0001:000380A8       ShowMessagePos
 0001:00038214       Finalization
 0001:00038270       Dialogs
 0001:00038490       Finalization
 0001:000384C0       DbConsts
 0001:00038544       TClipboard.Clear
 0001:000385A8       TClipboard.Close
 0001:000385D8       TClipboard.Open
 0001:00038640       TClipboard.GetAsText
 0001:00038878       TClipboard.AssignTo
 0001:000389EC       TClipboard.Assign
 0001:00038A3C       Clipboard
 0001:00038A60       Finalization
 0001:00038A9C       Clipbrd
 0001:000390E4       MaskGetMaskSave
 0001:00039170       MaskGetMaskBlank
 0001:00039618       FormatMaskText
 0001:00039650       TCustomMaskEdit.Create
 0001:0003969C       TCustomMaskEdit.KeyDown
 0001:00039790       TCustomMaskEdit.KeyUp
 0001:000397D8       TCustomMaskEdit.KeyPress
 0001:00039818       TCustomMaskEdit.WMLButtonDown
 0001:00039838       TCustomMaskEdit.WMLButtonUp
 0001:00039898       TCustomMaskEdit.WMSetFocus
 0001:000398BC       TCustomMaskEdit.SetEditText
 0001:00039924       TCustomMaskEdit.GetEditText
 0001:0003993C       TCustomMaskEdit.GetTextLen
 0001:0003998C       TCustomMaskEdit.GetText
 0001:00039A18       TCustomMaskEdit.SetText
 0001:00039B20       TCustomMaskEdit.WMCut
 0001:00039B58       TCustomMaskEdit.WMPaste
 0001:00039C40       TCustomMaskEdit.GetMasked
 0001:00039C54       TCustomMaskEdit.ReformatText
 0001:00039D14       TCustomMaskEdit.SetEditMask
 0001:00039DE4       TCustomMaskEdit.GetMaxLength
 0001:00039DEC       TCustomMaskEdit.SetMaxLength
 0001:00039E1C       TCustomMaskEdit.GetSel
 0001:00039E44       TCustomMaskEdit.SetSel
 0001:00039E6C       TCustomMaskEdit.SetCursor
 0001:0003A014       TCustomMaskEdit.CheckCursor
 0001:0003A058       TCustomMaskEdit.EditCanModify
 0001:0003A05C       TCustomMaskEdit.Reset
 0001:0003A498       TCustomMaskEdit.GetNextEditChar
 0001:0003A4C4       TCustomMaskEdit.GetPriorEditChar
 0001:0003A6DC       TCustomMaskEdit.CMEnter
 0001:0003A76C       TCustomMaskEdit.CMTextChanged
 0001:0003A7FC       TCustomMaskEdit.CMWantSpecialKey
 0001:0003A838       TCustomMaskEdit.CMExit
 0001:0003A870       TCustomMaskEdit.ValidateEdit
 0001:0003A904       TCustomMaskEdit.ValidateError
 0001:0003B498       Finalization
 0001:0003B4C8       Mask
 0001:0003DD68       DatabaseError
 0001:0003DD84       DatabaseErrorFmt
 0001:0003DDAC       GetFieldProperty
 0001:0003DE30       DisposeMem
 0001:0003DE48       BuffersEqual
 0001:0003DE5C       ExtractFieldName
 0001:0003DEEC       TDataSetDesigner.BeginDesign
 0001:0003DF24       TDataSetDesigner.EndDesign
 0001:0003DF9C       TFieldDef.Create
 0001:0003E024       TFieldDef.Destroy
 0001:0003E058       TFieldDef.CreateField
 0001:0003E170       TFieldDef.GetFieldClass
 0001:0003E188       TFieldDefs.Create
 0001:0003E1C4       TFieldDefs.Destroy
 0001:0003E1F4       TFieldDefs.Clear
 0001:0003E218       TFieldDefs.Find
 0001:0003E2AC       TFieldDefs.GetCount
 0001:0003E2B4       TFieldDefs.GetItem
 0001:0003E2C4       TFieldDefs.IndexOf
 0001:0003E308       TFieldDefs.Update
 0001:0003E318       TLookupList.Create
 0001:0003E350       TLookupList.Destroy
 0001:0003E380       TLookupList.Add
 0001:0003E3C4       TLookupList.Clear
 0001:0003E400       TLookupList.ValueOfKey
 0001:0003E470       TField.Create
 0001:0003E4DC       TField.Destroy
 0001:0003E520       TField.AccessError
 0001:0003E5C8       TField.Assign
 0001:0003E6C0       TField.AssignValue
 0001:0003E938       TField.Change
 0001:0003E95C       TField.CheckInactive
 0001:0003E974       TField.Clear
 0001:0003EA48       TField.DefineProperties
 0001:0003EB0C       TField.FieldKindStored
 0001:0003EB14       TField.FocusControl
 0001:0003EB44       TField.FreeBuffers
 0001:0003EB48       TField.GetAsBoolean
 0001:0003EB78       TField.GetAsCurrency
 0001:0003EBA0       TField.GetAsDateTime
 0001:0003EBDC       TField.GetAsFloat
 0001:0003EC14       TField.GetAsInteger
 0001:0003EC44       TField.GetAsString
 0001:0003ED94       TField.GetAsVariant
 0001:0003EDC4       TField.GetCalculated
 0001:0003EDCC       TField.GetCanModify
 0001:0003EE10       TField.GetData
 0001:0003EED4       TField.GetDataSize
 0001:0003EED8       TField.GetDefaultWidth
 0001:0003EEE0       TField.GetDisplayLabel
 0001:0003EEF8       TField.GetDisplayName
 0001:0003EF24       TField.GetDisplayText
 0001:0003EF64       TField.GetDisplayWidth
 0001:0003EF7C       TField.GetEditText
 0001:0003EFBC       TField.GetHasConstraints
 0001:0003EFE0       TField.GetIndex
 0001:0003EFFC       TField.GetIsIndexField
 0001:0003F018       TField.IsBlob
 0001:0003F01C       TField.GetIsNull
 0001:0003F030       TField.GetLookup
 0001:0003F038       TField.GetLookupList
 0001:0003F05C       TField.GetText
 0001:0003F0AC       TField.HasParent
 0001:0003F0B0       TField.GetParentComponent
 0001:0003F0B4       TField.SetParentComponent
 0001:0003F0E0       TField.IsValidChar
 0001:0003F0F0       TField.IsDisplayLabelStored
 0001:0003F100       TField.IsDisplayWidthStored
 0001:0003F108       TField.Notification
 0001:0003F134       TField.PropertyChanged
 0001:0003F1F4       TField.ReadState
 0001:0003F22C       TField.RefreshLookupList
 0001:0003F358       TField.SetAsBoolean
 0001:0003F388       TField.SetAsCurrency
 0001:0003F3B4       TField.SetAsDateTime
 0001:0003F3EC       TField.SetAsFloat
 0001:0003F420       TField.SetAsInteger
 0001:0003F450       TField.SetAsString
 0001:0003F480       TField.SetAsVariant
 0001:0003F554       TField.SetAlignment
 0001:0003F568       TField.SetData
 0001:0003F5FC       TField.SetDataSet
 0001:0003F650       TField.SetDataType
 0001:0003F654       TField.SetDisplayLabel
 0001:0003F6CC       TField.SetDisplayWidth
 0001:0003F6E0       TField.SetEditMask
 0001:0003F700       TField.SetEditText
 0001:0003F730       TField.SetFieldKind
 0001:0003F798       TField.SetFieldName
 0001:0003F7E8       TField.SetFieldType
 0001:0003F7EC       TField.SetIndex
 0001:0003F84C       TField.SetLookupDataSet
 0001:0003F8B0       TField.SetLookupKeyFields
 0001:0003F8D0       TField.SetLookupResultField
 0001:0003F8F0       TField.SetKeyFields
 0001:0003F910       TField.SetLookupCache
 0001:0003F928       TField.CheckTypeSize
 0001:0003F988       TField.SetSize
 0001:0003F9A8       TField.SetText
 0001:0003F9B8       TField.SetReadOnly
 0001:0003F9CC       TField.SetVarValue
 0001:0003F9FC       TField.SetVisible
 0001:0003FA10       TField.Validate
 0001:0003FB68       TStringField.Create
 0001:0003FBB8       TStringField.CheckTypeSize
 0001:0003FC10       TStringField.GetAsBoolean
 0001:0003FC7C       TStringField.GetAsDateTime
 0001:0003FCD4       TStringField.GetAsFloat
 0001:0003FD2C       TStringField.GetAsInteger
 0001:0003FD7C       TStringField.GetAsString
 0001:0003FDA0       TStringField.GetAsVariant
 0001:0003FE04       TStringField.GetDataSize
 0001:0003FE0C       TStringField.GetDefaultWidth
 0001:0003FE14       TStringField.GetText
 0001:0003FEA0       TStringField.GetValue
 0001:0003FF18       TStringField.SetAsBoolean
 0001:0003FF70       TStringField.SetAsDateTime
 0001:0003FFC4       TStringField.SetAsFloat
 0001:0004001C       TStringField.SetAsInteger
 0001:0004006C       TStringField.SetAsString
 0001:000400D8       TStringField.SetVarValue
 0001:00040128       TNumericField.Create
 0001:00040164       TNumericField.RangeError
 0001:00040200       TNumericField.SetDisplayFormat
 0001:00040234       TNumericField.SetEditFormat
 0001:00040268       TIntegerField.Create
 0001:00040338       TIntegerField.GetAsFloat
 0001:0004035C       TIntegerField.GetAsInteger
 0001:00040380       TIntegerField.GetAsString
 0001:000403C8       TIntegerField.GetAsVariant
 0001:00040400       TIntegerField.GetDataSize
 0001:00040408       TIntegerField.GetText
 0001:000404EC       TIntegerField.GetValue
 0001:00040530       TIntegerField.SetAsFloat
 0001:0004054C       TIntegerField.SetAsInteger
 0001:000405A4       TIntegerField.SetAsString
 0001:00040658       TIntegerField.SetMaxValue
 0001:00040684       TIntegerField.SetMinValue
 0001:000406B0       TIntegerField.SetVarValue
 0001:000406D0       TSmallintField.Create
 0001:00040720       TSmallintField.GetDataSize
 0001:00040728       TWordField.Create
 0001:00040778       TWordField.GetDataSize
 0001:00040780       TAutoIncField.Create
 0001:000407BC       TFloatField.Create
 0001:00040858       TFloatField.GetAsFloat
 0001:00040880       TFloatField.GetAsInteger
 0001:00040898       TFloatField.GetAsString
 0001:000408D4       TFloatField.GetAsVariant
 0001:00040910       TFloatField.GetDataSize
 0001:00040918       TFloatField.GetText
 0001:00040A28       TFloatField.SetAsFloat
 0001:00040A90       TFloatField.SetAsInteger
 0001:00040AB0       TFloatField.SetAsString
 0001:00040B6C       TFloatField.SetCurrency
 0001:00040B88       TFloatField.SetMaxValue
 0001:00040BA8       TFloatField.SetMinValue
 0001:00040BC8       TFloatField.SetPrecision
 0001:00040BF8       TFloatField.SetVarValue
 0001:00040C54       TCurrencyField.Create
 0001:00040C98       TBooleanField.Create
 0001:00040CDC       TBooleanField.GetAsBoolean
 0001:00040D04       TBooleanField.GetAsString
 0001:00040D48       TBooleanField.GetAsVariant
 0001:00040D88       TBooleanField.GetDataSize
 0001:00040D90       TBooleanField.GetDefaultWidth
 0001:00040DFC       TBooleanField.SetAsBoolean
 0001:00040E20       TBooleanField.SetAsString
 0001:00040F60       TBooleanField.SetDisplayValues
 0001:00040FF0       TBooleanField.SetVarValue
 0001:00041010       TDateTimeField.Create
 0001:0004104C       TDateTimeField.GetAsDateTime
 0001:00041074       TDateTimeField.GetAsFloat
 0001:0004108C       TDateTimeField.GetAsString
 0001:0004109C       TDateTimeField.GetAsVariant
 0001:000410D8       TDateTimeField.GetDataSize
 0001:000410E0       TDateTimeField.GetText
 0001:00041240       TDateTimeField.SetAsDateTime
 0001:00041294       TDateTimeField.SetAsFloat
 0001:000412A8       TDateTimeField.SetAsString
 0001:0004130C       TDateTimeField.SetDisplayFormat
 0001:00041340       TDateTimeField.SetVarValue
 0001:00041364       TDateField.Create
 0001:000413A0       TDateField.GetDataSize
 0001:000413A8       TTimeField.Create
 0001:000413E4       TTimeField.GetDataSize
 0001:000413EC       TBinaryField.Create
 0001:00041420       TBinaryField.CheckTypeSize
 0001:0004146C       TBinaryField.GetAsString
 0001:0004149C       TBinaryField.SetAsString
 0001:0004157C       TBinaryField.GetAsVariant
 0001:0004160C       TBinaryField.SetVarValue
 0001:000416F8       TBinaryField.GetText
 0001:00041748       TBinaryField.SetText
 0001:00041778       TBytesField.Create
 0001:000417C4       TBytesField.GetDataSize
 0001:000417CC       TVarBytesField.Create
 0001:00041818       TVarBytesField.GetDataSize
 0001:00041824       TBCDField.Create
 0001:000418C4       TBCDField.CheckTypeSize
 0001:00041914       TBCDField.GetAsCurrency
 0001:0004193C       TBCDField.GetAsFloat
 0001:0004196C       TBCDField.GetAsInteger
 0001:00041998       TBCDField.GetAsString
 0001:000419D0       TBCDField.GetAsVariant
 0001:00041A0C       TBCDField.GetDataSize
 0001:00041A14       TBCDField.GetDefaultWidth
 0001:00041A30       TBCDField.GetText
 0001:00041B6C       TBCDField.GetValue
 0001:00041C34       TBCDField.SetAsCurrency
 0001:00041CF0       TBCDField.SetAsFloat
 0001:00041D10       TBCDField.SetAsInteger
 0001:00041D3C       TBCDField.SetAsString
 0001:00041DF4       TBCDField.SetCurrency
 0001:00041E10       TBCDField.SetMaxValue
 0001:00041E30       TBCDField.SetMinValue
 0001:00041E50       TBCDField.SetVarValue
 0001:00041EAC       TBlobField.Create
 0001:00041EE8       TBlobField.Assign
 0001:00041F84       TBlobField.AssignTo
 0001:00041FF8       TBlobField.Clear
 0001:00042018       TBlobField.FreeBuffers
 0001:0004203C       TBlobField.GetAsString
 0001:000420AC       TBlobField.GetAsVariant
 0001:000420FC       TBlobField.GetBlobSize
 0001:00042154       TBlobField.GetBlobType
 0001:00042158       TBlobField.GetIsNull
 0001:000421CC       TBlobField.GetModified
 0001:000421EC       TBlobField.GetText
 0001:0004223C       TBlobField.IsBlob
 0001:0004243C       TBlobField.SaveToStream
 0001:000424E8       TBlobField.SetAsString
 0001:00042544       TBlobField.SetBlobType
 0001:00042558       TBlobField.SetFieldType
 0001:0004256C       TBlobField.SetModified
 0001:00042588       TBlobField.SetText
 0001:000425B8       TBlobField.SetVarValue
 0001:00042608       TMemoField.Create
 0001:0004264C       TGraphicField.Create
 0001:00042688       TIndexDef.Create
 0001:000426E8       TIndexDef.Destroy
 0001:0004271C       TIndexDef.GetFields
 0001:00042744       TIndexDefs.Create
 0001:00042780       TIndexDefs.Destroy
 0001:000427B0       TIndexDefs.Add
 0001:0004283C       TIndexDefs.Clear
 0001:00042860       TIndexDefs.FindIndexForFields
 0001:000428EC       TIndexDefs.GetCount
 0001:000428F4       TIndexDefs.GetIndexForFields
 0001:00042A28       TIndexDefs.GetItem
 0001:00042A38       TIndexDefs.IndexOf
 0001:00042A7C       TIndexDefs.Update
 0001:00042A8C       TDataLink.Create
 0001:00042AC8       TDataLink.Destroy
 0001:00042B60       TDataLink.GetDataSet
 0001:00042B70       TDataLink.SetDataSource
 0001:00042BE8       TDataLink.SetReadOnly
 0001:00042C88       TDataLink.UpdateRecord
 0001:00042CCC       TDataLink.Edit
 0001:00042CEC       TDataLink.GetActiveRecord
 0001:00042D04       TDataLink.SetActiveRecord
 0001:00042D18       TDataLink.SetBufferCount
 0001:00042D4C       TDataLink.GetRecordCount
 0001:00042E70       TDataLink.ActiveChanged
 0001:00042E74       TDataLink.CheckBrowseMode
 0001:00042E78       TDataLink.DataSetChanged
 0001:00042E84       TDataLink.DataSetScrolled
 0001:00042E90       TDataLink.EditingChanged
 0001:00042E94       TDataLink.FocusControl
 0001:00042E98       TDataLink.LayoutChanged
 0001:00042EA4       TDataLink.RecordChanged
 0001:00042EA8       TDataLink.UpdateData
 0001:00042EAC       TDataSource.Create
 0001:00042EF8       TDataSource.Destroy
 0001:00042F54       TDataSource.Edit
 0001:00042FE8       TDataSource.IsLinkedTo
 0001:00043018       TDataSource.SetDataSet
 0001:00043090       TDataSource.SetEnabled
 0001:000431E8       TCheckConstraint.Assign
 0001:00043234       TCheckConstraint.GetDisplayName
 0001:00043268       TCheckConstraint.SetImportedConstraint
 0001:00043294       TCheckConstraint.SetCustomConstraint
 0001:000432C0       TCheckConstraint.SetErrorMessage
 0001:000432EC       TCheckConstraints.Create
 0001:0004332C       TCheckConstraints.GetOwner
 0001:00043330       TCheckConstraints.GetItem
 0001:00043348       TDataSet.Create
 0001:000433C8       TDataSet.Destroy
 0001:00043454       TDataSet.SetName
 0001:000435D8       TDataSet.GetChildren
 0001:00043620       TDataSet.SetChildOrder
 0001:00043654       TDataSet.Loaded
 0001:000436BC       TDataSet.SetState
 0001:000436D8       TDataSet.SetModified
 0001:000436DC       TDataSet.GetFound
 0001:000436E0       TDataSet.SetFound
 0001:000436E4       TDataSet.SetTempState
 0001:000436F4       TDataSet.RestoreState
 0001:00043700       TDataSet.Open
 0001:0004370C       TDataSet.Close
 0001:00043718       TDataSet.CheckInactive
 0001:00043780       TDataSet.CheckActive
 0001:000437D0       TDataSet.GetActive
 0001:000437D8       TDataSet.SetActive
 0001:00043920       TDataSet.OpenCursor
 0001:00043944       TDataSet.CloseCursor
 0001:00043950       TDataSet.InitFieldDefs
 0001:000439A0       TDataSet.GetFieldClass
 0001:000439AC       TDataSet.CreateFields
 0001:000439E8       TDataSet.DestroyFields
 0001:00043A18       TDataSet.BindFields
 0001:00043C28       TDataSet.FreeFieldBuffers
 0001:00043C7C       TDataSet.GetFieldCount
 0001:00043C84       TDataSet.GetField
 0001:00043C94       TDataSet.GetFieldValue
 0001:00043DAC       TDataSet.FieldByName
 0001:00043E34       TDataSet.FieldByNumber
 0001:00043E6C       TDataSet.FindField
 0001:00043EBC       TDataSet.SetConstraints
 0001:00043FC8       TDataSet.GetStateFieldValue
 0001:0004403C       TDataSet.SetStateFieldValue
 0001:000440E4       TDataSet.CloseBlob
 0001:000440E8       TDataSet.CreateBlobStream
 0001:000440EC       TDataSet.BCDToCurr
 0001:000440F0       TDataSet.CurrToBCD
 0001:000440FC       TDataSet.GetIsIndexField
 0001:00044100       TDataSet.UpdateIndexDefs
 0001:00044104       TDataSet.GetDataSource
 0001:00044108       TDataSet.IsLinkedTo
 0001:0004418C       TDataSet.DataEvent
 0001:0004427C       TDataSet.DisableControls
 0001:00044290       TDataSet.EnableControls
 0001:000442D8       TDataSet.UpdateRecord
 0001:00044338       TDataSet.SetBufListSize
 0001:00044624       TDataSet.SetCurrentRecord
 0001:00044684       TDataSet.GetNextRecord
 0001:00044728       TDataSet.GetPriorRecord
 0001:000447A0       TDataSet.Resync
 0001:000449A4       TDataSet.ActiveBuffer
 0001:000449B0       TDataSet.TempBuffer
 0001:000449BC       TDataSet.ClearBuffers
 0001:000449D8       TDataSet.ActivateBuffers
 0001:000449F4       TDataSet.UpdateCursorPos
 0001:00044A0C       TDataSet.CursorPosChanged
 0001:00044A14       TDataSet.GetCurrentRecord
 0001:00044A18       TDataSet.GetNextRecords
 0001:00044A6C       TDataSet.GetPriorRecords
 0001:00044AC0       TDataSet.InitRecord
 0001:00044AF4       TDataSet.IsEmpty
 0001:00044B00       TDataSet.GetCalcFields
 0001:00044B64       TDataSet.CalculateFields
 0001:00044BB0       TDataSet.ClearCalcFields
 0001:00044BB4       TDataSet.RefreshInternalCalcFields
 0001:00044C3C       TDataSet.First
 0001:00044CC4       TDataSet.Last
 0001:00044D4C       TDataSet.MoveBy
 0001:00044ED8       TDataSet.Next
 0001:00044EE8       TDataSet.Prior
 0001:00044EF8       TDataSet.Refresh
 0001:00044F30       TDataSet.Edit
 0001:00044FB8       TDataSet.Insert
 0001:00045060       TDataSet.Append
 0001:000450B8       TDataSet.Post
 0001:0004513C       TDataSet.Cancel
 0001:000451A8       TDataSet.Delete
 0001:000454AC       TDataSet.BookmarkAvailable
 0001:000454E8       TDataSet.GetBookmark
 0001:00045524       TDataSet.GetBookmarkStr
 0001:00045564       TDataSet.GotoBookmark
 0001:000455B0       TDataSet.SetBookmarkStr
 0001:000455BC       TDataSet.BookmarkValid
 0001:000455C0       TDataSet.CompareBookmarks
 0001:000455C4       TDataSet.FreeBookmark
 0001:000455D0       TDataSet.InternalCancel
 0001:000455D4       TDataSet.InternalEdit
 0001:000455D8       TDataSet.InternalRefresh
 0001:000455DC       TDataSet.Translate
 0001:000455F4       TDataSet.FindRecord
 0001:000455F8       TDataSet.SetFiltered
 0001:000455FC       TDataSet.SetFilterOptions
 0001:00045608       TDataSet.SetFilterText
 0001:00045620       TDataSet.SetOnFilterRecord
 0001:0004563C       TDataSet.Locate
 0001:00045648       TDataSet.Lookup
 0001:0004565C       TDataSet.CheckBrowseMode
 0001:000456B8       TDataSet.GetCanModify
 0001:00045718       TDataSet.GetFieldList
 0001:00045794       TDataSet.GetRecordCount
 0001:00045798       TDataSet.GetRecNo
 0001:0004579C       TDataSet.SetRecNo
 0001:000457A0       TDataSet.IsSequenced
 0001:000457A4       TDataSet.DoAfterCancel
 0001:000457C8       TDataSet.DoAfterClose
 0001:000457EC       TDataSet.DoAfterDelete
 0001:00045810       TDataSet.DoAfterEdit
 0001:00045834       TDataSet.DoAfterInsert
 0001:00045858       TDataSet.DoAfterOpen
 0001:0004587C       TDataSet.DoAfterPost
 0001:000458A0       TDataSet.DoAfterScroll
 0001:000458C4       TDataSet.DoBeforeCancel
 0001:000458E8       TDataSet.DoBeforeClose
 0001:0004590C       TDataSet.DoBeforeDelete
 0001:00045930       TDataSet.DoBeforeEdit
 0001:00045954       TDataSet.DoBeforeInsert
 0001:00045978       TDataSet.DoBeforeOpen
 0001:00045994       TDataSet.DoBeforePost
 0001:000459B8       TDataSet.DoBeforeScroll
 0001:000459DC       TDataSet.DoOnCalcFields
 0001:00045A00       TDataSet.DoOnNewRecord
 0001:00045A24       Finalization
 0001:00045A54       Db
 0001:00045A5C       ErrCat
 0001:00045A64       DbiInit
 0001:0004723E       DbiCheckSQLExpression
 0001:00047244       DbiEndConstraintLayer
 0001:0004724A       DsResolver
 0001:00047250       DsProviderGetDataPacket
 0001:00047256       DbiBeginConstraintLayer
 0001:00047262       DbiSQLTextToCanEx
 0001:0004728C       DbiImportODBC
 0001:00047292       DbiDeleteDriver
 0001:00047298       DbiAddDriver
 0001:000472B0       DbiSchemaCacheFlush
 0001:000472B6       DbiDRDrop
 0001:000472BC       DbiDRAdd
 0001:000472C2       DbiDRGetRelatedObject
 0001:000472C8       DbiOpenSessionRepository
 0001:000472DA       DbiGetDefaultRepository
 0001:000472E0       DbiSetDefaultRepository
 0001:000472E6       DbiOpenRepositoryList
 0001:000472FE       DbiDRGetEnumAttrDomain
 0001:00047304       DbiDRDeleteEnumAttrDomain
 0001:0004730A       DbiDRModifyEnumAttrDomain
 0001:00047310       DbiDRCreateEnumAttrDomain
 0001:00047316       DbiDeleteAlias
 0001:0004732E       DbiAddAlias
 0001:0004733A       DbiOpenFunctionArgList
 0001:00047340       DbiOpenFunctionList
 0001:00047346       DbiDRDelete
 0001:0004734C       DbiDRCreate
 0001:00047352       DbiDRLoadDBObject
 0001:00047358       DbiDRSetToObjName
 0001:0004735E       DbiDRSetToObjID
 0001:00047364       DbiDRGetObjID
 0001:0004736A       DbiDROpenRelSet
 0001:00047370       DbiDROpenObjSet
 0001:00047376       DbiDRGetRelTypeInfo
 0001:0004737C       DbiDRGetAttrDescs
 0001:00047382       DbiDRGetObjTypeInfo
 0001:00047388       DbiDROpenRelTypeList
 0001:0004738E       DbiDROpenAttrTypeList
 0001:00047394       DbiDROpenObjectTypeList
 0001:0004739A       DbiDRDeleteObjectType
 0001:000473A0       DbiDRDeleteRelationType
 0001:000473A6       DbiDRCreateRelationType
 0001:000473AC       DbiDRDropAttr
 0001:000473B2       DbiDRAddAttr
 0001:000473B8       DbiDRCreateObjectType
 0001:000473BE       DbiDRExportToFile
 0001:000473C4       DbiDRImportFromFile
 0001:000473CA       DbiDRClose
 0001:000473D0       DbiDROpen
 0001:000473D6       DbiDRGetDesc
 0001:000473DC       DbiApplyDelayedUpdates
 0001:000473E2       DbiEndDelayedUpdates
 0001:000473E8       DbiBeginDelayedUpdates
 0001:00047490       DbiQPrepareExt
 0001:00047496       DbiQExecProcDirect
 0001:0004749C       DbiQSetProcParams
 0001:000474A2       DbiQPrepareProc
 0001:000474A8       DbiOpenSPParamList
 0001:000474AE       DbiOpenSPList
 0001:00047508       DbiGetRintDesc
 0001:0004750E       DbiGetVchkDesc
 0001:00047520       DbiOpenFieldXlt
 0001:00047526       DbiValidateProp
 0001:00047532       DbiCloseFieldXlt
 0001:00047538       DbiTranslateField
 0001:0004753E       DbiTranslateRecordStructure
 0001:00047544       DbiGetFilterInfo
 0001:00047550       DbiGetObjFromObj
 0001:00047580       DbiBcdFromFloat
 0001:00047586       DbiBcdToFloat
 0001:0004759E       DbiGetObjFromName
 0001:000475A4       DbiSetProp
 0001:000475AA       DbiGetProp
 0001:000475B0       DbiAnsiToNative
 0001:000475B6       DbiNativeToAnsi
 0001:000475BC       DbiMakePermanent
 0001:000475C2       DbiGetIndexDescs
 0001:000475CE       DbiCloseConfigFile
 0001:000475D4       DbiOpenConfigFile
 0001:000475DA       DbiOpenCfgInfoList
 0001:00047610       OsLdBuildCharSetXform
 0001:0004772A       OsLdStrnColli
 0001:00047748       OsLdStrnColl
 0001:0004774E       OsLdExStrCmp
 0001:0004775A       OsLdLoadByDriverId
 0001:00047760       OsLdGetDriverId
 0001:000477A2       OsLdGetFuncAddrLdStrnCmpi_
 0001:000477DE       OsLdGetFuncAddrLdStrnColl_
 0001:000477E4       OsLdGetFuncAddrLdStrnColli_
 0001:0004795E       DbiGetExactRecordCount
 0001:0004798E       DbiGetLdNameFromDb
 0001:000479A0       DbiSortTable
 0001:000479A6       DbiGetTranInfo
 0001:000479AC       DbiEndTran
 0001:000479B2       DbiBeginTran
 0001:000479C4       DbiBatchMove
 0001:000479D0       DbiDeactivateFilter
 0001:000479D6       DbiActivateFilter
 0001:000479DC       DbiDropFilter
 0001:000479E2       DbiAddFilter
 0001:000479EE       DbiGetLdName
 0001:000479FA       DbiUndeleteRecord
 0001:00047A06       DbiGetClientInfo
 0001:00047A2A       OsLdSetConvChars
 0001:00047A30       OsLdGetMinMax
 0001:00047A36       OsLdGetProductID
 0001:00047A3C       OsLdSearchEnd
 0001:00047A42       OsLdLoadByLCID
 0001:00047A4E       OsLdSearchNext
 0001:00047A54       OsLdSearchInit
 0001:00047A5A       OsLdGetDescName
 0001:00047A60       OsLdCharToLower
 0001:00047A66       OsLdCharToUpper
 0001:00047A6C       OsLdIsDigit
 0001:00047A72       OsLdIsAlpha
 0001:00047A78       OsLdUnloadObj
 0001:00047A7E       OsLdOemCharToAnsi
 0001:00047A84       OsLdAnsiCharToOem
 0001:00047A8A       OsLdIsOemCharInAnsiCp
 0001:00047A90       OsLdIsAnsiCharInOemCp
 0001:00047A96       OsLdOemToAnsi
 0001:00047A9C       OsLdAnsiToOem
 0001:00047AA2       OsLdGetFName
 0001:00047AA8       OsLdGetCodePage
 0001:00047AAE       OsLdGetSortsig
 0001:00047AB4       OsLdGetSymbName
 0001:00047ABA       OsLdStrnToUpper
 0001:00047AC0       OsLdStrToUpper
 0001:00047AC6       OsLdStrnCmpi
 0001:00047ACC       OsLdStrCmpi
 0001:00047AD2       OsLdStrnToLower
 0001:00047AD8       OsLdStrToLower
 0001:00047ADE       OsLdStrCmp
 0001:00047AE4       OsLdStrnCmp
 0001:00047AEA       OsLdLoadBySymbName
 0001:00047AF0       OsLdLoadByFName
 0001:00047AF6       OsLdLoadBySortSig
 0001:00047AFC       OsLdExit
 0001:00047B02       OsLdGetDefaultObj
 0001:00047B08       OsLdInit
 0001:00047D60       DbiDebugLayerOptions
 0001:00047D66       DbiSetNumberFormat
 0001:00047D6C       DbiGetNumberFormat
 0001:00047D72       DbiSetTimeFormat
 0001:00047D78       DbiGetTimeFormat
 0001:00047D7E       DbiSetDateFormat
 0001:00047D84       DbiGetDateFormat
 0001:00047D8A       DbiCfgMerge
 0001:00047D90       DbiCfgGetHelp
 0001:00047D96       DbiCfgTranslate
 0001:00047D9C       DbiCfgDropRecord
 0001:00047DA2       DbiCfgModifyRecord
 0001:00047DA8       DbiCfgAddRecord
 0001:00047DAE       DbiCfgGetRecord
 0001:00047DB4       DbiCfgGetNextNode
 0001:00047DBA       DbiCfgPosition
 0001:00047DC0       DbiCfgBuildPath
 0001:00047DC6       DbiCfgSave
 0001:00047E32       DbiGetCallBack
 0001:00047E38       DbiCheckRefresh
 0001:00047E56       DbiGetErrorEntry
 0001:00047E5C       DbiGetErrorContext
 0001:00047E62       DbiGetErrorString
 0001:00047E68       DbiFormFullName
 0001:00047E74       DbiCreateTempTable
 0001:00047E7A       DbiUseIdleTime
 0001:00047E80       DbiGetLdObj
 0001:00047E8C       DbiGetErrorInfo
 0001:00047E92       DbiSetFieldMap
 0001:00047E98       DbiGetRecordForKey
 0001:00047E9E       DbiCompareKeys
 0001:00047EA4       DbiAppendRecord
 0001:00047EB0       DbiRegenIndexes
 0001:00047EB6       DbiRegenIndex
 0001:00047EBC       DbiEmptyTable
 0001:00047EC2       DbiPackTable
 0001:00047EC8       DbiTimeStampDecode
 0001:00047ECE       DbiTimeStampEncode
 0001:00047ED4       DbiTimeDecode
 0001:00047EDA       DbiTimeEncode
 0001:00047EE0       DbiDoRestructure
 0001:00047EE6       DbiSetToRecordNo
 0001:00047EEC       DbiGetIndexSeqNo
 0001:00047EF2       DbiGetIndexForField
 0001:00047EF8       DbiDeleteIndex
 0001:00047EFE       DbiAddIndex
 0001:00047F04       DbiDeleteTable
 0001:00047F0A       DbiRenameTable
 0001:00047F10       DbiCopyTable
 0001:00047F16       DbiCreateTable
 0001:00047F1C       DbiVerifyField
 0001:00047F22       DbiSetToSeqNo
 0001:00047F28       DbiInitRecord
 0001:00047F2E       DbiCloneCursor
 0001:00047F34       DbiCompareBookMarks
 0001:00047F3A       DbiSetToBookMark
 0001:00047F40       DbiGetBookMark
 0001:00047F46       DbiExtractKey
 0001:00047F4C       DbiGetIndexDesc
 0001:00047F52       DbiSwitchToIndex
 0001:00047F58       DbiCloseIndex
 0001:00047F5E       DbiOpenIndex
 0001:00047F64       DbiDateDecode
 0001:00047F6A       DbiDateEncode
 0001:00047F70       DbiPutField
 0001:00047F76       DbiGetField
 0001:00047F7C       DbiRegisterCallBack
 0001:00047F82       DbiQGetBaseDescs
 0001:00047F88       DbiQAlloc
 0001:00047F8E       DbiQFree
 0001:00047F94       DbiQInstantiateAnswer
 0001:00047F9A       DbiQSetParams
 0001:00047FA0       DbiQExec
 0001:00047FA6       DbiQPrepare
 0001:00047FAC       DbiQExecDirect
 0001:00047FC4       DbiGetNetUserName
 0001:00047FCA       DbiGetSesInfo
 0001:00047FD6       DbiGetSysInfo
 0001:00047FDC       DbiGetSysConfig
 0001:00047FE2       DbiGetSysVersion
 0001:00047FEE       DbiGetBlobHeading
 0001:00047FF4       DbiFreeBlob
 0001:00047FFA       DbiTruncateBlob
 0001:00048000       DbiPutBlob
 0001:00048006       DbiGetBlob
 0001:0004800C       DbiGetBlobSize
 0001:00048012       DbiOpenBlob
 0001:00048018       DbiGetTableOpenCount
 0001:0004801E       DbiLoadDriver
 0001:00048030       DbiGetIndexTypeDesc
 0001:00048036       DbiOpenIndexTypesList
 0001:0004803C       DbiGetFieldTypeDesc
 0001:00048042       DbiOpenFieldTypesList
 0001:00048048       DbiGetTableTypeDesc
 0001:0004804E       DbiOpenTableTypesList
 0001:00048054       DbiGetDatabaseDesc
 0001:0004805A       DbiOpenDatabaseList
 0001:00048060       DbiGetDriverDesc
 0001:00048066       DbiOpenDriverList
 0001:0004806C       DbiSetLockRetry
 0001:00048072       DbiSetPrivateDir
 0001:00048078       DbiOpenLockList
 0001:0004807E       DbiOpenUserList
 0001:00048084       DbiDropPassword
 0001:0004808A       DbiAddPassword
 0001:00048090       DbiCloseSession
 0001:00048096       DbiGetCurrSession
 0001:0004809C       DbiSetCurrSession
 0001:000480A2       DbiStartSession
 0001:000480A8       DbiForceRecordReread
 0001:000480AE       DbiGetCursorForTable
 0001:000480B4       DbiForceReread
 0001:000480BA       DbiSaveChanges
 0001:000480C0       DbiRelPersistTableLock
 0001:000480C6       DbiAcqPersistTableLock
 0001:000480CC       DbiRelRecordLock
 0001:000480D2       DbiRelTableLock
 0001:000480D8       DbiAcqTableLock
 0001:000480E4       DbiLinkDetailToExp
 0001:000480EA       DbiIsTableShared
 0001:000480F0       DbiIsTableLocked
 0001:000480F6       DbiIsRecordLocked
 0001:000480FC       DbiGetLinkStatus
 0001:00048102       DbiUnlinkDetail
 0001:00048108       DbiLinkDetail
 0001:0004810E       DbiEndLinkMode
 0001:00048114       DbiBeginLinkMode
 0001:0004811A       DbiWriteBlock
 0001:00048120       DbiReadBlock
 0001:00048126       DbiCreateInMemTable
 0001:0004812C       DbiOpenSecurityList
 0001:00048144       DbiOpenFamilyList
 0001:0004814A       DbiOpenRintList
 0001:00048150       DbiOpenVchkList
 0001:00048156       DbiOpenLdList
 0001:0004815C       DbiOpenFieldList
 0001:00048162       DbiOpenIndexList
 0001:00048168       DbiOpenFileList
 0001:0004816E       DbiOpenTableList
 0001:00048174       DbiSetDirectory
 0001:0004817A       DbiGetDirectory
 0001:00048180       DbiSetToKey
 0001:00048186       DbiResetRange
 0001:0004818C       DbiSetRange
 0001:00048192       DbiGetSeqNo
 0001:00048198       DbiDeleteRecord
 0001:0004819E       DbiModifyRecord
 0001:000481A4       DbiInsertRecord
 0001:000481AA       DbiGetRecordCount
 0001:000481B0       DbiGetRelativeRecord
 0001:000481B6       DbiGetRecord
 0001:000481BC       DbiGetPriorRecord
 0001:000481C2       DbiGetNextRecord
 0001:000481C8       DbiSetToCursor
 0001:000481CE       DbiSetToEnd
 0001:000481D4       DbiSetToBegin
 0001:000481DA       DbiCloseCursor
 0001:000481E0       DbiGetFieldDescs
 0001:000481E6       DbiGetCursorProps
 0001:000481EC       DbiOpenTable
 0001:000481F2       DbiCloseDatabase
 0001:000481F8       DbiOpenDatabase
 0001:0004946E       DbiInitFn
 0001:00049569       DbiExit
 0001:000495E9       DbiDLLExit
 0001:00049650       Finalization
 0001:00049680       Bde
 0001:0004982C       FMTBCDToCurr
 0001:000498C4       CurrToFMTBCD
 0001:00049950       TFilterExpr.Create
 0001:0004997C       TFilterExpr.Destroy
 0001:00049A8C       TFilterExpr.GetFilterData
 0001:00049AE4       TFilterExpr.NewCompareNode
 0001:00049B74       TFilterExpr.NewNode
 0001:0004A638       TExprParser.Create
 0001:0004A728       TExprParser.Destroy
 0001:0004AE28       TMasterDataLink.Create
 0001:0004AE70       TMasterDataLink.Destroy
 0001:0004AEA0       TMasterDataLink.ActiveChanged
 0001:0004AF6C       TMasterDataLink.CheckBrowseMode
 0001:0004AF8C       TMasterDataLink.LayoutChanged
 0001:0004AF98       TMasterDataLink.RecordChanged
 0001:0004AFE4       TMasterDataLink.SetFieldNames
 0001:0004B010       Finalization
 0001:0004B040       DBCommon
 0001:0004B078       Finalization
 0001:0004B0A8       SMIntf
 0001:0004B0E0       Finalization
 0001:0004B110       StdVCL
 0001:0004B310       PasswordDialog
 0001:0004B37C       TPasswordDialog.EditChange
 0001:0004B404       TPasswordDialog.AddButtonClick
 0001:0004B484       TPasswordDialog.RemoveButtonClick
 0001:0004B500       TPasswordDialog.RemoveAllButtonClick
 0001:0004B52C       TPasswordDialog.OKButtonClick
 0001:0004B58C       Finalization
 0001:0004B5BC       DBPWDlg
 0001:0004B754       LoginDialogEx
 0001:0004B878       TLoginDialog.FormShow
 0001:0004B8C4       Finalization
 0001:0004B8F4       DBLogDlg
 0001:0004B9F4       Finalization
 0001:0004BA24       BdeConst
 0001:0004DBE0       TBDECallback.Create
 0001:0004DC78       TBDECallback.Destroy
 0001:0004DD20       TBDECallback.Invoke
 0001:0004DD98       AnsiToNative
 0001:0004DDF0       NativeToAnsi
 0001:0004DE2C       AnsiToNativeBuf
 0001:0004DE5C       NativeToAnsiBuf
 0001:0004E074       DbiError
 0001:0004E090       Check
 0001:0004E0A0       TDBError.Create
 0001:0004E18C       EDBEngineError.Create
 0001:0004E464       EDBEngineError.Destroy
 0001:0004E4BC       EDBEngineError.GetError
 0001:0004E4CC       TSessionList.Create
 0001:0004E528       TSessionList.Destroy
 0001:0004E5B8       TSessionList.GetSessionByName
 0001:0004E63C       TSessionList.FindSession
 0001:0004E698       TSession.Create
 0001:0004E718       TSession.Destroy
 0001:0004E790       TSession.AddPassword
 0001:0004E8C8       TSession.CloseDatabase
 0001:0004EBFC       TSession.FindDatabase
 0001:0004ED24       TSession.GetActive
 0001:0004ED2C       TSession.GetAliasDriverName
 0001:0004EE30       TSession.GetAliasParams
 0001:0004EFF8       TSession.GetConfigParams
 0001:0004F178       TSession.GetDriverParams
 0001:0004F370       TSession.GetHandle
 0001:0004F39C       TSession.GetNetFileDir
 0001:0004F494       TSession.GetPrivateDir
 0001:0004F574       TSession.GetPassword
 0001:0004F9AC       TSession.Loaded
 0001:0004FA98       TSession.Notification
 0001:0004FB90       TSession.OpenDatabase
 0001:0004FB9C       TSession.SessionNameStored
 0001:0004FEDC       TSession.RemoveAllPasswords
 0001:0004FF20       TSession.RemovePassword
 0001:0005000C       TSession.SetActive
 0001:00050038       TSession.SetAutoSessionName
 0001:0005014C       TSession.GetConfigMode
 0001:000501A4       TSession.SetConfigMode
 0001:00050204       TSession.SetName
 0001:00050224       TSession.SetNetFileDir
 0001:000502B4       TSession.SetPrivateDir
 0001:00050334       TSession.SetSessionName
 0001:00050480       TSession.SetTraceFlags
 0001:000508F8       TDatabase.Create
 0001:000509AC       TDatabase.Destroy
 0001:00050B64       TDatabase.Close
 0001:00050C24       TDatabase.CloseDataSets
 0001:00050C4C       TDatabase.GetAliasName
 0001:00050C74       TDatabase.GetConnected
 0001:00050C7C       TDatabase.GetDriverName
 0001:00050D1C       TDatabase.Loaded
 0001:00050D94       TDatabase.Notification
 0001:0005136C       TDatabase.Open
 0001:000515B4       TDatabase.SetAliasName
 0001:000515C0       TDatabase.SetConnected
 0001:000515E0       TDatabase.SetDatabaseName
 0001:00051650       TDatabase.SetDirectory
 0001:000516B0       TDatabase.SetDriverName
 0001:000516BC       TDatabase.SetHandle
 0001:0005178C       TDatabase.SetKeepConnection
 0001:000517A8       TDatabase.SetParams
 0001:000517C8       TDatabase.SetSessionName
 0001:00051810       TDatabase.SetTraceFlags
 0001:00051844       TDatabase.ValidateName
 0001:000518E8       TBDEDataSet.Create
 0001:00051930       TBDEDataSet.Destroy
 0001:0005196C       TBDEDataSet.OpenCursor
 0001:00051A4C       TBDEDataSet.CloseCursor
 0001:00051A9C       TBDEDataSet.CreateHandle
 0001:00051AA0       TBDEDataSet.DestroyHandle
 0001:00051AC4       TBDEDataSet.InternalInitFieldDefs
 0001:00051C10       TBDEDataSet.InternalOpen
 0001:00051D6C       TBDEDataSet.InternalClose
 0001:00051E10       TBDEDataSet.PrepareCursor
 0001:00051E14       TBDEDataSet.IsCursorOpen
 0001:00051E20       TBDEDataSet.InternalHandleException
 0001:00051E34       TBDEDataSet.SetLocale
 0001:00051EBC       TBDEDataSet.AllocRecordBuffer
 0001:00051EF4       TBDEDataSet.FreeRecordBuffer
 0001:00051F28       TBDEDataSet.InternalInitRecord
 0001:00051F78       TBDEDataSet.ClearCalcFields
 0001:00051FA0       TBDEDataSet.InitRecord
 0001:00051FD8       TBDEDataSet.GetRecord
 0001:000520E4       TBDEDataSet.GetCurrentRecord
 0001:000521D0       TBDEDataSet.GetRecordCount
 0001:00052204       TBDEDataSet.GetRecNo
 0001:00052234       TBDEDataSet.SetRecNo
 0001:00052298       TBDEDataSet.GetRecordSize
 0001:00052378       TBDEDataSet.AddFieldDesc
 0001:0005254C       TBDEDataSet.GetFieldData
 0001:000525EC       TBDEDataSet.SetFieldData
 0001:00052868       TBDEDataSet.CreateBlobStream
 0001:00052894       TBDEDataSet.CloseBlob
 0001:000528BC       TBDEDataSet.BCDToCurr
 0001:000528CC       TBDEDataSet.CurrToBCD
 0001:000528E8       TBDEDataSet.GetStateFieldValue
 0001:00052914       TBDEDataSet.SetStateFieldValue
 0001:00052984       TBDEDataSet.Translate
 0001:000529DC       TBDEDataSet.InternalFirst
 0001:000529F8       TBDEDataSet.InternalLast
 0001:00052A14       TBDEDataSet.InternalEdit
 0001:00052A4C       TBDEDataSet.InternalPost
 0001:00052A94       TBDEDataSet.InternalDelete
 0001:00052AC4       TBDEDataSet.IsSequenced
 0001:00052ADC       TBDEDataSet.GetCanModify
 0001:00052B00       TBDEDataSet.InternalRefresh
 0001:00052B1C       TBDEDataSet.Post
 0001:00052B3C       TBDEDataSet.Cancel
 0001:00052B5C       TBDEDataSet.InternalCancel
 0001:00052B70       TBDEDataSet.InternalAddRecord
 0001:00052BAC       TBDEDataSet.InternalGotoBookmark
 0001:00052BCC       TBDEDataSet.InternalSetToRecord
 0001:00052BE8       TBDEDataSet.GetBookmarkFlag
 0001:00052BF8       TBDEDataSet.SetBookmarkFlag
 0001:00052C08       TBDEDataSet.GetBookmarkData
 0001:00052C24       TBDEDataSet.SetBookmarkData
 0001:00052C40       TBDEDataSet.CompareBookmarks
 0001:00052C98       TBDEDataSet.BookmarkValid
 0001:00052CEC       TBDEDataSet.GetIndexInfo
 0001:00052D78       TBDEDataSet.SwitchToIndex
 0001:00052E78       TBDEDataSet.GetIndexField
 0001:00052F2C       TBDEDataSet.SetIndexField
 0001:00052F50       TBDEDataSet.GetIndexFieldCount
 0001:00052F58       TBDEDataSet.AllocKeyBuffers
 0001:00052FC8       TBDEDataSet.FreeKeyBuffers
 0001:00052FF8       TBDEDataSet.InitKeyBuffer
 0001:0005302C       TBDEDataSet.SetCursorRange
 0001:0005322C       TBDEDataSet.ResetCursorRange
 0001:00053284       TBDEDataSet.SetLinkRanges
 0001:00053350       TBDEDataSet.GetKeyBuffer
 0001:0005335C       TBDEDataSet.SetKeyBuffer
 0001:000533D4       TBDEDataSet.PostKeyBuffer
 0001:00053430       TBDEDataSet.SetKeyFields
 0001:00053554       TBDEDataSet.GetIsIndexField
 0001:000535A8       TBDEDataSet.MapsToIndex
 0001:0005360C       TBDEDataSet.ActivateFilters
 0001:000536CC       TBDEDataSet.DeactivateFilters
 0001:00053710       TBDEDataSet.CreateExprFilter
 0001:00053790       TBDEDataSet.CreateFuncFilter
 0001:000537C4       TBDEDataSet.CreateLookupFilter
 0001:00053944       TBDEDataSet.SetFilterHandle
 0001:000539BC       TBDEDataSet.SetFilterData
 0001:00053A44       TBDEDataSet.SetFilterText
 0001:00053A54       TBDEDataSet.SetFiltered
 0001:00053AC0       TBDEDataSet.SetFilterOptions
 0001:00053AD8       TBDEDataSet.SetOnFilterRecord
 0001:00053B60       TBDEDataSet.FindRecord
 0001:00053D14       TBDEDataSet.LocateRecord
 0001:00053FB8       TBDEDataSet.Lookup
 0001:00054050       TBDEDataSet.Locate
 0001:000540A4       TBDEDataSet.GetLookupCursor
 0001:000540A8       TBDEDataSet.DestroyLookupCursor
 0001:000545D4       TBDEDataSet.ConstraintCallBack
 0001:00054694       TBDEDataSet.AllocCachedUpdateBuffers
 0001:0005471C       TBDEDataSet.CheckCachedUpdateMode
 0001:00054770       TBDEDataSet.UpdateCallbackRequired
 0001:0005479C       TBDEDataSet.ForceUpdateCallback
 0001:00054858       TBDEDataSet.SetCachedUpdates
 0001:00054960       TBDEDataSet.SetupCallBack
 0001:000549C4       TBDEDataSet.CachedUpdateCallBack
 0001:00054B44       TBDEDataSet.SetUpdateObject
 0001:00054BC8       TBDEDataSet.SetOnUpdateError
 0001:00054C00       TBDEDataSet.YieldCallBack
 0001:00054C44       TDBDataSet.OpenCursor
 0001:00054C78       TDBDataSet.CloseCursor
 0001:00054CFC       TDBDataSet.CheckOpen
 0001:00054D44       TDBDataSet.ConstraintsStored
 0001:00054D5C       TDBDataSet.Disconnect
 0001:00054D68       TDBDataSet.GetDBHandle
 0001:00054D7C       TDBDataSet.GetDBLocale
 0001:00054D90       TDBDataSet.GetDBSession
 0001:00054DC0       TDBDataSet.GetProvider
 0001:00054E58       TDBDataSet.OpenDatabase
 0001:00054E80       TDBDataSet.SetDatabaseName
 0001:00054F08       TDBDataSet.SetDBFlag
 0001:00055004       TDBDataSet.SetSessionName
 0001:00055030       TDBDataSet.SetUpdateMode
 0001:00055084       TIndexFiles.Create
 0001:000550C0       TIndexFiles.Add
 0001:000550FC       TIndexFiles.Clear
 0001:0005518C       TIndexFiles.Insert
 0001:000551C4       TIndexFiles.Delete
 0001:00055244       TTable.Create
 0001:000552D0       TTable.Destroy
 0001:00055318       TTable.GetHandle
 0001:00055488       TTable.CreateHandle
 0001:00055570       TTable.GetLanguageDriverName
 0001:000558B4       TTable.PrepareCursor
 0001:00055930       TTable.InitFieldDefs
 0001:00055B94       TTable.DestroyHandle
 0001:00055D44       TTable.GetIndexFieldNames
 0001:00055D70       TTable.GetIndexName
 0001:000560DC       TTable.SetIndexFieldNames
 0001:000560F8       TTable.SetIndexName
 0001:00056104       TTable.SetIndexFiles
 0001:00056114       TTable.OpenIndexFile
 0001:0005614C       TTable.CloseIndexFile
 0001:00056218       TTable.UpdateIndexDefs
 0001:00056468       TTable.IsProductionIndex
 0001:0005653C       TTable.FindKey
 0001:00056568       TTable.FindNearest
 0001:00056594       TTable.GotoKey
 0001:00056674       TTable.GotoNearest
 0001:00056760       TTable.ApplyRange
 0001:00056784       TTable.CancelRange
 0001:000567BC       TTable.SetRange
 0001:000567FC       TTable.SetRangeEnd
 0001:00056820       TTable.GetLookupCursor
 0001:00056968       TTable.DestroyLookupCursor
 0001:000569F8       TTable.GetDataSource
 0001:00056A04       TTable.SetDataSource
 0001:00056A70       TTable.GetMasterFields
 0001:00056A90       TTable.SetMasterFields
 0001:00056AA0       TTable.DoOnNewRecord
 0001:00056AF8       TTable.DataEvent
 0001:00056B14       TTable.GetCanModify
 0001:00056C84       TTable.SetExclusive
 0001:00056CA0       TTable.SetReadOnly
 0001:00056CBC       TTable.SetTableName
 0001:00056D08       TTable.SetTableType
 0001:00056D24       TParams.Create
 0001:00056D5C       TParams.Destroy
 0001:00056D94       TParams.Assign
 0001:00056E10       TParams.AssignTo
 0001:00056E44       TParams.AssignValues
 0001:00056ED0       TParams.AddParam
 0001:00056EEC       TParams.RemoveParam
 0001:00056F04       TParams.CreateParam
 0001:00056F40       TParams.Count
 0001:00056F48       TParams.IsEqual
 0001:00056FB4       TParams.Clear
 0001:00056FD8       TParams.GetParam
 0001:00056FFC       TParams.ParamByName
 0001:000570DC       TParams.DefineProperties
 0001:000574E8       TParam.Create
 0001:00057534       TParam.Destroy
 0001:0005755C       TParam.IsEqual
 0001:000575C4       TParam.SetDataType
 0001:000575E0       TParam.GetDataSize
 0001:0005773C       TParam.RecBufDataSize
 0001:00057890       TParam.RecBufGetData
 0001:000579D0       TParam.GetData
 0001:00057C0C       TParam.SetBlobData
 0001:00057C74       TParam.SetData
 0001:00057F5C       TParam.Assign
 0001:00058018       TParam.AssignTo
 0001:0005804C       TParam.AssignParam
 0001:000580A8       TParam.AssignField
 0001:00058150       TParam.Clear
 0001:0005817C       TParam.SetAsBoolean
 0001:000581A4       TParam.SetAsFloat
 0001:000581CC       TParam.SetAsCurrency
 0001:000581E8       TParam.SetAsBCD
 0001:0005820C       TParam.GetAsBCD
 0001:0005822C       TParam.SetAsInteger
 0001:00058254       TParam.SetAsWord
 0001:00058268       TParam.SetAsSmallInt
 0001:0005827C       TParam.SetAsString
 0001:000582A4       TParam.SetAsDate
 0001:000582D0       TParam.SetAsTime
 0001:000582EC       TParam.SetAsDateTime
 0001:00058308       TParam.GetAsDateTime
 0001:00058334       TParam.SetAsMemo
 0001:0005835C       TParam.SetAsBlob
 0001:000583B8       TParam.LoadFromStream
 0001:000584E4       TStoredProc.Create
 0001:00058540       TStoredProc.Destroy
 0001:00058584       TStoredProc.Disconnect
 0001:000585C8       TStoredProc.CreateHandle
 0001:00058614       TStoredProc.SetProcName
 0001:0005866C       TStoredProc.SetOverLoad
 0001:00058C1C       TStoredProc.GetResults
 0001:00058F30       TStoredProc.SetPrepared
 0001:0005901C       TStoredProc.UnPrepare
 0001:000590A0       TStoredProc.SetDBFlag
 0001:00059120       TStoredProc.SetParamsList
 0001:0005916C       TQuery.Create
 0001:00059200       TQuery.Destroy
 0001:00059264       TQuery.Disconnect
 0001:0005927C       TQuery.UnPrepare
 0001:000592A0       TQuery.SetDataSource
 0001:0005930C       TQuery.GetDataSource
 0001:00059318       TQuery.SetQuery
 0001:00059534       TQuery.SetParamsList
 0001:00059544       TQuery.DefineProperties
 0001:00059B08       TQuery.CreateHandle
 0001:00059E0C       TQuery.SetDBFlag
 0001:0005A048       TQuery.GetRowsAffected
 0001:0005A094       TBlobStream.Create
 0001:0005A274       TBlobStream.Destroy
 0001:0005A340       TBlobStream.Read
 0001:0005A51C       TBlobStream.Write
 0001:0005A63C       TBlobStream.Seek
 0001:0005A674       TBlobStream.Truncate
 0001:0005A74C       Finalization
 0001:0005A7BC       DBTables
 0001:0005A9D8       TRegistry.Create
 0001:0005AA14       TRegistry.Destroy
 0001:0005AA44       TRegistry.CloseKey
 0001:0005AA78       TRegistry.SetRootKey
 0001:0005AAA8       TRegistry.ChangeKey
 0001:0005AAD0       TRegistry.GetBaseKey
 0001:0005AAE4       TRegistry.SetCurrentKey
 0001:0005AAE8       TRegistry.OpenKey
 0001:0005AC34       TRegistry.GetDataInfo
 0001:0005AC88       TRegistry.GetDataSize
 0001:0005ACB4       TRegistry.ReadString
 0001:0005ADA4       TRegistry.GetData
 0001:0005ADF8       TRegistry.ValueExists
 0001:0005AE0C       TRegistry.GetKey
 0001:0005AECC       TRegIniFile.Create
 0001:0005AF18       TRegIniFile.ReadString
 0001:0005AFFC       Finalization
 0001:0005B044       Registry
 0001:0005B10C       Finalization
 0001:0005B17C       DsgnIntf
 0001:0005B21C       TStackStr.create
 0001:0005B260       TStackStr.destroy
 0001:0005B284       TStackStr.count
 0001:0005B290       TStackStr.push
 0001:0005B2DC       TStackStr.pop
 0001:0005B328       TStackPtr.create
 0001:0005B35C       TStackPtr.count
 0001:0005B364       TStackPtr.destroy
 0001:0005B388       TStackPtr.push
 0001:0005B394       TStackPtr.pop
 0001:0005B3C0       Finalization
 0001:0005B3F0       wwStacks
 0001:0005B4A8       Finalization
 0001:0005B4D8       Wwtypes
 0001:0005B4E0       strGetToken
 0001:0005B61C       strBreakApart
 0001:0005B6E8       strStripTrailing
 0001:0005B72C       strReplaceChar
 0001:0005B7F8       wwEqualStr
 0001:0005B87C       strCount
 0001:0005B8E4       strTrailing
 0001:0005B974       Finalization
 0001:0005B9A4       Wwstr
 0001:0005DB70       wwSetFilter
 0001:0005DD80       wwRemoveFilter
 0001:0005DDB0       wwSetFilterFunction
 0001:0005DECC       Finalization
 0001:0005DF10       wwfilter
 0001:0005E120       wwGetDateOrder
 0001:0005E1B8       wwDoEncodeDate
 0001:0005E400       wwStrToFloat
 0001:0005E438       wwGetDateTimeCursorPosition
 0001:0005E600       wwGetTimeCursorPosition
 0001:0005E6E8       Finalization
 0001:0005E718       wwSystem
 0001:00060170       TSpeedButton.Create
 0001:00060214       TSpeedButton.Destroy
 0001:00060264       TSpeedButton.Paint
 0001:000604D0       TSpeedButton.Loaded
 0001:000604F8       TSpeedButton.MouseDown
 0001:00060548       TSpeedButton.MouseMove
 0001:000605D8       TSpeedButton.MouseUp
 0001:000606C4       TSpeedButton.Click
 0001:000606CC       TSpeedButton.GetPalette
 0001:000606E0       TSpeedButton.GetGlyph
 0001:000606EC       TSpeedButton.SetGlyph
 0001:00060704       TSpeedButton.GetNumGlyphs
 0001:00060710       TSpeedButton.SetNumGlyphs
 0001:0006077C       TSpeedButton.SetDown
 0001:000607E8       TSpeedButton.SetFlat
 0001:0006082C       TSpeedButton.SetGroupIndex
 0001:00060840       TSpeedButton.SetLayout
 0001:0006085C       TSpeedButton.SetMargin
 0001:0006087C       TSpeedButton.SetSpacing
 0001:00060898       TSpeedButton.SetAllowAllUp
 0001:000608AC       TSpeedButton.WMLButtonDblClk
 0001:000608D0       TSpeedButton.CMEnabledChanged
 0001:000608FC       TSpeedButton.CMButtonPressed
 0001:00060948       TSpeedButton.CMDialogChar
 0001:000609C4       TSpeedButton.CMFontChanged
 0001:000609CC       TSpeedButton.CMTextChanged
 0001:000609D4       TSpeedButton.CMSysColorChange
 0001:000609F8       TSpeedButton.CMMouseEnter
 0001:00060A2C       TSpeedButton.CMMouseLeave
 0001:00060A68       TBitBtn.Create
 0001:00060B0C       TBitBtn.Destroy
 0001:00060B44       TBitBtn.CreateHandle
 0001:00060B6C       TBitBtn.CreateParams
 0001:00060B7C       TBitBtn.SetButtonStyle
 0001:00060B90       TBitBtn.Click
 0001:00060BFC       TBitBtn.CNMeasureItem
 0001:00060C0C       TBitBtn.CNDrawItem
 0001:00060E94       TBitBtn.CMFontChanged
 0001:00060EA8       TBitBtn.CMEnabledChanged
 0001:00060EBC       TBitBtn.WMLButtonDblClk
 0001:00060ED0       TBitBtn.GetPalette
 0001:00060EE4       TBitBtn.SetGlyph
 0001:00060F04       TBitBtn.GetGlyph
 0001:00060F1C       TBitBtn.IsCustom
 0001:00060F30       TBitBtn.SetStyle
 0001:00060F4C       TBitBtn.SetKind
 0001:0006105C       TBitBtn.IsCustomCaption
 0001:000610D8       TBitBtn.GetKind
 0001:00061144       TBitBtn.SetLayout
 0001:00061160       TBitBtn.GetNumGlyphs
 0001:0006116C       TBitBtn.SetNumGlyphs
 0001:00061198       TBitBtn.SetSpacing
 0001:000611B4       TBitBtn.SetMargin
 0001:0006126C       Finalization
 0001:000612A4       Buttons
 0001:000612CC       Finalization
 0001:000612FC       RichEdit
 0001:00061304       Finalization
 0001:00061334       ToolWin
 0001:00061354       Finalization
 0001:00061384       ComStrs
 0001:00061F48       TTextAttributes.Create
 0001:00061F8C       TTextAttributes.InitFormat
 0001:00062030       TTextAttributes.GetCharset
 0001:00062048       TTextAttributes.SetCharset
 0001:00062078       TTextAttributes.GetColor
 0001:0006209C       TTextAttributes.SetColor
 0001:000620E4       TTextAttributes.GetName
 0001:0006210C       TTextAttributes.SetName
 0001:0006217C       TTextAttributes.GetStyle
 0001:000621D0       TTextAttributes.SetStyle
 0001:00062224       TTextAttributes.GetSize
 0001:00062244       TTextAttributes.SetSize
 0001:0006227C       TTextAttributes.GetPitch
 0001:000622B0       TTextAttributes.SetPitch
 0001:000622F0       TTextAttributes.Assign
 0001:00062414       TTextAttributes.AssignTo
 0001:0006253C       TParaAttributes.Create
 0001:00062600       TParaAttributes.GetAlignment
 0001:00062620       TParaAttributes.SetAlignment
 0001:00062668       TParaAttributes.GetNumbering
 0001:00062688       TParaAttributes.SetNumbering
 0001:000626F8       TParaAttributes.GetFirstIndent
 0001:00062720       TParaAttributes.SetFirstIndent
 0001:00062768       TParaAttributes.GetLeftIndent
 0001:00062790       TParaAttributes.SetLeftIndent
 0001:000627D8       TParaAttributes.GetRightIndent
 0001:00062800       TParaAttributes.SetRightIndent
 0001:00062848       TParaAttributes.GetTab
 0001:00062874       TParaAttributes.SetTab
 0001:000628D8       TParaAttributes.Assign
 0001:00062974       TConversion.ConvertReadStream
 0001:00062988       TConversion.ConvertWriteStream
 0001:00063564       TCustomRichEdit.Create
 0001:00063658       TCustomRichEdit.Destroy
 0001:000636B8       TCustomRichEdit.Clear
 0001:000636D4       TCustomRichEdit.CreateParams
 0001:00063778       TCustomRichEdit.CreateWnd
 0001:0006389C       TCustomRichEdit.DestroyWnd
 0001:00063968       TCustomRichEdit.WMNCDestroy
 0001:00063988       TCustomRichEdit.WMSetFont
 0001:0006399C       TCustomRichEdit.CMFontChanged
 0001:000639B0       TCustomRichEdit.DoSetMaxLength
 0001:000639D4       TCustomRichEdit.GetSelLength
 0001:00063A00       TCustomRichEdit.GetSelStart
 0001:00063A2C       TCustomRichEdit.GetSelTextBuf
 0001:00063AA0       TCustomRichEdit.GetSelText
 0001:00063AE8       TCustomRichEdit.SetHideScrollBars
 0001:00063B00       TCustomRichEdit.SetHideSelection
 0001:00063B34       TCustomRichEdit.SetSelLength
 0001:00063B94       TCustomRichEdit.GetPlainText
 0001:00063BA0       TCustomRichEdit.SetPlainText
 0001:00063BAC       TCustomRichEdit.CMColorChanged
 0001:00063BDC       TCustomRichEdit.SetRichEditStrings
 0001:00063BEC       TCustomRichEdit.SetSelStart
 0001:00063C18       TCustomRichEdit.WMPaint
 0001:00063CDC       TCustomRichEdit.WMSetCursor
 0001:00063D70       TCustomRichEdit.CNNotify
 0001:00063E5C       TCustomRichEdit.SelectionChange
 0001:00063E80       TCustomRichEdit.RequestSize
 0001:00063EA4       Finalization
 0001:00063F08       ComCtrls
 0001:00064718       TFieldDataLink.SetFieldName
 0001:000647C4       TFieldDataLink.Edit
 0001:000647E4       TFieldDataLink.GetCanModify
 0001:0006480C       TFieldDataLink.Modified
 0001:00064814       TFieldDataLink.Reset
 0001:00064820       TFieldDataLink.ActiveChanged
 0001:00064840       TFieldDataLink.EditingChanged
 0001:00064868       TFieldDataLink.FocusControl
 0001:000648AC       TFieldDataLink.RecordChanged
 0001:000648D4       TFieldDataLink.LayoutChanged
 0001:000648E0       TFieldDataLink.UpdateData
 0001:00064958       TDBNavigator.Create
 0001:00064A5C       TDBNavigator.Destroy
 0001:00064D44       TDBNavigator.SetFlat
 0001:00064D84       TDBNavigator.SetHints
 0001:00064D94       TDBNavigator.GetChildren
 0001:00064D9C       TDBNavigator.Notification
 0001:00064DDC       TDBNavigator.SetVisible
 0001:00064FA4       TDBNavigator.SetBounds
 0001:00064FF4       TDBNavigator.WMSize
 0001:00065110       TDBNavigator.BtnClick
 0001:00065288       TDBNavigator.WMSetFocus
 0001:000652A4       TDBNavigator.WMKillFocus
 0001:000652C0       TDBNavigator.KeyDown
 0001:000653B8       TDBNavigator.WMGetDlgCode
 0001:000653C0       TDBNavigator.DataChanged
 0001:000654B4       TDBNavigator.EditingChanged
 0001:0006556C       TDBNavigator.ActiveChanged
 0001:000655B4       TDBNavigator.CMEnabledChanged
 0001:000655D4       TDBNavigator.SetDataSource
 0001:00065608       TDBNavigator.GetDataSource
 0001:00065614       TDBNavigator.Loaded
 0001:00065678       TNavButton.Destroy
 0001:000656B0       TNavButton.MouseDown
 0001:00065728       TNavButton.MouseUp
 0001:000657D8       TNavButton.Paint
 0001:00065860       TNavDataLink.Create
 0001:0006589C       TNavDataLink.Destroy
 0001:000658C8       TNavDataLink.EditingChanged
 0001:000658DC       TNavDataLink.DataSetChanged
 0001:000658F0       TNavDataLink.ActiveChanged
 0001:00065904       Finalization
 0001:000659B0       DBCtrls
 0001:00065EE4       TwwQuery.Create
 0001:00065FB4       TwwQuery.Destroy
 0001:0006602C       TwwQuery.DoAfterOpen
 0001:00066054       TwwQuery.OpenCursor
 0001:00066074       TwwQuery.GetControlType
 0001:0006607C       TwwQuery.SetControlType
 0001:00066088       TwwQuery.GetLookupFields
 0001:00066090       TwwQuery.SetLookupFields
 0001:0006609C       TwwQuery.GetPictureMasks
 0001:000660A4       TwwQuery.SetPictureMasks
 0001:000660B0       TwwQuery.GetLookupLinks
 0001:000660B8       TwwQuery.SetLookupLinks
 0001:000660C4       TwwQuery.RemoveObsoleteLinks
 0001:000660E0       TwwQuery.DoOnCalcFields
 0001:00066110       TwwQuery.SetOnFilter
 0001:00066250       TwwQuery.DoBeforePost
 0001:00066278       TwwQuery.SetOnFilterOptions
 0001:000662D8       TwwQuery.ResetMouseCursor
 0001:00066314       TwwQuery.IsSequenced
 0001:00066330       TwwQuery.GetNextRecords
 0001:0006634C       TwwQuery.DataEvent
 0001:00066360       Finalization
 0001:00066390       Wwquery
 0001:00066944       TwwQBE.Create
 0001:00066A58       TwwQBE.Destroy
 0001:00066AF0       TwwQBE.SetQBE
 0001:00066B20       TwwQBE.DoAfterOpen
 0001:00066B48       TwwQBE.OpenCursor
 0001:00066B94       TwwQBE.PerformQuery
 0001:00067020       TwwQBE.CreateHandle
 0001:0006715C       TwwQBE.getControlType
 0001:00067164       TwwQBE.SetControlType
 0001:00067170       TwwQBE.GetLookupFields
 0001:00067178       TwwQBE.SetLookupFields
 0001:00067184       TwwQBE.GetPictureMasks
 0001:0006718C       TwwQBE.SetPictureMasks
 0001:00067198       TwwQBE.GetLookupLinks
 0001:000671A0       TwwQBE.SetLookupLinks
 0001:000671AC       TwwQBE.RemoveObsoleteLinks
 0001:000671C8       TwwQBE.DoOnCalcFields
 0001:000671F8       TwwQBE.SetOnFilter
 0001:000672A4       TwwQBE.SetOnFilterOptions
 0001:00067304       TwwQBE.ResetMouseCursor
 0001:00067340       TwwQBE.IsSequenced
 0001:0006735C       TwwQBE.GetNextRecords
 0001:00067378       TwwQBE.DataEvent
 0001:0006738C       Finalization
 0001:000673BC       Wwqbe
 0001:00067424       TwwPictureValidator.Create
 0001:000674D0       TwwPictureValidator.Destroy
 0001:000674FC       TwwPictureValidator.IsValidInput
 0001:00067534       TwwPictureValidator.IsValid
 0001:00068108       TwwPictureValidator.Picture
 0001:00068284       Finalization
 0001:000682B4       Wwpict
 0001:0006AD48       TwwIntl.Create
 0001:0006CC3C       TwwDBRichEditIntl.Destroy
 0001:0006CC8C       TwwIntl.Destroy
 0001:0006CCE8       TwwIntl.Loaded
 0001:0006CD04       TwwIntl.SetRegistrationNo
 0001:0006CD2C       TwwIntl.SetIPVersion
 0001:0006CD54       TwwIntl.SetConnected
 0001:0006CD64       TwwIntl.SetCheckboxInGridStyle
 0001:0006CD80       TwwIntl.Connect
 0001:0006DACC       wwCreateCommonButton
 0001:0006DCAC       Finalization
 0001:0006DCE8       Wwintl
 0001:0006DD98       Finalization
 0001:0006DDC8       Wwdatsrc
 0001:0006E234       TwwStoredProc.Create
 0001:0006E2F8       TwwStoredProc.Destroy
 0001:0006E370       TwwStoredProc.DoAfterOpen
 0001:0006E398       TwwStoredProc.GetControlType
 0001:0006E3A0       TwwStoredProc.SetControlType
 0001:0006E3AC       TwwStoredProc.GetLookupFields
 0001:0006E3B4       TwwStoredProc.SetLookupFields
 0001:0006E3C0       TwwStoredProc.GetPictureMasks
 0001:0006E3C8       TwwStoredProc.SetPictureMasks
 0001:0006E3D4       TwwStoredProc.GetLookupLinks
 0001:0006E3DC       TwwStoredProc.SetLookupLinks
 0001:0006E3E8       TwwStoredProc.RemoveObsoleteLinks
 0001:0006E404       TwwStoredProc.DoOnCalcFields
 0001:0006E434       TwwStoredProc.SetOnFilter
 0001:0006E574       TwwStoredProc.DoBeforePost
 0001:0006E59C       TwwStoredProc.SetOnFilterOptions
 0001:0006E5FC       TwwStoredProc.ResetMouseCursor
 0001:0006E638       TwwStoredProc.IsSequenced
 0001:0006E654       TwwStoredProc.GetNextRecords
 0001:0006E670       TwwStoredProc.DataEvent
 0001:0006E684       Finalization
 0001:0006E6B4       wwstorep
 0001:0006E6BC       wwGetOnInvalidValue
 0001:0006E720       wwGetPictureMasks
 0001:0006E768       wwGetControlType
 0001:0006E7AC       wwGetValidateWithMask
 0001:0006E7F8       wwGetLookupFields
 0001:0006E840       wwGetLookupLinks
 0001:0006E8F0       wwGetDatabaseName
 0001:0006E93C       wwDataSetIsValidField
 0001:0006E9F0       wwDataSetUpdateFieldProperties
 0001:0006EBAC       wwDataSet
 0001:0006EE2C       wwDataSetLookupDisplayField
 0001:0006EFE4       wwDoLookupTable
 0001:0006F57C       wwisNonBDEField
 0001:0006F5D8       wwisNonPhysicalField
 0001:0006F7E0       wwDataSetDoOnCalcFields
 0001:0006FCC4       wwDataSetRemoveObsoleteControls
 0001:0006FE80       wwDataSet_GetControl
 0001:00070018       wwDataSetRemoveObsolete
 0001:00070140       wwGetAlias
 0001:0007038C       wwSaveAnswerTable
 0001:00070700       wwInPaintCopyState
 0001:00070710       wwPlayKeystroke
 0001:0007078C       wwGetQueryText
 0001:000708DC       wwMemAvail
 0001:000708E0       wwPictureByField
 0001:00070B00       wwDataModuleChanged
 0001:00070BA4       wwSetPictureMask
 0001:00070E20       wwGetOwnerForm
 0001:00070E48       isWWEditControl
 0001:00070EFC       wwDrawEllipsis
 0001:00070FE4       wwDrawDropDownArrow
 0001:00071048       wwIsTableQuery
 0001:00071074       wwPdxPictureMask
 0001:00071178       wwValidatePictureFields
 0001:00071328       wwDataSetFindRecord
 0001:000713C0       wwIsValidChar
 0001:000713EC       wwDataSetUpdateSelected
 0001:000714C8       wwFindSelected
 0001:000715F4       wwSetOnFilterEnabled
 0001:00071668       wwGetOnFilterOptions
 0001:00071700       wwProcessEscapeFilterEvent
 0001:0007174C       wwmax
 0001:00071754       wwSetControlDataSource
 0001:000717B4       wwSetControlDataField
 0001:0007184C       wwGetControlDataField
 0001:000718A8       wwGetControlDataSource
 0001:000718EC       wwDataSetCompareBookmarks
 0001:000718F8       wwIsClass
 0001:00071980       Finalization
 0001:000719B0       Wwcommon
 0001:00072124       wwFindMatch
 0001:00072884       Finalization
 0001:000728B4       Wwlocate
 0001:00072D98       TwwTable.Create
 0001:00072EE0       TwwTable.Destroy
 0001:00073120       TwwTable.SetOnFilter
 0001:00073164       TwwTable.IsParadoxTable
 0001:00073234       TwwTable.FreeLookupTables
 0001:00073274       TwwTable.SetQuery
 0001:000732D0       TwwTable.getLookupFields
 0001:000732D8       TwwTable.setLookupFields
 0001:000732E4       TwwTable.getPictureMasks
 0001:000732EC       TwwTable.setPictureMasks
 0001:000732F8       TwwTable.getControlType
 0001:00073300       TwwTable.setControlType
 0001:0007330C       TwwTable.getFilter
 0001:00073314       TwwTable.CloseCursor
 0001:00073348       TwwTable.CreateHandle
 0001:000733A4       TwwTable.OpenCursor
 0001:000734B0       TwwTable.PrepareCursor
 0001:00073520       TwwTable.FilterString
 0001:0007363C       TwwTable.FilterActivate
 0001:000736B8       TwwTable.setFilterArray
 0001:0007375C       TwwTable.getLookupLinks
 0001:00073764       TwwTable.setLookupLinks
 0001:00073770       TwwTable.RemoveObsoleteLinks
 0001:0007378C       TwwTable.DoOnCalcFields
 0001:000737BC       TwwTable.wwFindRecord
 0001:00073A6C       TwwTable.wwFindKey
 0001:00073D10       TwwTable.SetTableName
 0001:00073D70       TwwTable.GetTableName
 0001:00073D88       TwwTable.wwSetRangeStart
 0001:00073F3C       TwwTable.FieldsToIndex
 0001:00074000       TwwTable.PerformQuery
 0001:00074180       TwwTable.DoBeforePost
 0001:0007435C       TwwTable.GetDBPicture
 0001:00074464       TwwTable.InitFieldDefs
 0001:000744D0       TwwTable.SetOnFilterOptions
 0001:00074530       TwwTable.ResetMouseCursor
 0001:0007456C       TwwTable.IsSequenced
 0001:000745D4       TwwTable.GetNextRecords
 0001:000745F0       TwwTable.DataEvent
 0001:00074604       Finalization
 0001:00074634       Wwtable
 0001:00074F18       TInplaceEdit.Create
 0001:00074F70       TInplaceEdit.CreateParams
 0001:00074F8C       TInplaceEdit.CMShowingChanged
 0001:00074F90       TInplaceEdit.WMGetDlgCode
 0001:00074FBC       TInplaceEdit.WMPaste
 0001:00074FE0       TInplaceEdit.WMClear
 0001:00075004       TInplaceEdit.WMCut
 0001:00075028       TInplaceEdit.DblClick
 0001:00075040       TInplaceEdit.EditCanModify
 0001:0007519C       TInplaceEdit.KeyDown
 0001:000753A8       TInplaceEdit.KeyPress
 0001:00075490       TInplaceEdit.KeyUp
 0001:000754B0       TInplaceEdit.WndProc
 0001:00075528       TInplaceEdit.Deselect
 0001:0007554C       TInplaceEdit.Invalidate
 0001:000755D8       TInplaceEdit.Hide
 0001:000756E4       TInplaceEdit.BoundsChanged
 0001:00075740       TInplaceEdit.UpdateLoc
 0001:0007574C       TInplaceEdit.Visible
 0001:00075768       TInplaceEdit.Move
 0001:00075774       TInplaceEdit.SetFocus
 0001:0007579C       TInplaceEdit.UpdateContents
 0001:00075850       TCustomGrid.Create
 0001:00075998       TCustomGrid.Destroy
 0001:00075B0C       TCustomGrid.AdjustSize
 0001:00075C70       TCustomGrid.BoxRect
 0001:00075CA4       TCustomGrid.DoExit
 0001:00075CC4       TCustomGrid.CellRect
 0001:00075CE8       TCustomGrid.CanEditAcceptKey
 0001:00075CEC       TCustomGrid.CanGridAcceptKey
 0001:00075CF0       TCustomGrid.CanEditModify
 0001:00075CF8       TCustomGrid.CanEditShow
 0001:00075DAC       TCustomGrid.GetEditMask
 0001:00075DBC       TCustomGrid.GetEditText
 0001:00075DCC       TCustomGrid.SetEditText
 0001:00075DD4       TCustomGrid.GetEditLimit
 0001:00075DD8       TCustomGrid.HideEditor
 0001:00075DEC       TCustomGrid.ShowEditor
 0001:00075E00       TCustomGrid.ShowEditorChar
 0001:00075E3C       TCustomGrid.InvalidateEditor
 0001:00076004       TCustomGrid.DefineProperties
 0001:000760A4       TCustomGrid.MoveColumn
 0001:00076174       TCustomGrid.ColumnMoved
 0001:00076178       TCustomGrid.MoveRow
 0001:00076200       TCustomGrid.RowMoved
 0001:00076204       TCustomGrid.MouseCoord
 0001:00076258       TCustomGrid.MoveColRow
 0001:00076270       TCustomGrid.SelectCell
 0001:00076274       TCustomGrid.SizeChanged
 0001:00076278       TCustomGrid.Sizing
 0001:000762D0       TCustomGrid.TopLeftChanged
 0001:00076860       TCustomGrid.Paint
 0001:00077988       TCustomGrid.InvalidateCell
 0001:000782D0       TCustomGrid.ScrollData
 0001:00078914       TCustomGrid.CreateEditor
 0001:00078928       TCustomGrid.CreateParams
 0001:00078A54       TCustomGrid.KeyDown
 0001:00078E60       TCustomGrid.KeyPress
 0001:00078EA0       TCustomGrid.MouseDown
 0001:000791A4       TCustomGrid.MouseMove
 0001:00079330       TCustomGrid.MouseUp
 0001:000795D0       TCustomGrid.GetColWidths
 0001:000795F0       TCustomGrid.GetRowHeights
 0001:00079610       TCustomGrid.GetSelection
 0001:00079630       TCustomGrid.GetTabStops
 0001:00079644       TCustomGrid.GetVisibleRowCount
 0001:00079668       TCustomGrid.SetBorderStyle
 0001:00079680       TCustomGrid.SetCol
 0001:0007969C       TCustomGrid.SetColCount
 0001:000796FC       TCustomGrid.SetColWidths
 0001:000797B0       TCustomGrid.SetDefaultRowHeight
 0001:000797F0       TCustomGrid.SetFixedCols
 0001:00079880       TCustomGrid.SetFixedRows
 0001:00079910       TCustomGrid.SetEditorMode
 0001:00079940       TCustomGrid.SetOptions
 0001:000799B8       TCustomGrid.SetRow
 0001:000799D4       TCustomGrid.SetRowCount
 0001:00079A14       TCustomGrid.SetRowHeights
 0001:00079AC8       TCustomGrid.SetScrollBars
 0001:00079AE0       TCustomGrid.SetTabStops
 0001:00079B6C       TCustomGrid.SetTopRow
 0001:00079DB8       TCustomGrid.WMChar
 0001:00079DE8       TCustomGrid.WMCommand
 0001:00079E20       TCustomGrid.WMGetDlgCode
 0001:00079E50       TCustomGrid.WMKillFocus
 0001:00079EA0       TCustomGrid.WMLButtonDown
 0001:00079ECC       TCustomGrid.WMNCHitTest
 0001:00079F14       TCustomGrid.WMSetCursor
 0001:00079FBC       TCustomGrid.WMSetFocus
 0001:0007A00C       TCustomGrid.WMSize
 0001:0007A024       TCustomGrid.WMVScroll
 0001:0007A03C       TCustomGrid.WMHScroll
 0001:0007A054       TCustomGrid.CMCancelMode
 0001:0007A07C       TCustomGrid.CMFontChanged
 0001:0007A0A4       TCustomGrid.CMCtl3DChanged
 0001:0007A0BC       TCustomGrid.CMDesignHitTest
 0001:0007A0E0       TCustomGrid.CMWantSpecialKey
 0001:0007A10C       TCustomGrid.TimedScroll
 0001:0007A1B4       TCustomGrid.WMTimer
 0001:0007A2A8       TCustomGrid.ColWidthsChanged
 0001:0007A2C0       TCustomGrid.RowHeightsChanged
 0001:0007A2D8       TCustomGrid.UpdateDesigner
 0001:0007A318       Finalization
 0001:0007A348       Grids
 0001:0007A350       Finalization
 0001:0007A380       wwdblook
 0001:0007A638       TwwDBCustomCombo.Create
 0001:0007A788       TwwDBCustomCombo.Destroy
 0001:0007A7C0       TwwDBCustomCombo.GetIconIndent
 0001:0007A7CC       TwwDBCustomCombo.GetIconLeft
 0001:0007A7D8       TwwDBCustomCombo.LoadComboGlyph
 0001:0007A7DC       TwwDBCustomCombo.GetShowButton
 0001:0007A7E8       TwwDBCustomCombo.SetShowButton
 0001:0007A810       TwwDBCustomCombo.CreateParams
 0001:0007A82C       TwwDBCustomCombo.SetEditRect
 0001:0007A97C       TwwDBCustomCombo.WMSize
 0001:0007A990       TwwDBCustomCombo.BtnClick
 0001:0007A9D8       TwwDBCustomCombo.CloseUp
 0001:0007A9E4       TwwDBCustomCombo.DropDown
 0001:0007AAA0       TwwDBCustomCombo.Editable
 0001:0007AAC4       TwwDBCustomCombo.MouseEditable
 0001:0007AAD0       TwwDBCustomCombo.HandleDropDownKeys
 0001:0007AB58       TwwDBCustomCombo.KeyDown
 0001:0007ABB0       TwwDBCustomCombo.KeyPress
 0001:0007ABD4       TwwDBCustomCombo.WMLButtonDown
 0001:0007AC00       TwwDBCustomCombo.WMLButtonDblClk
 0001:0007AC2C       TwwDBCustomCombo.WMLButtonUp
 0001:0007ACD4       TwwDBCustomCombo.DrawButton
 0001:0007AD30       TwwComboDlgButton.Paint
 0001:0007AD98       TwwDBCustomCombo.GetClientEditRect
 0001:0007ADC4       TwwDBCustomCombo.SetButtonStyle
 0001:0007AE00       TwwDBCustomCombo.IsDroppedDown
 0001:0007AE08       TwwDBCustomCombo.Loaded
 0001:0007AE3C       TwwDBCustomCombo.CMEnabledChanged
 0001:0007AE58       Finalization
 0001:0007AE88       Wwdotdot
 0001:0007B97C       TwwDBComboBox.WndProc
 0001:0007BBEC       TwwDBComboBox.KeyPress
 0001:0007BE3C       TwwPopupListbox.Create
 0001:0007BF58       TwwPopupListbox.Keypress
 0001:0007C0D8       TwwPopupListbox.CreateParams
 0001:0007C0FC       TwwPopupListbox.CreateWnd
 0001:0007C134       TwwPopupListbox.DrawItem
 0001:0007C1DC       TwwDBComboBox.Create
 0001:0007C24C       TwwDBComboBox.Destroy
 0001:0007C294       TwwDBComboBox.ListBoxNeeded
 0001:0007C334       TwwDBComboBox.GetFieldMapText
 0001:0007C3B0       TwwDBComboBox.GetStoredText
 0001:0007C438       TwwDBComboBox.GetComboDisplay
 0001:0007C55C       TwwDBComboBox.GetComboValue
 0001:0007C910       TwwDBComboBox.SetItemList
 0001:0007C930       TwwDBComboBox.GetSorted
 0001:0007C94C       TwwDBComboBox.SetSorted
 0001:0007C970       TwwDBComboBox.ApplyList
 0001:0007CA40       TwwDBComboBox.DropDown
 0001:0007CD3C       TwwDBComboBox.CloseUp
 0001:0007CEC0       TwwDBComboBox.DoSelectAll
 0001:0007CEDC       TwwDBComboBox.GetItemIndex
 0001:0007CEF8       TwwDBComboBox.SetItemIndex
 0001:0007CFA8       TwwDBComboBox.isDroppedDown
 0001:0007CFB0       TwwDBComboBox.CMCancelMode
 0001:0007CFD4       TwwDBComboBox.WMKillFocus
 0001:0007D03C       TwwDBComboBox.CNKeyDown
 0001:0007D08C       TwwDBComboBox.KeyUp
 0001:0007D22C       TwwDBComboBox.KeyDown
 0001:0007D4E4       TwwDBComboBox.Editable
 0001:0007D520       TwwDBComboBox.MouseEditable
 0001:0007D540       TwwDBComboBox.ShowText
 0001:0007D64C       TwwDBComboBox.SetStyle
 0001:0007D684       Finalization
 0001:0007D6B4       Wwdbcomb
 0001:0007D924       wwEditMemoField
 0001:0007DB84       TwwMemoDlg.Create
 0001:0007DC18       TwwMemoDlg.ResizeControls
 0001:0007DDE0       TwwMemoDlg.OKBtnClick
 0001:0007DDF0       TwwMemoDlg.KeyPress
 0001:0007DE00       TwwMemoDlg.FormCloseQuery
 0001:0007DE78       TwwMemoDlg.FormShow
 0001:0007E0A0       TwwMemoDlg.MemoKeyDown
 0001:0007E0E0       TwwMemoDlg.UserButton1Click
 0001:0007E124       TwwMemoDlg.UserButton2Click
 0001:0007E17C       Finalization
 0001:0007E1AC       Wwmemo
 0001:0007F230       TwwDBGrid.Create
 0001:0007F2F8       TwwDBGrid.Destroy
 0001:0007F3C8       TwwDBGrid.SetFixedCols
 0001:0007F468       TwwDBGrid.GetFixedCols
 0001:0007F470       TwwDBGrid.GetDataSource
 0001:0007F4A4       TwwDBGrid.SetDataSource
 0001:0007F4AC       TwwDBGrid.SetwwMemoAttributes
 0001:0007F4C0       TwwDBGrid.GetTitleColor
 0001:0007F4C8       TwwDBGrid.SetTitleColor
 0001:0007F4E8       TwwDBGrid.RedrawGrid
 0001:0007F730       TwwDBGrid.LinkActive
 0001:0007F75C       TwwDBGrid.AllowCancelOnExit
 0001:0007F760       TwwDBGrid.DoExit
 0001:0007F7E4       TwwDBGrid.ApplySelected
 0001:0007F838       TwwDBGrid.SetColumnAttributes
 0001:0007FA38       TwwDBGrid.MouseCoord
 0001:0007FA5C       TwwDBGrid.Hidecontrols
 0001:0007FA98       TwwDBGrid.Paint
 0001:0007FC18       TwwDBGrid.CellColor
 0001:0007FC2C       TwwDBGrid.DrawCell
 0001:00080078       TwwDBGrid.CanEditGrid
 0001:00080090       TwwDBGrid.IsWWControl
 0001:00080180       TwwDBGrid.CanEditShow
 0001:00080200       TwwDBGrid.SetFieldValue
 0001:00080278       TwwDBGrid.FieldName
 0001:000802B0       TwwDBGrid.GetComponent
 0001:000803E0       TwwDBGrid.IsRichEditCell
 0001:00080568       TwwDBGrid.IsCustomEditCell
 0001:00080720       TwwDBGrid.RefreshDisplay
 0001:00080740       TwwDBGrid.InitControls
 0001:0008093C       TwwDBGrid.CMCtl3DChanged
 0001:00080948       TwwDBGrid.ColExit
 0001:000809C0       TwwDBGrid.TopLeftChanged
 0001:00080AD8       TwwDBGrid.CMDesignHitTest
 0001:00080B90       TwwDBGrid.SelectRecordRange
 0001:00080D84       TwwDBGrid.MouseUp
 0001:00080DA0       TwwDBGrid.MouseDown
 0001:00080F20       TwwDBGrid.WMChar
 0001:00080FD0       TwwDBGrid.CallMemoDialog
 0001:000811E8       TwwDBGrid.KeyDown
 0001:00081420       TwwDBGrid.WMLButtonDblClk
 0001:000814B4       TwwDBGrid.ToggleCheckBox
 0001:00081648       TwwDBGrid.GetActiveRow
 0001:00081654       TwwDBGrid.GetActiveField
 0001:00081670       TwwDBGrid.ColWidthsChanged
 0001:00081678       TwwDBGrid.ColumnMoved
 0001:0008169C       TwwMemoDialog.Create
 0001:0008170C       TwwMemoDialog.Destroy
 0001:00081744       TwwMemoDialog.GetDataSource
 0001:0008174C       TwwMemoDialog.SetDataSource
 0001:00081758       TwwMemoDialog.SetDataField
 0001:000817A4       TwwMemoDialog.GetDataField
 0001:000817BC       TwwMemoDialog.SetFont
 0001:000817C8       TwwMemoDialog.SetCaption
 0001:00081814       TwwMemoDialog.Execute
 0001:00081830       TwwMemoDialog.SetwwMemoAttributes
 0001:0008183C       TwwMemoDialog.DoInitDialog
 0001:00081854       TwwMemoDialog.DoCloseDialog
 0001:000818A8       TwwDBGrid.RemoveSelected
 0001:00081958       TwwDBGrid.UnselectAll
 0001:000819E8       TwwDBGrid.UnselectRecord
 0001:00081A5C       TwwDBGrid.SelectRecord
 0001:00081B38       TwwDBGrid.IsSelectedRecord
 0001:00081BE0       TwwDBGrid.RefreshBookmarkList
 0001:00081D08       TwwDBGrid.IsSelected
 0001:00081D28       TwwDBGrid.IsSelectedRow
 0001:00081DAC       TwwDBGrid.findBookmark
 0001:00081E78       TwwDBGrid.GetFieldValue
 0001:00082128       TwwDBGrid.Scroll
 0001:0008216C       TwwDBGrid.Loaded
 0001:00082190       TwwDBGrid.XIndicatorOffset
 0001:000821A4       TwwDBGrid.InvalidateCurrentRow
 0001:000821D0       TwwDBGrid.SetActiveRow
 0001:0008220C       TwwDBGrid.ColEnter
 0001:0008230C       TwwDBGrid.CalcRowHeight
 0001:00082314       TwwDBGrid.FlushChanges
 0001:00082340       Finalization
 0001:00082370       Wwdbgrid
 0001:00083028       TwwDBPicture.Create
 0001:00083050       TwwDBPicture.Assign
 0001:000830CC       TwwDBCustomEdit.Create
 0001:00083168       TwwDBCustomEdit.Destroy
 0001:000831B0       TwwCustomMaskEdit.Create
 0001:000831FC       TwwCustomMaskEdit.Destroy
 0001:0008322C       TwwCustomMaskEdit.SetWordWrap
 0001:00083238       TwwCustomMaskEdit.SetShowVertScrollBar
 0001:0008324C       TwwCustomMaskEdit.WMVScroll
 0001:00083284       TwwCustomMaskEdit.CreateParams
 0001:000832EC       TwwDBCustomEdit.CreateParams
 0001:000832F4       TwwCustomMaskEdit.DoOnCheckValue
 0001:00083314       TwwCustomMaskEdit.HavePictureMask
 0001:00083374       TwwCustomMaskEdit.DoExit
 0001:0008341C       TwwDBCustomEdit.Notification
 0001:00083628       TwwDBCustomEdit.KeyDown
 0001:000838F0       TwwDBCustomEdit.AllSelected
 0001:000841E4       TwwDBCustomEdit.KeyPress
 0001:00084538       TwwDBCustomEdit.KeyUp
 0001:00084548       TwwDBCustomEdit.CNKeyDown
 0001:000845F8       TwwDBCustomEdit.EditCanModify
 0001:00084610       TwwDBCustomEdit.Reset
 0001:00084730       TwwDBCustomEdit.Change
 0001:00084758       TwwDBCustomEdit.GetDataSource
 0001:00084790       TwwDBCustomEdit.SetDataSource
 0001:0008479C       TwwDBCustomEdit.GetDataField
 0001:000847B8       TwwDBCustomEdit.SetDataField
 0001:000847C4       TwwDBCustomEdit.GetReadOnly
 0001:000847D0       TwwDBCustomEdit.SetReadOnly
 0001:000847F0       TwwDBCustomEdit.GetField
 0001:000847FC       TwwDBCustomEdit.DataChange
 0001:00084A90       TwwDBCustomEdit.GetStoredText
 0001:00084AA4       TwwDBCustomEdit.GetFieldMapText
 0001:00084AD4       TwwDBCustomEdit.WMPaste
 0001:00084BCC       TwwDBCustomEdit.WMCut
 0001:00084C44       TwwDBCustomEdit.CMEnter
 0001:00084C8C       TwwDBCustomEdit.UpdateRecord
 0001:00084CF4       TwwDBCustomEdit.CMExit
 0001:00084D40       TwwDBCustomEdit.GetIconIndent
 0001:00084D44       TwwDBCustomEdit.GetIconLeft
 0001:00084D54       TwwDBCustomEdit.ShowText
 0001:00084DBC       TwwDBCustomEdit.ParentGridFocused
 0001:00084E34       TwwDBCustomEdit.WMPaint
 0001:000853A8       TwwDBCustomEdit.CMFontChanged
 0001:00085450       TwwDBCustomEdit.GetPicture
 0001:000854F8       TwwDBCustomEdit.SetPicture
 0001:000855F0       TwwCustomMaskEdit.IsValidPictureValue
 0001:000856BC       TwwCustomMaskEdit.KeyUp
 0001:00085734       TwwCustomMaskEdit.ApplyMask
 0001:000858F0       TwwCustomMaskEdit.KeyPress
 0001:00085CE8       TwwDBCustomEdit.EnableEdit
 0001:00085CF4       TwwCustomMaskEdit.EnableEdit
 0001:00085CF8       TwwDBCustomEdit.CMGetDataLink
 0001:00085D04       TwwCustomMaskEdit.SetEditRect
 0001:00085D64       TwwCustomMaskEdit.CreateWnd
 0001:00085D7C       TwwCustomMaskEdit.WMSize
 0001:00085D94       TwwDBCustomEdit.Editable
 0001:00085D98       TwwDBCustomEdit.WMSetFocus
 0001:00085DC0       TwwDBCustomEdit.GetClientEditRect
 0001:00085DD4       TwwDBCustomEdit.DoEnter
 0001:00085E18       TwwDBPicture.IsDatasetMask
 0001:00085F70       TwwDBPicture.SetPictureMask
 0001:0008606C       TwwDBPicture.SetAutoFill
 0001:0008607C       TwwDBPicture.SetAllowInvalidExit
 0001:00086094       TwwDBPicture.GetPictureMask
 0001:0008613C       TwwDBPicture.GetAutoFill
 0001:000861E0       TwwDBPicture.GetAllowInvalidExit
 0001:000861F8       TwwDBCustomEdit.StorePictureProperty
 0001:00086260       TwwDBCustomEdit.SetModified
 0001:000862B4       TwwDBCustomEdit.GetShowButton
 0001:000862B8       TwwDBCustomEdit.SetShowButton
 0001:000862BC       TwwDBCustomEdit.isDateField
 0001:000862F4       TwwDBCustomEdit.isTimeField
 0001:0008632C       TwwDBCustomEdit.isDateTimeField
 0001:0008639C       TwwDBCustomEdit.Loaded
 0001:000863C8       Finalization
 0001:000863F8       wwdbedit
 0001:00086CD0       TwwGridDataLink.Create
 0001:00086D08       TwwGridDataLink.Destroy
 0001:00086D34       TwwGridDataLink.GetDefaultFields
 0001:00086D54       TwwGridDataLink.GetFields
 0001:00086D7C       TwwGridDataLink.AddMapping
 0001:00086E90       TwwGridDataLink.ActiveChanged
 0001:00086EA0       TwwGridDataLink.ClearMapping
 0001:00086EC8       TwwGridDataLink.Modified
 0001:00086ED0       TwwGridDataLink.DataSetChanged
 0001:00086EE4       TwwGridDataLink.DataSetScrolled
 0001:00086EF4       TwwGridDataLink.LayoutChanged
 0001:00086F00       TwwGridDataLink.EditingChanged
 0001:00086F0C       TwwGridDataLink.RecordChanged
 0001:00086F28       TwwGridDataLink.UpdateData
 0001:00086F80       TwwGridDataLink.Reset
 0001:00087504       wwWriteTextLines
 0001:000877F0       TwwCustomDBGrid.Create
 0001:00087AEC       TwwCustomDBGrid.Destroy
 0001:00087B58       TwwCustomDBGrid.DefineFieldMap
 0001:00087C90       TwwCustomDBGrid.DrawDataCell
 0001:00087E74       TwwCustomDBGrid.SetColumnAttributes
 0001:000880A0       TwwCustomDBGrid.CalcRowHeight
 0001:0008821C       TwwCustomDBGrid.SetIndicatorWidth
 0001:0008822C       TwwCustomDBGrid.LayoutChanged
 0001:0008842C       TwwCustomDBGrid.LinkActive
 0001:00088450       TwwCustomDBGrid.CreateWnd
 0001:00088470       TwwCustomDBGrid.GetDataSource
 0001:0008847C       TwwCustomDBGrid.CanEditAcceptKey
 0001:000884C4       TwwCustomDBGrid.GetEditLimit
 0001:000884FC       TwwCustomDBGrid.CanEditModify
 0001:000885AC       TwwCustomDBGrid.GetEditMask
 0001:00088608       TwwCustomDBGrid.GetEditText
 0001:00088670       TwwCustomDBGrid.SetEditText
 0001:0008868C       TwwCustomDBGrid.GetFieldCount
 0001:00088698       TwwCustomDBGrid.GetFields
 0001:000886A4       TwwCustomDBGrid.SetDataSource
 0001:000886C8       TwwCustomDBGrid.GetSelectedField
 0001:000886FC       TwwCustomDBGrid.GetSelectedIndex
 0001:00088710       TwwCustomDBGrid.DataChanged
 0001:00088934       TwwCustomDBGrid.Scroll
 0001:00088BB8       TwwCustomDBGrid.DoTopRowChanged
 0001:00088D28       TwwCustomDBGrid.GetColField
 0001:00088D58       TwwCustomDBGrid.GetFieldValue
 0001:00088D84       TwwCustomDBGrid.UpdateScrollBar
 0001:00088EF4       TwwCustomDBGrid.UpdateRowCount
 0001:0008903C       TwwCustomDBGrid.CMParentFontChanged
 0001:000890A8       TwwCustomDBGrid.AllowCancelOnExit
 0001:000890AC       TwwCustomDBGrid.CMExit
 0001:00089160       TwwCustomDBGrid.CMFontChanged
 0001:00089178       TwwCustomDBGrid.CMDesignHitTest
 0001:000891F8       TwwCustomDBGrid.WMSetCursor
 0001:0008922C       TwwCustomDBGrid.WMSize
 0001:00089318       TwwCustomDBGrid.AllowPerfectFit
 0001:00089344       TwwCustomDBGrid.DoPerfectFit
 0001:000895B0       TwwCustomDBGrid.WMVScroll
 0001:00089718       TwwCustomDBGrid.HighlightCell
 0001:00089760       TwwCustomDBGrid.CellColor
 0001:00089764       TwwCustomDBGrid.Draw3DLines
 0001:00089D1C       TwwCustomDBGrid.DrawCheckBox_Checkmark
 0001:00089F58       TwwCustomDBGrid.DrawCheckBox
 0001:0008B2EC       TwwCustomDBGrid.DrawCell
 0001:0008BD48       TwwCustomDBGrid.IsWWControl
 0001:0008BD4C       TwwCustomDBGrid.CreateEditor
 0001:0008C0CC       TwwCustomDBGrid.KeyDown
 0001:0008C518       TwwCustomDBGrid.KeyPress
 0001:0008C558       TwwCustomDBGrid.MouseUp
 0001:0008C5FC       TwwCustomDBGrid.DoTitleButtonClick
 0001:0008C768       TwwCustomDBGrid.MouseDown
 0001:0008CA8C       TwwCustomDBGrid.ColEnter
 0001:0008CAAC       TwwCustomDBGrid.ColExit
 0001:0008CACC       TwwCustomDBGrid.ColumnMoved
 0001:0008CBD4       TwwCustomDBGrid.Notification
 0001:0008CC28       TwwCustomDBGrid.TimedScroll
 0001:0008CCA8       TwwCustomDBGrid.ColWidthsChanged
 0001:0008CF5C       TwwCustomDBGrid.Loaded
 0001:0008CF74       TwwCustomDBGrid.SetOptions
 0001:0008D0AC       TwwCustomDBGrid.SetTitleFont
 0001:0008D0C8       TwwCustomDBGrid.SetIndicatorColor
 0001:0008D0E0       TwwCustomDBGrid.SetTitleAlignment
 0001:0008D100       TwwCustomDBGrid.SetTitleLines
 0001:0008D124       TwwCustomDBGrid.SetRowHeightPercent
 0001:0008D154       TwwCustomDBGrid.DoCalcTitleAttributes
 0001:0008D1C0       TwwCustomDBGrid.DoCalcCellColors
 0001:0008D21C       TwwCustomDBGrid.GetShowHorzScrollBar
 0001:0008D230       TwwCustomDBGrid.SetShowHorzScrollBar
 0001:0008D244       TwwCustomDBGrid.SetShowVertScrollBar
 0001:0008D260       TwwCustomDBGrid.IsMemoField
 0001:0008D2B0       TwwCustomDBGrid.IsCheckBox
 0001:0008D444       TwwCustomDBGrid.IsValidCell
 0001:0008D4B0       TwwCustomDBGrid.DbCol
 0001:0008D4C4       TwwCustomDBGrid.DbRow
 0001:0008D4D8       TwwCustomDBGrid.IsSelected
 0001:0008D4DC       TwwCustomDBGrid.IsSelectedRow
 0001:0008D4E0       TwwCustomDBGrid.RefreshBookmarkList
 0001:0008D4E4       TwwCustomDBGrid.HideControls
 0001:0008D4E8       TwwInplaceEdit.wwCreate
 0001:0008D584       TwwInplaceEdit.Destroy
 0001:0008D614       TwwInplaceEdit.KeyDown
 0001:0008D678       TwwInplaceEdit.KeyUp
 0001:0008D82C       TwwInplaceEdit.KeyPress
 0001:0008DBDC       TwwInplaceEdit.WMPaste
 0001:0008DC04       TwwInplaceEdit.SetWordWrap
 0001:0008DC10       TwwInplaceEdit.CreateParams
 0001:0008DC58       TwwInplaceEdit.IsValidPictureValue
 0001:0008DD30       TwwInplaceEdit.WMSetFocus
 0001:0008DE58       TwwInplaceEdit.HavePictureMask
 0001:0008DEB8       TwwInplaceEdit.CMFontChanged
 0001:0008DF20       TwwCustomDBGrid.SelectRecord
 0001:0008DF24       TwwCustomDBGrid.UnselectRecord
 0001:0008DF28       TwwCustomDBGrid.SetTitleButtons
 0001:0008DF44       TwwCustomDBGrid.UnselectAll
 0001:0008DF48       TwwCustomDBGrid.GetSelectedFields
 0001:0008DF50       TwwCustomDBGrid.SetSelectedFields
 0001:0008DF5C       TwwCustomDBGrid.IsSelectedCheckbox
 0001:0008E00C       TwwCustomDBGrid.FlushChanges
 0001:0008E018       TwwIButton.Loaded
 0001:0008E064       TwwIButton.Paint
 0001:0008E06C       TwwIButton.SetBounds
 0001:0008E0E4       TwwCustomDBGrid.GetChildren
 0001:0008E0FC       Finalization
 0001:0008E12C       Wwdbigrd
 0001:0008EAA0       TDBCtrlGridLink.Create
 0001:0008EAEC       TDBCtrlGridLink.ActiveChanged
 0001:0008EB04       TDBCtrlGridLink.DataSetChanged
 0001:0008EB1C       TDBCtrlPanel.CreateLinked
 0001:0008EB84       TDBCtrlPanel.CreateParams
 0001:0008EBA8       TDBCtrlPanel.PaintWindow
 0001:0008ED3C       TDBCtrlPanel.CMControlListChange
 0001:0008ED6C       TDBCtrlPanel.WMPaint
 0001:0008EE58       TDBCtrlPanel.WMNCHitTest
 0001:0008EE88       TDBCtrlPanel.WMEraseBkgnd
 0001:0008EEA4       TDBCtrlGrid.Create
 0001:0008EFB8       TDBCtrlGrid.Destroy
 0001:0008F010       TDBCtrlGrid.AcquireFocus
 0001:0008F050       TDBCtrlGrid.AdjustSize
 0001:0008F0D0       TDBCtrlGrid.CreatePanelBitmap
 0001:0008F168       TDBCtrlGrid.CreateParams
 0001:0008F194       TDBCtrlGrid.CreateWnd
 0001:0008F204       TDBCtrlGrid.DataSetChanged
 0001:0008F3E4       TDBCtrlGrid.DestroyPanelBitmap
 0001:0008F43C       TDBCtrlGrid.DoKey
 0001:0008F6A8       TDBCtrlGrid.DrawPanel
 0001:0008F784       TDBCtrlGrid.DrawPanelBackground
 0001:0008F824       TDBCtrlGrid.GetChildParent
 0001:0008F840       TDBCtrlGrid.GetChildren
 0001:0008F870       TDBCtrlGrid.GetDataSource
 0001:0008F890       TDBCtrlGrid.GetEditMode
 0001:0008F8D0       TDBCtrlGrid.GetPanelBounds
 0001:0008F988       TDBCtrlGrid.GetTabOrderList
 0001:0008F998       TDBCtrlGrid.KeyDown
 0001:0008FAD8       TDBCtrlGrid.PaintWindow
 0001:0008FD38       TDBCtrlGrid.PaintPanel
 0001:0008FD6C       TDBCtrlGrid.PointInPanel
 0001:0008FDC8       TDBCtrlGrid.ReadState
 0001:0008FDF4       TDBCtrlGrid.Reset
 0001:0008FE48       TDBCtrlGrid.Scroll
 0001:00090058       TDBCtrlGrid.ScrollMessage
 0001:000901C8       TDBCtrlGrid.FindNext
 0001:0009030C       TDBCtrlGrid.SelectNext
 0001:000903F8       TDBCtrlGrid.SetBounds
 0001:000904D0       TDBCtrlGrid.SetColCount
 0001:0009051C       TDBCtrlGrid.SetDataSource
 0001:00090550       TDBCtrlGrid.SetEditMode
 0001:000905A4       TDBCtrlGrid.SetOrientation
 0001:000905E0       TDBCtrlGrid.SetPanelBorder
 0001:00090620       TDBCtrlGrid.SetPanelHeight
 0001:00090670       TDBCtrlGrid.SetPanelIndex
 0001:000906BC       TDBCtrlGrid.SetPanelWidth
 0001:0009070C       TDBCtrlGrid.SetRowCount
 0001:00090758       TDBCtrlGrid.SetSelectedColor
 0001:000907B0       TDBCtrlGrid.UpdateDataLinks
 0001:000908A4       TDBCtrlGrid.UpdateScrollBar
 0001:000909F0       TDBCtrlGrid.WMLButtonDown
 0001:00090B84       TDBCtrlGrid.WMLButtonDblClk
 0001:00090BC0       TDBCtrlGrid.WMHScroll
 0001:00090BDC       TDBCtrlGrid.WMVScroll
 0001:00090BF8       TDBCtrlGrid.WMEraseBkgnd
 0001:00090C14       TDBCtrlGrid.WMPaint
 0001:00090C30       TDBCtrlGrid.WMSetFocus
 0001:00090C58       TDBCtrlGrid.WMKillFocus
 0001:00090C80       TDBCtrlGrid.WMGetDlgCode
 0001:00090C9C       TDBCtrlGrid.WMSize
 0001:00090CC0       GetShiftState
 0001:00090D08       TDBCtrlGrid.CMChildKey
 0001:00090E04       TDBCtrlGrid.CMColorChanged
 0001:00090E3C       Finalization
 0001:00090E6C       Dbcgrids
 0001:00091138       TForm1.leggi1Click
 0001:000911AC       TForm1.inserisci1Click
 0001:0009123C       TForm1.correggi1Click
 0001:000912CC       Finalization
 0001:00091308       Unit1
 0001:00091624       TForm3.FormShow
 0001:00091834       TForm3.DBNavigator1Click
 0001:00091884       TForm3.SpeedButton1Click
 0001:00091940       TForm3.wwDBEdit1focus
 0001:00091950       TForm3.wwDBEdit2Exit
 0001:00091960       TForm3.wwDBComboBox1Exit
 0001:00091970       TForm3.ShowHint
 0001:000919E4       TForm3.wwDBEdit3Exit
 0001:00091A30       TForm3.wwDBEdit1Enter
 0001:00091AA8       TForm3.wwDBEdit2Enter
 0001:00091B20       TForm3.wwDBEdit3Enter
 0001:00091B98       TForm3.wwDBComboBox1Enter
 0001:00091C10       TForm3.FormKeyPress
 0001:00091C3C       Finalization
 0001:00091C78       Unit3
 0001:00091E24       TForm2.FormShow
 0001:00092060       TForm2.SpeedButton1Click
 0001:000920A8       Finalization
 0001:000920D8       Unit2
 0001:000920E0       Finalization
 0001:00092338       conto
 0002:00000000       Default8087CW
 0002:00000004       HeapAllocFlags
 0002:00000008       DebugHook
 0002:0000000C       LibModuleList
 0002:00000010       ModuleUnloadList
 0002:00000108       EmptyStr
 0002:0000010C       NullStr
 0002:00000110       Win32Platform
 0002:00000114       Win32MajorVersion
 0002:00000118       Win32MinorVersion
 0002:0000011C       Win32BuildNumber
 0002:00000120       Win32CSDVersion
 0002:00000124       MonthDays
 0002:00000154       LeadBytes
 0002:00000174       ExitProcList
 0002:00000178       AccessMode
 0002:00000184       ShareMode
 0002:00000198       FormatErrorStrs
 0002:000001A0       FMSecsPerDay
 0002:000001A4       IMSecsPerDay
 0002:000001A8       Format
 0002:000001AC       DefShortMonthNames
 0002:000001DC       DefLongMonthNames
 0002:0000020C       DefShortDayNames
 0002:00000228       DefLongDayNames
 0002:00000244       ErrorMap
 0002:0000027C       ExceptMap
 0002:00000324       TerminateProcList
 0002:00000328       AL1s
 0002:00000334       AL2s
 0002:0000035C       DefFontData
 0002:00000388       DDBsOnly
 0002:00000614       CreationControl
 0002:00000788       Ctl3DBtnWndProc
 0002:0000078C       Ctl3DDlgFramePaint
 0002:00000790       Ctl3DCtlColorEx
 0002:00000794       HintWindowClass
 0002:000009F4       DefaultBlank
 0002:000009F8       MaskFieldSeparator
 0002:000009FC       MaskNoSave
 0002:00000A00       DefaultFieldClasses
 0002:00001698       FldTypeMap
 0002:000016B0       FldSubTypeMap
 0002:000016E0       DataTypeMap
 0002:000016F4       BlobTypeMap
 0002:00001748       Class_SMClient
 0002:00001758       CreateProviderProc
 0002:00002000       ExceptProc
 0002:00002004       ErrorProc
 0002:00002008       ExceptClsProc
 0002:0000200C       ExceptObjProc
 0002:00002010       ExceptionClass
 0002:00002014       AssertErrorProc
 0002:00002018       AbstractErrorProc
 0002:0000201C       MainInstance
 0002:00002020       IsLibrary
 0002:00002024       CmdShow
 0002:00002028       CmdLine
 0002:0000202C       InitProc
 0002:00002030       ExitCode
 0002:00002034       ExitProc
 0002:00002038       ErrorAddr
 0002:0000203C       RandSeed
 0002:00002040       IsConsole
 0002:00002041       IsMultiThread
 0002:00002042       FileMode
 0002:00002043       Test8086
 0002:00002044       Test8087
 0002:00002048       Input
 0002:00002214       Output
 0002:000023E0       Unassigned
 0002:000023F0       Null
 0002:00002400       AllocMemCount
 0002:00002404       AllocMemSize
 0002:000024AC       ModuleIsLib
 0002:000024B0       TlsIndex
 0002:000024B8       HInstance
 0002:000024CC       CurrencyString
 0002:000024D0       CurrencyFormat
 0002:000024D1       NegCurrFormat
 0002:000024D2       ThousandSeparator
 0002:000024D3       DecimalSeparator
 0002:000024D4       CurrencyDecimals
 0002:000024D5       DateSeparator
 0002:000024D8       ShortDateFormat
 0002:000024DC       LongDateFormat
 0002:000024E0       TimeSeparator
 0002:000024E4       TimeAMString
 0002:000024E8       TimePMString
 0002:000024EC       ShortTimeFormat
 0002:000024F0       LongTimeFormat
 0002:000024F4       ShortMonthNames
 0002:00002524       LongMonthNames
 0002:00002554       ShortDayNames
 0002:00002570       LongDayNames
 0002:0000258C       SysLocale
 0002:00002598       EraNames
 0002:000025B4       EraYearOffsets
 0002:000025D0       .1
 0002:000025D4       OutOfMemory
 0002:000025D8       InvalidPointer
 0002:000025E0       .1
 0002:000025E8       MainThreadID
 0002:000025EC       FindGlobalComponent
 0002:00002600       SystemPalette16
 0002:0000266C       NewStyleControls
 0002:000026E8       Application
 0002:000026EC       Screen
 0002:00002748       CF_PICTURE
 0002:0000274A       CF_COMPONENT
 0002:00002790       Session
 0002:00002794       Sessions
 0002:00002864       wwInternational
 0002:000028B4       .1
 0002:000028B8       Form1
 0002:000028BC       cor
 0002:000028C0       .1
 0002:000028C4       Form3
 0002:000028C8       fl
 0002:000028CC       .1
 0002:000028D0       Form2
 0002:000028D4       totE
 0002:000028DC       totM
 0002:000028E4       .1


Line numbers for SysUtils(SysUtils.pas) segment .text

  1942 0001:0000621C  1943 0001:0000621F  1944 0001:00006220  1945 0001:00006222
  1946 0001:00006224  1947 0001:00006227  1948 0001:0000622A  1949 0001:0000622D
  1950 0001:00006230  1951 0001:00006233  1952 0001:00006234  1955 0001:00006238
  1956 0001:0000623F  1957 0001:00006253  1960 0001:00006258  1961 0001:00006267
  1962 0001:00006283  1967 0001:00006288  1968 0001:00006291  1969 0001:0000629C
  1970 0001:000062AC  1989 0001:000062B0  1990 0001:000062B6  1991 0001:000062BE
  1992 0001:000062C8  1993 0001:000062D5  1994 0001:000062DE  1995 0001:000062EB
  1996 0001:000062EE  2001 0001:000062F4  2002 0001:000062FD  2003 0001:0000630A
  2004 0001:00006314  2005 0001:00006321  2006 0001:0000632A  2007 0001:00006332
  2008 0001:0000633D  2013 0001:00006344  2014 0001:0000634D  2016 0001:0000635D
  2017 0001:00006370  2019 0001:0000637E  2022 0001:00006384  2023 0001:0000638B
  2024 0001:000063A7  2045 0001:000063AC  2046 0001:000063B8  2047 0001:000063C3
  2048 0001:000063CE  2049 0001:000063D4  2050 0001:000063DC  2052 0001:000063E2
  2053 0001:000063EA  2054 0001:00006401  2055 0001:00006409  2056 0001:0000640D
  2057 0001:00006411  2050 0001:0000641C  2059 0001:00006422  2066 0001:00006428
  2067 0001:00006434  2068 0001:0000643F  2069 0001:0000644A  2070 0001:00006450
  2071 0001:00006458  2073 0001:0000645E  2074 0001:00006466  2075 0001:0000647D
  2076 0001:00006485  2077 0001:00006489  2078 0001:0000648D  2071 0001:00006498
  2080 0001:0000649E  2084 0001:000064A4  2085 0001:000064A5  2086 0001:000064A6
  2087 0001:000064A8  2088 0001:000064AA  2089 0001:000064AC  2090 0001:000064AE
  2091 0001:000064B1  2092 0001:000064B3  2093 0001:000064B5  2094 0001:000064B8
  2095 0001:000064BA  2096 0001:000064BC  2097 0001:000064BE  2098 0001:000064C0
  2099 0001:000064C2  2100 0001:000064C4  2101 0001:000064C6  2102 0001:000064CA
  2103 0001:000064CE  2104 0001:000064D0  2105 0001:000064D1  2106 0001:000064D2
  2110 0001:000064D4  2111 0001:000064D5  2112 0001:000064D6  2113 0001:000064D8
  2114 0001:000064DA  2115 0001:000064DC  2116 0001:000064DE  2117 0001:000064E1
  2118 0001:000064E3  2119 0001:000064E5  2120 0001:000064E7  2121 0001:000064E9
  2122 0001:000064EB  2123 0001:000064ED  2124 0001:000064EF  2125 0001:000064F0
  2126 0001:000064F1  2127 0001:000064F2  2131 0001:000064F4  2132 0001:000064F5
  2133 0001:000064F6  2134 0001:000064F7  2135 0001:000064F9  2136 0001:000064FB
  2137 0001:000064FD  2138 0001:000064FF  2139 0001:00006502  2140 0001:00006504
  2141 0001:00006506  2142 0001:00006509  2143 0001:0000650B  2144 0001:0000650D
  2145 0001:0000650F  2146 0001:00006511  2147 0001:00006513  2148 0001:00006515
  2149 0001:00006517  2150 0001:0000651A  2151 0001:0000651D  2152 0001:0000651F
  2153 0001:00006522  2154 0001:00006524  2155 0001:00006527  2156 0001:0000652A
  2157 0001:0000652D  2158 0001:0000652F  2159 0001:00006532  2160 0001:00006534
  2161 0001:00006537  2162 0001:00006539  2163 0001:0000653B  2164 0001:0000653E
  2165 0001:00006541  2166 0001:00006543  2167 0001:00006544  2168 0001:00006545
  2169 0001:00006546  2174 0001:00006548  2175 0001:00006554  2176 0001:0000655F
  2177 0001:00006574  2178 0001:00006583  2183 0001:00006588  2184 0001:00006594
  2185 0001:0000659F  2186 0001:000065B4  2187 0001:000065C3  2196 0001:000065C8
  2197 0001:000065D4  2199 0001:00006614  2219 0001:00006618  2220 0001:00006627
  2222 0001:00006653  2239 0001:00006658  2240 0001:00006664  2241 0001:0000666F
  2242 0001:00006678  2243 0001:00006698  2245 0001:000066AA  2246 0001:000066C2
  2248 0001:000066E8  2365 0001:000066EC  2366 0001:000066F8  2367 0001:000066FE
  2368 0001:0000670C  2369 0001:00006711  2371 0001:00006719  2373 0001:00006728
  2375 0001:00006735  2377 0001:00006751  2378 0001:00006764  2380 0001:00006768
  2369 0001:0000676C  2382 0001:00006774  2384 0001:0000678A  2385 0001:00006790
  2386 0001:000067B1  2387 0001:000067B9  2388 0001:000067C5  2391 0001:000067D4
  2392 0001:000067DA  2393 0001:000067DE  2394 0001:000067E4  2395 0001:000067E8
  2399 0001:000067EE  2400 0001:000067F4  2401 0001:000067F8  2402 0001:000067FE
  2403 0001:00006802  2404 0001:00006806  2407 0001:00006814  2409 0001:00006827
  2410 0001:00006831  2411 0001:00006835  2413 0001:00006839  2414 0001:00006843
  2415 0001:00006847  2387 0001:0000684B  2418 0001:00006857  2426 0001:0000685C
  2427 0001:00006865  2428 0001:00006869  2429 0001:0000688A  2430 0001:000068CA
  2431 0001:000068D1  2434 0001:000068D8  2435 0001:000068E4  2436 0001:00006900
  2446 0001:00006910  2447 0001:0000692C  2448 0001:0000693A  2449 0001:00006986
  2454 0001:0000698C  2455 0001:00006998  2456 0001:000069A6  2457 0001:000069B5
  2515 0001:000069BC  2516 0001:000069C8  2519 0001:00006A08  2522 0001:00006A0C
  2523 0001:00006A15  2525 0001:00006A3B  2528 0001:00006A40  2529 0001:00006A4F
  2530 0001:00006A74  2533 0001:00006A78  2534 0001:00006A87  2535 0001:00006AAC
  2538 0001:00006AB0  2539 0001:00006ABF  2540 0001:00006AD8  2543 0001:00006ADC
  2544 0001:00006AE3  2545 0001:00006AEC  2678 0001:00006AF0  2679 0001:00006AF9
  2680 0001:00006B04  2682 0001:00006B0A  2683 0001:00006B17  2686 0001:00006B2C
  2687 0001:00006B34  2692 0001:00006B38  2693 0001:00006B44  2694 0001:00006B4F
  2695 0001:00006B5A  2697 0001:00006B60  2698 0001:00006B83  2699 0001:00006B92
  2702 0001:00006B9D  2695 0001:00006BA8  2704 0001:00006BB1  2709 0001:00006BB8
  2710 0001:00006BDB  2711 0001:00006BEB  2712 0001:00006C05  2713 0001:00006C4E
  2758 0001:00006C60  2759 0001:00006C6C  2760 0001:00006C7C  2761 0001:00006C9A
  2766 0001:00006CAC  2767 0001:00006CB8  2768 0001:00006CC8  2769 0001:00006CDB
  2770 0001:00006CF1  2771 0001:00006CF9  3029 0001:00006D0C  3030 0001:00006D0E
  3031 0001:00006D10  3032 0001:00006D15  3033 0001:00006D17  3034 0001:00006D19
  3035 0001:00006D1E  3036 0001:00006D20  3037 0001:00006D22  3041 0001:00006D24
  3042 0001:00006D26  3043 0001:00006D28  3044 0001:00006D2D  3045 0001:00006D2F
  3046 0001:00006D31  3047 0001:00006D34  3048 0001:00006D36  3052 0001:00006D38
  3053 0001:00006D39  3054 0001:00006D3A  3055 0001:00006D3C  3056 0001:00006D3E
  3057 0001:00006D40  3058 0001:00006D42  3059 0001:00006D44  3060 0001:00006D46
  3061 0001:00006D49  3062 0001:00006D4B  3063 0001:00006D4D  3064 0001:00006D50
  3065 0001:00006D52  3066 0001:00006D55  3067 0001:00006D59  3068 0001:00006D5D
  3069 0001:00006D60  3070 0001:00006D61  3071 0001:00006D63  3072 0001:00006D66
  3073 0001:00006D69  3074 0001:00006D6B  3075 0001:00006D6E  3076 0001:00006D70
  3077 0001:00006D71  3078 0001:00006D72  3079 0001:00006D73  3083 0001:00006D74
  3084 0001:00006D75  3085 0001:00006D76  3086 0001:00006D78  3087 0001:00006D7A
  3088 0001:00006D7F  3089 0001:00006D81  3090 0001:00006D83  3091 0001:00006D85
  3092 0001:00006D87  3093 0001:00006D89  3094 0001:00006D8B  3095 0001:00006D8D
  3096 0001:00006D90  3097 0001:00006D92  3098 0001:00006D94  3099 0001:00006D97
  3100 0001:00006D99  3101 0001:00006D9A  3102 0001:00006D9B  3106 0001:00006D9C
  3107 0001:00006D9D  3108 0001:00006D9E  3109 0001:00006DA0  3110 0001:00006DA2
  3111 0001:00006DA7  3112 0001:00006DA9  3113 0001:00006DAB  3114 0001:00006DAD
  3115 0001:00006DAF  3116 0001:00006DB1  3117 0001:00006DB3  3118 0001:00006DB6
  3119 0001:00006DB8  3120 0001:00006DBA  3121 0001:00006DBD  3122 0001:00006DBF
  3123 0001:00006DC2  3124 0001:00006DC3  3125 0001:00006DC4  3129 0001:00006DC8
  3130 0001:00006DC9  3131 0001:00006DCA  3132 0001:00006DCB  3133 0001:00006DCD
  3134 0001:00006DCF  3135 0001:00006DD1  3136 0001:00006DD3  3137 0001:00006DD5
  3138 0001:00006DD7  3139 0001:00006DD9  3140 0001:00006DDB  3141 0001:00006DDC
  3142 0001:00006DDE  3143 0001:00006DE0  3144 0001:00006DE2  3145 0001:00006DE4
  3146 0001:00006DE6  3147 0001:00006DE9  3148 0001:00006DEB  3149 0001:00006DED
  3150 0001:00006DF0  3151 0001:00006DF2  3152 0001:00006DF3  3153 0001:00006DF5
  3154 0001:00006DF6  3155 0001:00006DF7  3156 0001:00006DF8  3159 0001:00006DFC
  3160 0001:00006E08  3161 0001:00006E25  3165 0001:00006E2C  3166 0001:00006E3B
  3167 0001:00006E56  3198 0001:00006E5C  3199 0001:00006E5D  3200 0001:00006E5E
  3201 0001:00006E60  3202 0001:00006E62  3203 0001:00006E67  3204 0001:00006E69
  3205 0001:00006E6B  3206 0001:00006E6D  3207 0001:00006E6F  3208 0001:00006E71
  3209 0001:00006E73  3210 0001:00006E76  3211 0001:00006E79  3212 0001:00006E7B
  3213 0001:00006E7C  3214 0001:00006E7D  3218 0001:00006E80  3219 0001:00006E81
  3220 0001:00006E82  3221 0001:00006E84  3222 0001:00006E86  3223 0001:00006E8B
  3224 0001:00006E8D  3225 0001:00006E8F  3226 0001:00006E91  3227 0001:00006E93
  3228 0001:00006E95  3229 0001:00006E97  3230 0001:00006E99  3231 0001:00006E9C
  3232 0001:00006E9F  3233 0001:00006EA1  3234 0001:00006EA4  3235 0001:00006EA6
  3236 0001:00006EA9  3237 0001:00006EAC  3238 0001:00006EAF  3239 0001:00006EB1
  3240 0001:00006EB4  3241 0001:00006EB6  3242 0001:00006EB9  3243 0001:00006EBB
  3244 0001:00006EBD  3245 0001:00006EBE  3246 0001:00006EBF  3275 0001:00006EC0
  3276 0001:00006EC1  3277 0001:00006EC2  3278 0001:00006EC3  3279 0001:00006EC5
  3280 0001:00006EC7  3281 0001:00006EC9  3282 0001:00006ECB  3283 0001:00006ECD
  3284 0001:00006ECF  3285 0001:00006ED1  3286 0001:00006ED3  3287 0001:00006ED5
  3288 0001:00006ED7  3289 0001:00006ED9  3290 0001:00006EDB  3291 0001:00006EDD
  3292 0001:00006EE0  3293 0001:00006EE3  3294 0001:00006EE5  3295 0001:00006EE8
  3296 0001:00006EEA  3297 0001:00006EED  3298 0001:00006EF0  3299 0001:00006EF3
  3300 0001:00006EF5  3301 0001:00006EF8  3302 0001:00006EFA  3303 0001:00006EFD
  3304 0001:00006EFF  3305 0001:00006F01  3306 0001:00006F02  3307 0001:00006F03
  3308 0001:00006F04  3312 0001:00006F08  3313 0001:00006F09  3314 0001:00006F0A
  3315 0001:00006F0C  3316 0001:00006F11  3317 0001:00006F13  3318 0001:00006F15
  3319 0001:00006F17  3320 0001:00006F18  3321 0001:00006F1A  3322 0001:00006F1C
  3323 0001:00006F21  3324 0001:00006F23  3325 0001:00006F25  3326 0001:00006F26
  3327 0001:00006F27  3351 0001:00006F28  3352 0001:00006F29  3353 0001:00006F2A
  3354 0001:00006F2B  3355 0001:00006F2D  3356 0001:00006F2F  3357 0001:00006F31
  3358 0001:00006F33  3359 0001:00006F35  3360 0001:00006F37  3361 0001:00006F39
  3362 0001:00006F3E  3363 0001:00006F40  3364 0001:00006F42  3365 0001:00006F43
  3366 0001:00006F45  3367 0001:00006F47  3368 0001:00006F49  3369 0001:00006F4E
  3370 0001:00006F50  3371 0001:00006F52  3372 0001:00006F54  3373 0001:00006F56
  3374 0001:00006F58  3375 0001:00006F5B  3376 0001:00006F5D  3377 0001:00006F5E
  3378 0001:00006F60  3379 0001:00006F62  3380 0001:00006F64  3381 0001:00006F65
  3382 0001:00006F67  3383 0001:00006F69  3384 0001:00006F6A  3385 0001:00006F6C
  3386 0001:00006F6E  3387 0001:00006F71  3388 0001:00006F73  3389 0001:00006F75
  3390 0001:00006F76  3391 0001:00006F77  3392 0001:00006F78  3396 0001:00006F7C
  3397 0001:00006F7D  3398 0001:00006F7F  3399 0001:00006F81  3400 0001:00006F82
  3401 0001:00006F84  3402 0001:00006F86  3403 0001:00006F89  3404 0001:00006F8B
  3405 0001:00006F8E  3406 0001:00006F90  3407 0001:00006F93  3408 0001:00006F96
  3409 0001:00006F98  3410 0001:00006F99  3411 0001:00006F9A  3433 0001:00006F9C
  3434 0001:00006FA8  3435 0001:00006FB3  3438 0001:00006FB8  3439 0001:00006FC1
  3440 0001:00006FCC  3441 0001:00006FD7  3442 0001:00006FDF  3443 0001:00006FE6
  3446 0001:00006FEC  3447 0001:00006FF5  3448 0001:00006FF9  3449 0001:0000700E
  3454 0001:00007014  3455 0001:0000701D  3457 0001:0000702A  3458 0001:0000703F
  3460 0001:00007058  3463 0001:0000705C  3464 0001:00007063  3466 0001:00007069
  3467 0001:0000706D  3469 0001:0000707A  3480 0001:00007080  3481 0001:0000708F
  3482 0001:0000709C  3483 0001:000070C0  3484 0001:000070CE  3485 0001:000070D6
  3486 0001:000070F4  3489 0001:000070F8  3490 0001:00007104  3491 0001:0000710F
  3494 0001:00007114  3495 0001:0000711B  3496 0001:00007123  3508 0001:00007128
  3509 0001:00007134  3510 0001:00007135  3511 0001:00007136  3512 0001:00007137
  3513 0001:00007139  3514 0001:0000713B  3515 0001:0000713E  3516 0001:00007141
  3517 0001:00007143  3518 0001:00007146  3519 0001:00007149  3522 0001:0000714C
  3523 0001:0000714E  3526 0001:00007150  3527 0001:00007152  3528 0001:00007154
  3529 0001:00007155  3530 0001:00007158  3533 0001:0000715A  3534 0001:0000715B
  3535 0001:0000715C  3538 0001:0000715E  3539 0001:00007160  3540 0001:00007163
  3543 0001:00007168  3544 0001:0000716A  3545 0001:0000716C  3546 0001:0000716D
  3547 0001:00007170  3548 0001:00007172  3549 0001:00007175  3550 0001:00007178
  3551 0001:0000717B  3552 0001:0000717E  3553 0001:00007180  3554 0001:00007182
  3555 0001:00007184  3556 0001:00007185  3557 0001:0000718A  3558 0001:0000718D
  3559 0001:0000718F  3560 0001:00007192  3561 0001:00007194  3562 0001:00007196
  3563 0001:00007197  3564 0001:00007199  3565 0001:0000719C  3566 0001:000071A1
  3567 0001:000071A4  3568 0001:000071A6  3569 0001:000071A8  3570 0001:000071AA
  3571 0001:000071AB  3572 0001:000071B0  3573 0001:000071B3  3574 0001:000071B6
  3575 0001:000071B7  3576 0001:000071B8  3577 0001:000071BD  3578 0001:000071BE
  3579 0001:000071C1  3580 0001:000071C3  3581 0001:000071C5  3582 0001:000071C7
  3583 0001:000071CB  3584 0001:000071CD  3585 0001:000071CF  3586 0001:000071D1
  3587 0001:000071D3  3588 0001:000071D5  3589 0001:000071D7  3590 0001:000071D9
  3591 0001:000071DB  3592 0001:000071DD  3593 0001:000071DF  3594 0001:000071E1
  3595 0001:000071E3  3596 0001:000071E5  3597 0001:000071E7  3598 0001:000071E9
  3599 0001:000071EB  3600 0001:000071ED  3601 0001:000071EF  3602 0001:000071F1
  3603 0001:000071F5  3604 0001:000071F7  3605 0001:000071F8  3606 0001:000071FB
  3607 0001:00007200  3608 0001:00007201  3609 0001:00007202  3610 0001:00007205
  3613 0001:0000720A  3614 0001:0000720C  3615 0001:0000720F  3616 0001:00007211
  3617 0001:00007214  3618 0001:00007216  3619 0001:00007219  3620 0001:0000721B
  3621 0001:0000721E  3622 0001:00007221  3623 0001:00007224  3624 0001:00007226
  3625 0001:00007228  3626 0001:0000722A  3627 0001:0000722B  3628 0001:0000722D
  3629 0001:0000722E  3630 0001:00007233  3631 0001:00007236  3632 0001:00007239
  3633 0001:0000723B  3634 0001:0000723E  3635 0001:00007241  3636 0001:00007246
  3637 0001:00007249  3638 0001:0000724B  3639 0001:0000724D  3640 0001:0000724F
  3641 0001:00007251  3642 0001:00007252  3645 0001:00007253  3646 0001:00007255
  3647 0001:00007257  3648 0001:0000725C  3649 0001:0000725F  3650 0001:00007262
  3651 0001:00007264  3652 0001:00007267  3653 0001:0000726A  3654 0001:0000726D
  3655 0001:0000726F  3656 0001:00007273  3659 0001:0000727A  3660 0001:0000727E
  3661 0001:00007282  3662 0001:00007286  3663 0001:0000728A  3664 0001:0000728E
  3665 0001:00007292  3666 0001:00007296  3667 0001:0000729A  3668 0001:0000729E
  3669 0001:000072A2  3670 0001:000072A6  3671 0001:000072AA  3672 0001:000072AE
  3673 0001:000072B2  3674 0001:000072B6  3682 0001:000072BA  3685 0001:000072BC
  3686 0001:000072C1  3687 0001:000072C4  3688 0001:000072C7  3689 0001:000072C9
  3693 0001:000072CE  3694 0001:000072D1  3695 0001:000072D3  3696 0001:000072D6
  3697 0001:000072D8  3698 0001:000072DB  3699 0001:000072DD  3700 0001:000072E2
  3701 0001:000072E4  3702 0001:000072E6  3703 0001:000072E8  3704 0001:000072EA
  3705 0001:000072EF  3706 0001:000072F1  3707 0001:000072F2  3708 0001:000072F3
  3709 0001:000072F5  3710 0001:000072F6  3713 0001:000072FB  3714 0001:000072FE
  3715 0001:00007300  3716 0001:00007302  3717 0001:00007305  3718 0001:00007308
  3719 0001:0000730A  3720 0001:0000730D  3721 0001:0000730E  3722 0001:00007310
  3723 0001:00007312  3724 0001:00007314  3725 0001:00007317  3726 0001:00007319
  3727 0001:0000731C  3728 0001:0000731F  3729 0001:00007321  3730 0001:00007322
  3731 0001:00007324  3732 0001:00007326  3733 0001:00007328  3734 0001:0000732A
  3735 0001:0000732B  3736 0001:0000732D  3737 0001:0000732E  3738 0001:00007330
  3741 0001:00007331  3742 0001:00007334  3743 0001:00007336  3744 0001:0000733B
  3747 0001:0000733C  3748 0001:0000733F  3749 0001:00007345  3750 0001:00007349
  3751 0001:0000734B  3752 0001:0000734D  3753 0001:00007350  3754 0001:00007355
  3755 0001:00007358  3758 0001:0000735A  3759 0001:0000735C  3762 0001:0000735D
  3763 0001:00007360  3764 0001:00007366  3765 0001:00007368  3766 0001:00007369
  3767 0001:0000736C  3770 0001:0000736E  3771 0001:00007373  3774 0001:00007375
  3777 0001:0000737A  3778 0001:0000737D  3779 0001:00007383  3780 0001:00007385
  3781 0001:00007388  3782 0001:0000738A  3783 0001:0000738D  3784 0001:0000738F
  3787 0001:00007391  3788 0001:00007394  3789 0001:0000739A  3792 0001:0000739C
  3793 0001:0000739E  3794 0001:000073A0  3797 0001:000073A3  3798 0001:000073A6
  3799 0001:000073A8  3800 0001:000073A9  3801 0001:000073AC  3804 0001:000073AD
  3805 0001:000073B0  3806 0001:000073B6  3807 0001:000073B8  3808 0001:000073B9
  3809 0001:000073BB  3810 0001:000073BD  3811 0001:000073C0  3812 0001:000073C2
  3813 0001:000073C4  3814 0001:000073C6  3815 0001:000073C7  3816 0001:000073C9
  3817 0001:000073CB  3818 0001:000073CC  3821 0001:000073CD  3822 0001:000073D0
  3823 0001:000073D6  3824 0001:000073DD  3825 0001:000073E2  3828 0001:000073E7
  3829 0001:000073E9  3832 0001:000073EB  3835 0001:000073ED  3836 0001:000073EF
  3837 0001:000073F1  3838 0001:000073F4  3839 0001:000073F6  3840 0001:000073F8
  3841 0001:000073FB  3842 0001:000073FD  3843 0001:000073FF  3844 0001:00007402
  3845 0001:00007404  3846 0001:00007406  3847 0001:00007409  3848 0001:0000740B
  3849 0001:0000740E  3850 0001:00007414  3851 0001:00007416  3852 0001:0000741B
  3853 0001:0000741E  3854 0001:00007420  3855 0001:00007422  3856 0001:00007427
  3857 0001:0000742A  3858 0001:0000742C  3859 0001:00007433  3860 0001:00007435
  3861 0001:00007438  3862 0001:0000743D  3863 0001:00007440  3864 0001:00007442
  3865 0001:00007447  3866 0001:00007448  3867 0001:00007449  3868 0001:0000744A
  3869 0001:0000744D  3870 0001:0000744F  3871 0001:00007452  3872 0001:00007457
  3873 0001:00007459  3874 0001:0000745C  3877 0001:0000745D  3878 0001:0000745E
  3879 0001:00007461  3880 0001:00007466  3881 0001:00007467  3884 0001:00007468
  3885 0001:0000746D  3886 0001:0000746E  3887 0001:0000746F  3888 0001:00007470
  3891 0001:00007478  3892 0001:00007487  3893 0001:000074AF  3894 0001:000074B8
  3898 0001:000074C0  3899 0001:000074CF  3900 0001:000074F5  3901 0001:000074FE
  3904 0001:00007504  3905 0001:00007513  3906 0001:00007525  3913 0001:0000752C
  3914 0001:00007542  3915 0001:00007549  3916 0001:0000756E  3920 0001:0000759F
  3921 0001:000075AA  3923 0001:000075B0  3927 0001:000075C4  3928 0001:000075D1
  3929 0001:000075D9  3930 0001:000075E4  3925 0001:00007612  3933 0001:00007624
  3936 0001:00007631  3937 0001:00007642  3958 0001:00007648  3959 0001:00007651
  3961 0001:00007671  3966 0001:00007678  3967 0001:00007681  3969 0001:000076A1
  3975 0001:000076A8  3976 0001:000076B7  3978 0001:000076DD  3984 0001:000076E4
  3985 0001:000076F3  3987 0001:00007717  3992 0001:00007720  3993 0001:00007745
  3994 0001:0000776F  3996 0001:000077B8  4001 0001:000077C0  4002 0001:000077E5
  4003 0001:0000780F  4005 0001:00007858  4008 0001:00007860  4009 0001:0000787C
  4010 0001:00007892  4011 0001:000078D8  4014 0001:000078DC  4015 0001:000078F8
  4016 0001:0000790E  4017 0001:00007954  4026 0001:00007958  4027 0001:0000795B
  4028 0001:0000795D  4029 0001:00007960  4030 0001:00007966  4031 0001:00007969
  4032 0001:0000796C  4033 0001:0000796D  4034 0001:0000796E  4035 0001:0000796F
  4036 0001:00007971  4037 0001:00007973  4038 0001:00007975  4039 0001:00007977
  4040 0001:0000797A  4041 0001:00007980  4042 0001:00007982  4043 0001:00007984
  4044 0001:0000798A  4045 0001:0000798F  4046 0001:00007991  4047 0001:00007994
  4051 0001:00007998  4052 0001:0000799A  4053 0001:0000799D  4054 0001:000079A2
  4055 0001:000079A8  4056 0001:000079AA  4057 0001:000079AC  4058 0001:000079AE
  4059 0001:000079B1  4060 0001:000079B3  4061 0001:000079B5  4062 0001:000079B8
  4063 0001:000079B9  4064 0001:000079BA  4065 0001:000079BD  4066 0001:000079C3
  4067 0001:000079C6  4070 0001:000079C8  4071 0001:000079CB  4072 0001:000079CD
  4073 0001:000079D0  4074 0001:000079D3  4075 0001:000079D9  4076 0001:000079DB
  4077 0001:000079DE  4081 0001:000079E4  4082 0001:000079E7  4083 0001:000079ED
  4084 0001:000079EF  4089 0001:000079F0  4090 0001:00007A02  4091 0001:00007A06
  4093 0001:00007A27  4094 0001:00007A8D  4096 0001:00007A94  4099 0001:00007AA8
  4100 0001:00007ACE  4101 0001:00007AEC  4102 0001:00007B21  4107 0001:00007B28
  4108 0001:00007B37  4109 0001:00007B58  4110 0001:00007B6C  4111 0001:00007B80
  4116 0001:00007B88  4117 0001:00007B90  4118 0001:00007BD0  4124 0001:00007BD4
  4125 0001:00007BE7  4126 0001:00007BEB  4127 0001:00007C0B  4130 0001:00007C59
  4131 0001:00007C93  4132 0001:00007CA4  4133 0001:00007D16  4135 0001:00007D1D
  4138 0001:00007D24  4139 0001:00007D4A  4140 0001:00007D63  4141 0001:00007D98
  4153 0001:00007DA0  4154 0001:00007DAF  4155 0001:00007DC3  4157 0001:00007DC9
  4158 0001:00007DD1  4159 0001:00007DD9  4162 0001:00007DE6  4163 0001:00007DF1
  4164 0001:00007DF7  4166 0001:00007E00  4167 0001:00007E0E  4164 0001:00007E1B
  4169 0001:00007E24  4170 0001:00007E37  4172 0001:00007E3E  4173 0001:00007E4A
  4175 0001:00007E57  4176 0001:00007E70  4177 0001:00007E84  4178 0001:00007E9D
  4179 0001:00007EB1  4181 0001:00007EB8  4182 0001:00007EC4  4184 0001:00007ED1
  4185 0001:00007EE0  4186 0001:00007F00  4189 0001:00007F06  4190 0001:00007F16
  4191 0001:00007F20  4192 0001:00007F2F  4187 0001:00007F3B  4194 0001:00007F3D
  4195 0001:00007F47  4196 0001:00007F51  4198 0001:00007F65  4217 0001:00007F6C
  4218 0001:00007F72  4219 0001:00007F9B  4224 0001:00007FA4  4225 0001:00007FAA
  4226 0001:00007FB3  4227 0001:00007FCB  4232 0001:00007FD0  4233 0001:00007FD6
  4234 0001:00007FDF  4236 0001:00007FFC  4239 0001:00008000  4240 0001:00008006
  4241 0001:0000801E  4267 0001:00008024  4268 0001:0000802A  4269 0001:00008033
  4270 0001:0000803F  4283 0001:00008044  4284 0001:00008050  4285 0001:00008068
  4286 0001:00008076  4287 0001:0000809A  4288 0001:000080AD  4291 0001:000080B4
  4292 0001:000080BB  4293 0001:000080D2  4300 0001:000080D8  4301 0001:000080E4
  4303 0001:00008121  4317 0001:00008128  4318 0001:0000812C  4319 0001:00008137
  4320 0001:0000814E  4321 0001:0000816E  4324 0001:00008174  4325 0001:00008177
  4327 0001:00008180  4328 0001:000081A3  4330 0001:000081AA  4333 0001:000081AC
  4334 0001:000081AF  4336 0001:000081B8  4337 0001:000081E2  4339 0001:000081E9
  4347 0001:000081EC  4348 0001:00008214  4351 0001:0000821C  4352 0001:00008227
  4353 0001:00008232  4356 0001:0000823D  4357 0001:0000824A  4360 0001:00008278
  4361 0001:0000828B  4363 0001:00008295  4365 0001:000082AB  4367 0001:000082D1
  4370 0001:000082F6  4371 0001:00008313  4376 0001:00008366  4383 0001:00008378
  4384 0001:0000839A  4387 0001:000083A2  4388 0001:000083AD  4389 0001:000083B8
  4392 0001:000083C3  4393 0001:000083C9  4395 0001:000083D8  4397 0001:000083E5
  4400 0001:0000840F  4401 0001:00008422  4402 0001:00008432  4404 0001:00008478
  4406 0001:00008498  4407 0001:000084B4  4409 0001:000084CE  4410 0001:000084DF
  4411 0001:000084E3  4412 0001:000084E7  4413 0001:000084EB  4416 0001:000084F4
  4417 0001:000084FC  4418 0001:00008500  4420 0001:00008511  4421 0001:0000851D
  4422 0001:00008521  4423 0001:00008525  4425 0001:0000852A  4426 0001:00008530
  4427 0001:00008544  4429 0001:0000854D  4430 0001:0000855D  4432 0001:00008563
  4435 0001:000085F5  4436 0001:000085FC  4437 0001:00008603  4438 0001:00008609
  4439 0001:0000862B  4443 0001:00008643  4444 0001:0000864A  4445 0001:00008651
  4449 0001:00008670  4450 0001:00008677  4451 0001:0000867E  4455 0001:0000869D
  4456 0001:000086A4  4457 0001:000086AB  4458 0001:000086B8  4459 0001:000086CE
  4461 0001:000086E8  4466 0001:00008702  4467 0001:00008709  4470 0001:0000871C
  4471 0001:00008723  4473 0001:00008739  4474 0001:0000875D  4475 0001:00008781
  4477 0001:00008795  4482 0001:000087A9  4483 0001:000087B0  4484 0001:000087B7
  4485 0001:000087BB  4488 0001:000087C6  4490 0001:000087D9  4491 0001:000087DD
  4492 0001:000087E9  4493 0001:000087ED  4495 0001:000087F2  4497 0001:00008820
  4499 0001:00008826  4502 0001:00008868  4503 0001:0000886C  4507 0001:0000886E
  4509 0001:00008876  4486 0001:0000887A  4511 0001:00008886  4512 0001:0000888E
  4513 0001:00008894  4514 0001:000088B6  4515 0001:000088C3  4519 0001:000088D9
  4520 0001:000088E0  4521 0001:000088E7  4522 0001:000088F4  4526 0001:0000890A
  4527 0001:00008911  4528 0001:00008918  4529 0001:00008925  4533 0001:0000893B
  4534 0001:00008942  4535 0001:00008948  4536 0001:0000895C  4540 0001:00008970
  4541 0001:00008977  4542 0001:00008980  4544 0001:00008996  4545 0001:000089A1
  4546 0001:000089B3  4547 0001:000089B7  4549 0001:000089C0  4551 0001:000089D6
  4552 0001:000089E1  4553 0001:000089F3  4554 0001:000089F7  4556 0001:00008A00
  4558 0001:00008A16  4559 0001:00008A1D  4560 0001:00008A2E  4561 0001:00008A3D
  4562 0001:00008A41  4564 0001:00008A4A  4566 0001:00008A60  4567 0001:00008A67
  4568 0001:00008A86  4570 0001:00008A8F  4572 0001:00008AA5  4573 0001:00008AAC
  4574 0001:00008ACB  4576 0001:00008AD4  4580 0001:00008AEB  4581 0001:00008AF2
  4582 0001:00008B01  4583 0001:00008B08  4585 0001:00008B21  4586 0001:00008B35
  4590 0001:00008B49  4592 0001:00008B62  4595 0001:00008B78  4598 0001:00008B80
  4600 0001:00008B93  4601 0001:00008B97  4603 0001:00008B9F  4596 0001:00008BA3
  4605 0001:00008BB5  4606 0001:00008BCF  4609 0001:00008BDD  4414 0001:00008BEF
  4612 0001:00008BFB  4614 0001:00008C29  4616 0001:00008C54  4617 0001:00008C69
  4618 0001:00008C71  4619 0001:00008C79  4620 0001:00008C9D  4621 0001:00008CB4
  4624 0001:00008CC0  4625 0001:00008CC7  4626 0001:00008CDB  4629 0001:00008CE0
  4630 0001:00008CE7  4631 0001:00008CFB  4634 0001:00008D00  4635 0001:00008D07
  4636 0001:00008D17  4651 0001:00008D1C  4652 0001:00008D28  4653 0001:00008D32
  4654 0001:00008D57  4655 0001:00008D5F  4662 0001:00008D64  4663 0001:00008D73
  4664 0001:00008D77  4665 0001:00008D82  4666 0001:00008D8A  4669 0001:00008D92
  4670 0001:00008DC2  4667 0001:00008DCD  4672 0001:00008DF2  4674 0001:00008DFC
  4675 0001:00008E04  4676 0001:00008E0E  4678 0001:00008E15  4682 0001:00008E1C
  4683 0001:00008E3F  4684 0001:00008E43  4686 0001:00008E49  4687 0001:00008E54
  4689 0001:00008E7E  4690 0001:00008E92  4693 0001:00008EB6  4696 0001:00008EBC
  4697 0001:00008ECB  4698 0001:00008ECF  4699 0001:00008EDA  4701 0001:00008EFA
  4702 0001:00008F07  4704 0001:00008F0E  4709 0001:00008F14  4710 0001:00008F1D
  4711 0001:00008F21  4714 0001:00008F2A  4715 0001:00008F48  4716 0001:00008F4E
  4717 0001:00008F54  4718 0001:00008F5A  4720 0001:00008F60  4712 0001:00008F6B
  4725 0001:00008F78  4726 0001:00008F7F  4729 0001:00008F84  4732 0001:00008F92
  4733 0001:00008FB9  4730 0001:00008FC6  4735 0001:00008FE7  4740 0001:00008FEC
  4741 0001:00008FF5  4742 0001:00008FFA  4744 0001:00009001  4745 0001:0000900E
  4747 0001:00009030  4748 0001:0000903D  4750 0001:0000903F  4742 0001:00009042
  4751 0001:0000904B  4762 0001:00009050  4763 0001:00009059  4765 0001:00009063
  4766 0001:00009069  4767 0001:000090A3  4768 0001:000090AC  4771 0001:000090BB
  4772 0001:000090C9  4773 0001:000090DF  4775 0001:000090E4  4776 0001:0000910A
  4777 0001:00009110  4778 0001:00009116  4779 0001:0000911C  4780 0001:00009120
  4781 0001:0000912D  4782 0001:00009132  4784 0001:0000913C  4785 0001:00009147
  4786 0001:00009172  4789 0001:0000917F  4790 0001:00009193  4791 0001:0000919B
  4793 0001:000091E0  4795 0001:000091F9  4796 0001:0000920F  4797 0001:0000921E
  4798 0001:00009238  4799 0001:00009252  4801 0001:0000926A  4802 0001:0000927F
  4805 0001:000092AD  4806 0001:000092B6  4808 0001:000092BC  4811 0001:000092CE
  4814 0001:000092DE  4815 0001:000092EF  4816 0001:000092FA  4818 0001:0000931F
  4819 0001:0000932C  4822 0001:0000933E  4823 0001:00009369  4824 0001:00009374
  4828 0001:000093E3  4829 0001:00009420  4836 0001:00009440  4837 0001:0000944F
  4838 0001:00009453  4839 0001:0000945A  4840 0001:00009483  4841 0001:0000948A
  4842 0001:000094B3  4843 0001:000094BA  4844 0001:000094CB  4845 0001:000094E1
  4846 0001:000094E7  4847 0001:000094FC  4848 0001:00009512  4849 0001:00009518
  4850 0001:0000952D  4851 0001:00009543  4852 0001:00009549  4853 0001:00009572
  4855 0001:00009579  4856 0001:000095A2  4857 0001:000095A9  4859 0001:000095AF
  4860 0001:000095BD  4861 0001:000095CA  4863 0001:000095D8  4864 0001:000095E3
  4865 0001:00009600  4870 0001:0000961C  4871 0001:00009638  4872 0001:0000963F
  4873 0001:0000965E  4874 0001:000096A4  4879 0001:000096A8  4880 0001:000096C4
  4881 0001:000096CB  4882 0001:000096EA  4883 0001:00009730  4889 0001:00009734
  4890 0001:00009750  4891 0001:00009757  4892 0001:0000975F  4894 0001:00009790
  4895 0001:000097B6  4896 0001:000097C4  4897 0001:000097D0  4898 0001:000097FA
  4906 0001:00009804  4907 0001:00009813  4910 0001:00009838  4911 0001:0000985B
  4912 0001:0000986C  4920 0001:00009870  4921 0001:00009882  4922 0001:0000989E
  4923 0001:000098CC  4928 0001:000098D4  4929 0001:000098E3  4930 0001:000098FA
  4931 0001:00009902  4932 0001:0000990B  4962 0001:00009910  4963 0001:0000991F
  4964 0001:00009933  4965 0001:0000994C  4967 0001:00009954  4968 0001:0000996D
  4969 0001:00009975  4971 0001:0000997C  4973 0001:000099BA  4975 0001:000099F8
  4969 0001:000099FB  4976 0001:00009A05  4978 0001:00009A0C  4979 0001:00009A24
  4980 0001:00009A58  4981 0001:00009A8C  4976 0001:00009A8F  4982 0001:00009AB6
  4991 0001:00009ABC  4992 0001:00009AC2  4994 0001:00009AC9  4995 0001:00009ADB
  4996 0001:00009AF7  4997 0001:00009B02  4998 0001:00009B0A  4999 0001:00009B12
  5005 0001:00009B18  5006 0001:00009B1E  5008 0001:00009B25  5009 0001:00009B3A
  5010 0001:00009B4C  5011 0001:00009B61  5012 0001:00009B6C  5013 0001:00009B74
  5014 0001:00009B7C  5016 0001:00009B84  5017 0001:00009B9D  5019 0001:00009BC5
  5022 0001:00009BD0  5023 0001:00009BE6  5026 0001:00009C19  5033 0001:00009C2C
  5034 0001:00009C4B  5035 0001:00009C52  5036 0001:00009C5A  5038 0001:00009C82
  5040 0001:00009C91  5041 0001:00009CAF  5045 0001:00009CB7  5046 0001:00009CC9
  5047 0001:00009CE9  5043 0001:00009CF4  5051 0001:00009D06  5052 0001:00009D11
  5057 0001:00009D16  5059 0001:00009D2E  5060 0001:00009D50  5063 0001:00009D60
  5065 0001:00009D7D  5066 0001:00009D8D  5068 0001:00009D9D  5070 0001:00009DBA
  5071 0001:00009DCA  5073 0001:00009DD7  5075 0001:00009DF4  5076 0001:00009E04
  5078 0001:00009E11  5079 0001:00009E23  5081 0001:00009E35  5082 0001:00009E55
  5055 0001:00009E60  5085 0001:00009E8E  5091 0001:00009EE4  5092 0001:00009EFD
  5093 0001:00009F05  5094 0001:00009F25  5095 0001:00009F4A  5096 0001:00009F6F
  5097 0001:00009F83  5098 0001:00009F97  5099 0001:00009FBC  5100 0001:00009FD0
  5101 0001:00009FFE  5102 0001:0000A02C  5103 0001:0000A040  5104 0001:0000A063
  5105 0001:0000A086  5106 0001:0000A08E  5107 0001:0000A096  5108 0001:0000A0BA
  5109 0001:0000A0C9  5110 0001:0000A0D6  5111 0001:0000A0FA  5112 0001:0000A11E
  5114 0001:0000A12D  5115 0001:0000A13A  5116 0001:0000A157  5117 0001:0000A1A3
  5137 0001:0000A248  5138 0001:0000A24C  5139 0001:0000A25A  5140 0001:0000A26D
  5141 0001:0000A275  5146 0001:0000A278  5147 0001:0000A27C  5148 0001:0000A28A
  5149 0001:0000A29D  5150 0001:0000A2A5  5156 0001:0000A2A8  5157 0001:0000A2AA
  5158 0001:0000A2AC  5160 0001:0000A2B1  5175 0001:0000A2B4  5176 0001:0000A2C6
  5177 0001:0000A2D8  5180 0001:0000A300  5181 0001:0000A319  5184 0001:0000A326
  5185 0001:0000A339  5186 0001:0000A35B  5187 0001:0000A363  5188 0001:0000A36B
  5190 0001:0000A37D  5191 0001:0000A38B  5192 0001:0000A396  5194 0001:0000A3B1
  5196 0001:0000A3D8  5198 0001:0000A458  5199 0001:0000A466  5207 0001:0000A474
  5208 0001:0000A499  5209 0001:0000A4AF  5210 0001:0000A4B9  5214 0001:0000A4D5
  5215 0001:0000A507  5217 0001:0000A53E  5224 0001:0000A544  5226 0001:0000A547
  5227 0001:0000A54A  5229 0001:0000A54C  5230 0001:0000A55F  5231 0001:0000A5A5
  5243 0001:0000A5A8  5244 0001:0000A5C3  5245 0001:0000A5E4  5249 0001:0000A5E8
  5250 0001:0000A617  5251 0001:0000A667  5294 0001:0000A670  5295 0001:0000A68D
  5298 0001:0000A694  5299 0001:0000A69B  5300 0001:0000A6A4  5301 0001:0000A6AC
  5322 0001:0000A6D0  5323 0001:0000A6E9  5324 0001:0000A6F0  5325 0001:0000A718
  5326 0001:0000A71E  5327 0001:0000A739  5328 0001:0000A770  5329 0001:0000A781
  5330 0001:0000A7AE  5367 0001:0000A7D4  5368 0001:0000A7E0  5369 0001:0000A7F1
  5370 0001:0000A7FB  5371 0001:0000A805  5373 0001:0000A829  5375 0001:0000A831
  5376 0001:0000A83C  5384 0001:0000A840  5385 0001:0000A866  5386 0001:0000A886
  5388 0001:0000A8F3  5393 0001:0000A8FC  5394 0001:0000A915  5395 0001:0000A962
  5398 0001:0000A968  5399 0001:0000A971  5401 0001:0000A9CF  5403 0001:0000A9D5
  5405 0001:0000A9DB  5409 0001:0000A9E1  5411 0001:0000A9E7  5413 0001:0000A9ED
  5416 0001:0000A9F3  5418 0001:0000A9F9  5420 0001:0000A9FF  5422 0001:0000AA05
  5424 0001:0000AA0B  5426 0001:0000AA11  5428 0001:0000AA18  5433 0001:0000AA1C
  5434 0001:0000AA25  5435 0001:0000AA30  5436 0001:0000AA42  5448 0001:0000AA48
  5449 0001:0000AA70  5451 0001:0000AA79  5452 0001:0000AA82  5453 0001:0000AA91
  5454 0001:0000AA9E  5455 0001:0000AAA7  5456 0001:0000AAB9  5458 0001:0000AAE3
  5461 0001:0000AB80  5464 0001:0000AC11  5466 0001:0000AC18  5467 0001:0000AC34
  5468 0001:0000AC44  5470 0001:0000AC57  5471 0001:0000AC7B  5473 0001:0000AC87
  5475 0001:0000ACB8  5477 0001:0000ACE1  5482 0001:0000ACE8  5483 0001:0000ACF4
  5484 0001:0000ACFF  5485 0001:0000AD09  5488 0001:0000AD10  5489 0001:0000AD23
  5490 0001:0000AD44  5491 0001:0000AD65  5492 0001:0000AD70  5493 0001:0000AD7B
  5494 0001:0000AD88  5495 0001:0000AD93  5496 0001:0000AD9E  5497 0001:0000ADA9
  5498 0001:0000ADD1  5501 0001:0000ADD4  5502 0001:0000ADD7  5503 0001:0000ADE0
  5504 0001:0000ADEA  5505 0001:0000ADF1  5506 0001:0000ADFB  5507 0001:0000AE02
  5508 0001:0000AE0B  5509 0001:0000AE14  5510 0001:0000AE1D  5511 0001:0000AE26
  5512 0001:0000AE2F  5513 0001:0000AE38  5518 0001:0000AE3C  5519 0001:0000AE45
  5520 0001:0000AE4F  5523 0001:0000AE5F  5524 0001:0000AE6A  5525 0001:0000AE75
  5526 0001:0000AE80  5527 0001:0000AE8B  5529 0001:0000AE9D  5539 0001:0000AEA4
  5540 0001:0000AEB0  5541 0001:0000AEB4  5543 0001:0000AEBA  5547 0001:0000AED7
  5548 0001:0000AF08  5549 0001:0000AF0E  5550 0001:0000AF25  5552 0001:0000AF2C
  5555 0001:0000AF30  5556 0001:0000AF3C  5557 0001:0000AF40  5558 0001:0000AF49
  5559 0001:0000AF69  5562 0001:0000AF70  5563 0001:0000AF7C  5564 0001:0000AF80
  5565 0001:0000AF89  5566 0001:0000AF9A  5569 0001:0000AFA0  5570 0001:0000AFAC
  5571 0001:0000AFC4  5572 0001:0000AFD5  5577 0001:0000AFDC  5578 0001:0000AFE8
  5579 0001:0000AFED  5580 0001:0000B000  5581 0001:0000B006  5582 0001:0000B00F
  5583 0001:0000B016  5584 0001:0000B01B  5586 0001:0000B023  5587 0001:0000B046
  5588 0001:0000B051  5584 0001:0000B05C  5590 0001:0000B067  5595 0001:0000B06C
  5596 0001:0000B07B  5597 0001:0000B086  5598 0001:0000B08D  5601 0001:0000B096
  5602 0001:0000B0A1  5603 0001:0000B0C4  5599 0001:0000B0CF  5605 0001:0000B0DF
  5606 0001:0000B112  5607 0001:0000B11A  5608 0001:0000B122  5613 0001:0000B128
  5614 0001:0000B134  5615 0001:0000B139  5616 0001:0000B14C  5618 0001:0000B15B
  5619 0001:0000B177  5620 0001:0000B196  5622 0001:0000B19D  5625 0001:0000B1AA
  5626 0001:0000B1B3  5631 0001:0000B1B8  5632 0001:0000B1C4  5633 0001:0000B1C9
  5634 0001:0000B1CF  5635 0001:0000B1E7  5637 0001:0000B1F0  5638 0001:0000B202
  5639 0001:0000B20F  5642 0001:0000B21C  5643 0001:0000B225  5661 0001:0000B22C
  5662 0001:0000B238  5663 0001:0000B23D  5664 0001:0000B257  5665 0001:0000B25D
  5666 0001:0000B281  5676 0001:0000B288  5677 0001:0000B295  5679 0001:0000B2A2
  5680 0001:0000B2AD  5681 0001:0000B2B8  5682 0001:0000B2BF  5684 0001:0000B2CB
  5685 0001:0000B2E4  5687 0001:0000B2FC  5688 0001:0000B307  5691 0001:0000B322
  5692 0001:0000B34B  5682 0001:0000B356  5696 0001:0000B364  5697 0001:0000B36F
  5702 0001:0000B374  5703 0001:0000B381  5705 0001:0000B38E  5706 0001:0000B399
  5707 0001:0000B3A4  5708 0001:0000B3AB  5710 0001:0000B3B7  5711 0001:0000B3D0
  5713 0001:0000B3E8  5714 0001:0000B3F3  5717 0001:0000B40E  5718 0001:0000B437
  5708 0001:0000B442  5722 0001:0000B450  5723 0001:0000B45B  5729 0001:0000B460
  5730 0001:0000B46C  5731 0001:0000B471  5732 0001:0000B49D  5733 0001:0000B4A8
  5734 0001:0000B4B3  5737 0001:0000B4C3  5738 0001:0000B4DB  5740 0001:0000B502
  5741 0001:0000B50C  5742 0001:0000B510  5735 0001:0000B51E  5744 0001:0000B542
  5745 0001:0000B54A  5748 0001:0000B550  5749 0001:0000B55C  5750 0001:0000B56A
  5751 0001:0000B570  5753 0001:0000B576  5755 0001:0000B57C  5756 0001:0000B582
  5757 0001:0000B586  5753 0001:0000B594  5760 0001:0000B59D  5763 0001:0000B5A4
  5764 0001:0000B5B0  5765 0001:0000B5BE  5767 0001:0000B5C4  5769 0001:0000B5E1
  5771 0001:0000B5E5  5772 0001:0000B5E9  5765 0001:0000B5F7  5774 0001:0000B600
  5783 0001:0000B604  5785 0001:0000B60A  5786 0001:0000B614  5787 0001:0000B61D
  5788 0001:0000B626  5790 0001:0000B62D  5791 0001:0000B635  5793 0001:0000B643
  5794 0001:0000B64A  5796 0001:0000B651  5797 0001:0000B65F  5800 0001:0000B66C
  5801 0001:0000B67D  5803 0001:0000B686  5806 0001:0000B691  5809 0001:0000B698
  5810 0001:0000B6B1  5809 0001:0000B6C3  5811 0001:0000B6C8  5807 0001:0000B6D3
  5814 0001:0000B6E9  6125 0001:0000B6F0  6126 0001:0000B70C  6127 0001:0000B714
  6128 0001:0000B71A  6131 0001:0000B760  6132 0001:0000B77F  6133 0001:0000B788
  6134 0001:0000B7B2  6139 0001:0000B7B8  6140 0001:0000B7C1  6141 0001:0000B7CC
  6142 0001:0000B7D5  6167 0001:0000B7DC  6168 0001:0000B7E3  6169 0001:0000B7E7
  6172 0001:0000B7F1  6173 0001:0000B7FA  6170 0001:0000B802  6175 0001:0000B811
  6180 0001:0000B818  6183 0001:0000B81E  6184 0001:0000B826  6185 0001:0000B830
  6181 0001:0000B83D  6187 0001:0000B846  6193 0001:0000B84C  6194 0001:0000B84E
  6195 0001:0000B851  6196 0001:0000B854  6197 0001:0000B857  6198 0001:0000B859
  6202 0001:0000B85C  6203 0001:0000B85E  6204 0001:0000B861  6205 0001:0000B864
  6206 0001:0000B867  6207 0001:0000B86A  6208 0001:0000B86D  6209 0001:0000B870
  6210 0001:0000B872  6217 0001:0000B874  6218 0001:0000B887  6219 0001:0000B8C5
  6224 0001:0000B8C8  6225 0001:0000B8CE  6226 0001:0000B8D8  6230 0001:0000B8FF
  6231 0001:0000B904  6232 0001:0000B90E  6233 0001:0000B914  6235 0001:0000B91A
  6237 0001:0000B93D  6232 0001:0000B943  6240 0001:0000B949  6241 0001:0000B957
  6251 0001:0000B964  6252 0001:0000B96A  6253 0001:0000B972  6254 0001:0000B97D
  6255 0001:0000B988  6256 0001:0000B98E  6257 0001:0000B995  6258 0001:0000B99C
  6259 0001:0000B9B0  6260 0001:0000B9C6  6261 0001:0000B9DC  6262 0001:0000B9E4
  6275 0001:0000B9E8  6276 0001:0000B9EC  6277 0001:0000B9F4  6278 0001:0000BA0F
  6289 0001:0000C5F8  6290 0001:0000C61A  6292 0001:0000C736  6280 0001:0000C738
  6281 0001:0000C75C  6282 0001:0000C761  6283 0001:0000C766  6284 0001:0000C76B
  6285 0001:0000C779  6286 0001:0000C77E  6288 0001:0000C798

Line numbers for Consts(Consts.pas) segment .text

   260 0001:0000CBB3

Line numbers for Dbcgrids(DBCGrids.pas) segment .text

   196 0001:0008EAA0   197 0001:0008EABB   198 0001:0008EAC5   199 0001:0008EACE
   200 0001:0008EAE6   203 0001:0008EAEC   204 0001:0008EAF3   205 0001:0008EB00
   208 0001:0008EB04   209 0001:0008EB0B   210 0001:0008EB18   215 0001:0008EB1C
   216 0001:0008EB37   217 0001:0008EB44   219 0001:0008EB52   220 0001:0008EB5E
   221 0001:0008EB7C   224 0001:0008EB84   225 0001:0008EB90   226 0001:0008EB9B
   228 0001:0008EBA2   234 0001:0008EBA8   235 0001:0008EBB4   237 0001:0008EBC0
   239 0001:0008EBD3   240 0001:0008EBEE   241 0001:0008EC0D   242 0001:0008EC1E
   243 0001:0008EC2C   244 0001:0008EC40   245 0001:0008EC53   246 0001:0008EC6A
   247 0001:0008EC82   249 0001:0008ECA0   250 0001:0008ECAB   251 0001:0008ECC4
   252 0001:0008ECDB   255 0001:0008ECF9   258 0001:0008ED11   260 0001:0008ED37
   263 0001:0008ED3C   264 0001:0008ED48   265 0001:0008ED68   271 0001:0008ED6C
   272 0001:0008ED78   274 0001:0008ED85   275 0001:0008ED93   276 0001:0008EDA1
   277 0001:0008EDB6   278 0001:0008EDC1   279 0001:0008EDC9   280 0001:0008EDDE
   281 0001:0008EE12   283 0001:0008EE31   286 0001:0008EE47   287 0001:0008EE52
   290 0001:0008EE58   291 0001:0008EE64   292 0001:0008EE6D   293 0001:0008EE79
   294 0001:0008EE83   297 0001:0008EE88   298 0001:0008EE94   299 0001:0008EE9E
   304 0001:0008EEA4   305 0001:0008EEBF   306 0001:0008EECC   307 0001:0008EEDA
   308 0001:0008EEE4   309 0001:0008EEFC   310 0001:0008EF11   311 0001:0008EF29
   312 0001:0008EF36   313 0001:0008EF43   314 0001:0008EF50   315 0001:0008EF5D
   316 0001:0008EF67   317 0001:0008EF71   318 0001:0008EF7B   319 0001:0008EF85
   320 0001:0008EF94   321 0001:0008EFAF   324 0001:0008EFB8   325 0001:0008EFC4
   326 0001:0008EFD2   327 0001:0008EFE0   328 0001:0008EFEB   329 0001:0008F00A
   332 0001:0008F010   333 0001:0008F019   334 0001:0008F01D   336 0001:0008F035
   337 0001:0008F03D   339 0001:0008F04B   344 0001:0008F050   345 0001:0008F05A
   346 0001:0008F06F   347 0001:0008F084   348 0001:0008F090   349 0001:0008F09C
   350 0001:0008F0A6   351 0001:0008F0C2   352 0001:0008F0CA   357 0001:0008F0D0
   358 0001:0008F0D9   360 0001:0008F0E5   361 0001:0008F0EF   362 0001:0008F11B
   363 0001:0008F126   364 0001:0008F136   366 0001:0008F158   367 0001:0008F161
   370 0001:0008F168   371 0001:0008F174   374 0001:0008F17F   375 0001:0008F189
   377 0001:0008F190   380 0001:0008F194   381 0001:0008F19B   382 0001:0008F1A3
   383 0001:0008F1AF   384 0001:0008F1BE   385 0001:0008F1C9   386 0001:0008F1D8
   387 0001:0008F1F6   388 0001:0008F1FE   395 0001:0008F204   396 0001:0008F210
   398 0001:0008F219   399 0001:0008F21E   401 0001:0008F227   403 0001:0008F236
   404 0001:0008F247   405 0001:0008F258   408 0001:0008F267   409 0001:0008F26C
   411 0001:0008F271   412 0001:0008F276   413 0001:0008F284   415 0001:0008F2AC
   416 0001:0008F2B9   417 0001:0008F2DC   418 0001:0008F2EC   419 0001:0008F2F1
   422 0001:0008F2FF   423 0001:0008F32D   426 0001:0008F33B   429 0001:0008F358
   430 0001:0008F364   431 0001:0008F370   432 0001:0008F38B   433 0001:0008F399
   435 0001:0008F39F   436 0001:0008F3A7   438 0001:0008F3AF   439 0001:0008F3B7
   440 0001:0008F3D5   441 0001:0008F3DD   444 0001:0008F3E4   445 0001:0008F3EB
   446 0001:0008F3F4   448 0001:0008F400   449 0001:0008F419   450 0001:0008F428
   452 0001:0008F437   457 0001:0008F43C   458 0001:0008F448   460 0001:0008F45B
   462 0001:0008F467   463 0001:0008F46E   466 0001:0008F47C   467 0001:0008F488
   469 0001:0008F48F   470 0001:0008F4A0   471 0001:0008F4FD   472 0001:0008F517
   473 0001:0008F526   474 0001:0008F535   475 0001:0008F549   476 0001:0008F55B
   477 0001:0008F56F   478 0001:0008F581   479 0001:0008F595   480 0001:0008F5A7
   481 0001:0008F5C4   482 0001:0008F5DF   483 0001:0008F5EC   485 0001:0008F5F9
   487 0001:0008F61C   488 0001:0008F624   491 0001:0008F630   493 0001:0008F64B
   494 0001:0008F653   497 0001:0008F65F   499 0001:0008F67A   500 0001:0008F682
   504 0001:0008F68E   505 0001:0008F699   509 0001:0008F6A3   515 0001:0008F6A8
   516 0001:0008F6B7   517 0001:0008F6C5   519 0001:0008F6D3   520 0001:0008F6E4
   521 0001:0008F6F5   522 0001:0008F710   524 0001:0008F723   525 0001:0008F74C
   527 0001:0008F77E   533 0001:0008F784   534 0001:0008F793   536 0001:0008F799
   537 0001:0008F7B8   538 0001:0008F7CC   539 0001:0008F7E6   540 0001:0008F7F7
   542 0001:0008F800   543 0001:0008F80C   544 0001:0008F81D   547 0001:0008F824
   548 0001:0008F82D   549 0001:0008F83C   552 0001:0008F840   553 0001:0008F84D
   554 0001:0008F868   557 0001:0008F870   558 0001:0008F879   559 0001:0008F88B
   562 0001:0008F890   563 0001:0008F899   564 0001:0008F8C9   569 0001:0008F8D0
   570 0001:0008F8DF   572 0001:0008F8EB   573 0001:0008F8FD   576 0001:0008F911
   577 0001:0008F923   579 0001:0008F935   580 0001:0008F946   581 0001:0008F958
   582 0001:0008F96C   583 0001:0008F981   586 0001:0008F988   587 0001:0008F994
   592 0001:0008F998   593 0001:0008F9A7   594 0001:0008F9B5   595 0001:0008F9B9
   596 0001:0008FA5D   597 0001:0008FA63   598 0001:0008FA69   599 0001:0008FA6F
   600 0001:0008FA75   601 0001:0008FA7B   602 0001:0008FA81   603 0001:0008FA87
   604 0001:0008FA8D   605 0001:0008FA93   607 0001:0008FA99   608 0001:0008FAA5
   609 0001:0008FAAB   610 0001:0008FAB1   611 0001:0008FAC3   613 0001:0008FAC7
   614 0001:0008FAD2   620 0001:0008FAD8   621 0001:0008FAE4   623 0001:0008FAF1
   624 0001:0008FAFF   625 0001:0008FB14   626 0001:0008FB29   627 0001:0008FB45
   628 0001:0008FB4E   629 0001:0008FB73   628 0001:0008FB96   632 0001:0008FBA0
   633 0001:0008FBA8   634 0001:0008FBB6   635 0001:0008FBD8   636 0001:0008FBF2
   637 0001:0008FC02   634 0001:0008FC13   639 0001:0008FC25   643 0001:0008FC35
   645 0001:0008FC45   647 0001:0008FC62   648 0001:0008FC76   649 0001:0008FCB5
   651 0001:0008FCBE   653 0001:0008FCDB   654 0001:0008FCEF   655 0001:0008FD2A
   658 0001:0008FD33   661 0001:0008FD38   662 0001:0008FD45   663 0001:0008FD67
   666 0001:0008FD6C   667 0001:0008FD78   669 0001:0008FDC2   672 0001:0008FDC8
   673 0001:0008FDD4   674 0001:0008FDDF   675 0001:0008FDED   678 0001:0008FDF4
   679 0001:0008FDFB   680 0001:0008FE04   681 0001:0008FE19   682 0001:0008FE3A
   683 0001:0008FE44   688 0001:0008FE48   689 0001:0008FE57   690 0001:0008FE74
   691 0001:0008FE85   693 0001:0008FE8E   694 0001:0008FE96   695 0001:0008FEAF
   698 0001:0008FED2   699 0001:0008FEDA   700 0001:0008FEE2   701 0001:0008FEF0
   702 0001:0008FEF6   703 0001:0008FEFC   705 0001:0008FF2F   708 0001:0008FF55
   709 0001:0008FF64   710 0001:0008FF7B   712 0001:0008FF88   714 0001:0008FF98
   715 0001:0008FFA4   716 0001:0008FFB2   717 0001:0008FFBE   718 0001:0008FFC4
   720 0001:0008FFD6   721 0001:0008FFEB   724 0001:00090002   726 0001:00090041
   729 0001:00090051   735 0001:00090058   736 0001:00090064   738 0001:00090074
   739 0001:00090078   740 0001:000900AF   741 0001:000900B8   742 0001:000900C1
   743 0001:000900CA   744 0001:000900D3   745 0001:000900DC   747 0001:000900E5
   749 0001:00090112   750 0001:00090119   751 0001:00090120   752 0001:0009013C
   753 0001:00090148   756 0001:00090169   757 0001:00090182   761 0001:00090184
   762 0001:000901A0   763 0001:000901A6   764 0001:000901AC   765 0001:000901B2
   769 0001:000901B6   771 0001:000901C1   778 0001:000901C8   779 0001:000901D8
   780 0001:000901E7   781 0001:000901F5   782 0001:000901FA   783 0001:000901FF
   784 0001:00090205   785 0001:0009021A   787 0001:00090227   788 0001:00090235
   789 0001:0009023B   790 0001:00090241   791 0001:0009024D   792 0001:00090252
   794 0001:00090258   796 0001:0009025E   797 0001:00090261   800 0001:00090273
   801 0001:00090282   803 0001:00090285   804 0001:00090293   806 0001:000902B3
   807 0001:000902BA   809 0001:000902C0   812 0001:000902D3   815 0001:000902F1
   817 0001:00090304   824 0001:0009030C   825 0001:00090318   826 0001:00090323
   828 0001:0009032D   829 0001:00090339   831 0001:0009034C   832 0001:00090361
   833 0001:00090378   834 0001:00090386   835 0001:00090394   837 0001:000903B6
   838 0001:000903BE   840 0001:000903C8   841 0001:000903D4   842 0001:000903E9
   845 0001:000903F1   850 0001:000903F8   851 0001:00090407   852 0001:0009040C
   853 0001:00090411   854 0001:0009041D   855 0001:00090429   856 0001:00090433
   857 0001:00090448   858 0001:0009045D   859 0001:0009046A   860 0001:00090477
   862 0001:00090493   863 0001:0009049F   864 0001:000904AB   866 0001:000904B3
   867 0001:000904C9   870 0001:000904D0   871 0001:000904DC   872 0001:000904E9
   873 0001:000904F6   875 0001:00090504   876 0001:00090510   878 0001:00090518
   881 0001:0009051C   882 0001:00090528   883 0001:00090539   884 0001:0009054C
   889 0001:00090550   890 0001:0009055C   891 0001:00090569   893 0001:0009056F
   894 0001:00090588   896 0001:00090598   897 0001:000905A0   900 0001:000905A4
   901 0001:000905B0   903 0001:000905BE   904 0001:000905CA   905 0001:000905D2
   907 0001:000905DA   910 0001:000905E0   911 0001:000905EC   913 0001:000905FA
   914 0001:00090606   915 0001:0009060E   917 0001:0009061C   920 0001:00090620
   921 0001:0009062C   922 0001:00090639   923 0001:00090649   925 0001:00090657
   926 0001:00090663   928 0001:0009066B   931 0001:00090670   932 0001:0009067C
   933 0001:00090699   934 0001:000906B8   937 0001:000906BC   938 0001:000906C8
   939 0001:000906D5   940 0001:000906E5   942 0001:000906F3   943 0001:000906FF
   945 0001:00090707   948 0001:0009070C   949 0001:00090718   950 0001:00090725
   951 0001:00090732   953 0001:00090740   954 0001:0009074C   956 0001:00090754
   959 0001:00090758   960 0001:00090764   962 0001:00090772   963 0001:0009077E
   964 0001:00090793   965 0001:0009079B   967 0001:000907A9   973 0001:000907B0
   974 0001:000907D3   975 0001:000907E2   976 0001:000907F7   977 0001:0009080B
   979 0001:00090811   980 0001:00090818   982 0001:0009081E   983 0001:00090830
   986 0001:00090837   988 0001:00090849   989 0001:00090861   987 0001:0009087C
   990 0001:0009089E   995 0001:000908A4   996 0001:000908AF   997 0001:000908D2
   999 0001:000908E3  1000 0001:000908EA  1001 0001:000908F1  1002 0001:0009090D
  1003 0001:0009091A  1005 0001:00090929  1006 0001:00090930  1007 0001:00090945
  1008 0001:00090957  1009 0001:00090961  1013 0001:00090971  1014 0001:00090976
  1015 0001:0009097B  1016 0001:00090982  1017 0001:00090992  1018 0001:000909A4
  1020 0001:000909AB  1022 0001:000909CB  1024 0001:000909E9  1031 0001:000909F0
  1032 0001:000909FD  1034 0001:00090A10  1035 0001:00090A1E  1036 0001:00090A3B
  1038 0001:00090A72  1039 0001:00090A7C  1040 0001:00090A8A  1042 0001:00090AA2
  1044 0001:00090AB4  1045 0001:00090ACE  1046 0001:00090ADC  1048 0001:00090AF8
  1049 0001:00090B05  1050 0001:00090B13  1051 0001:00090B30  1054 0001:00090B32
  1035 0001:00090B35  1056 0001:00090B3E  1058 0001:00090B4A  1060 0001:00090B5C
  1061 0001:00090B66  1063 0001:00090B72  1065 0001:00090B7D  1068 0001:00090B84
  1069 0001:00090B91  1070 0001:00090BAF  1071 0001:00090BBA  1074 0001:00090BC0
  1075 0001:00090BCC  1076 0001:00090BD7  1079 0001:00090BDC  1080 0001:00090BE8
  1081 0001:00090BF3  1084 0001:00090BF8  1085 0001:00090C04  1086 0001:00090C0E
  1089 0001:00090C14  1090 0001:00090C20  1091 0001:00090C2B  1094 0001:00090C30
  1095 0001:00090C3C  1096 0001:00090C46  1097 0001:00090C54  1100 0001:00090C58
  1101 0001:00090C64  1102 0001:00090C6E  1103 0001:00090C7C  1106 0001:00090C80
  1107 0001:00090C8C  1108 0001:00090C96  1111 0001:00090C9C  1112 0001:00090CA8
  1113 0001:00090CB3  1114 0001:00090CBB  1117 0001:00090CC0  1118 0001:00090CC4
  1119 0001:00090CCC  1120 0001:00090CDC  1121 0001:00090CEC  1122 0001:00090CFF
  1128 0001:00090D08  1130 0001:00090D15  1132 0001:00090D24  1133 0001:00090D2C
  1134 0001:00090D58  1135 0001:00090D5C  1137 0001:00090D7D  1139 0001:00090D9B
  1140 0001:00090DA1  1141 0001:00090DA7  1143 0001:00090DAD  1144 0001:00090DC5
  1145 0001:00090DCB  1146 0001:00090DD1  1148 0001:00090DD5  1150 0001:00090DDB
  1151 0001:00090DE6  1152 0001:00090DF0  1155 0001:00090DF2  1156 0001:00090DFD
  1159 0001:00090E04  1160 0001:00090E10  1161 0001:00090E1B  1162 0001:00090E27
  1163 0001:00090E36  1165 0001:00090E73

Line numbers for Unit1(Unit1.pas) segment .text

    57 0001:00091138    59 0001:00091144    60 0001:00091157    62 0001:00091163
    64 0001:0009116F    67 0001:000911AC    68 0001:000911B8    69 0001:000911C7
    70 0001:000911DA    72 0001:000911E6    73 0001:000911F2    76 0001:0009123C
    77 0001:00091248    78 0001:00091257    79 0001:0009126A    81 0001:00091276
    82 0001:00091282    84 0001:0009130F

Line numbers for Unit3(Unit3.pas) segment .text

    61 0001:00091624    63 0001:00091646    64 0001:00091650    65 0001:0009166A
    66 0001:00091678    67 0001:00091686    68 0001:00091694    70 0001:000916B4
    71 0001:000916C9    75 0001:000916DC    76 0001:000916F7    77 0001:00091703
    78 0001:0009171E    79 0001:0009172F    73 0001:0009173D    81 0001:0009174C
    82 0001:0009175A    84 0001:0009176D    85 0001:0009177B    87 0001:00091798
    89 0001:000917C3    92 0001:00091834    93 0001:00091843    95 0001:00091849
    96 0001:00091866    99 0001:00091884   100 0001:00091890   102 0001:000918AC
   103 0001:000918BB   105 0001:000918C9   106 0001:000918D7   107 0001:000918E8
   108 0001:000918FC   110 0001:00091908   111 0001:00091916   112 0001:00091920
   115 0001:00091940   126 0001:0009194C   129 0001:00091950   140 0001:0009195C
   143 0001:00091960   153 0001:0009196C   156 0001:00091970   157 0001:0009198F
   158 0001:000919D4   161 0001:000919E4   162 0001:000919F0   163 0001:00091A03
   166 0001:00091A30   167 0001:00091A4F   168 0001:00091A96   171 0001:00091AA8
   172 0001:00091AC7   173 0001:00091B0E   176 0001:00091B20   177 0001:00091B3F
   178 0001:00091B86   181 0001:00091B98   182 0001:00091BB7   183 0001:00091BFE
   186 0001:00091C10   187 0001:00091C1F   188 0001:00091C27   190 0001:00091C37
   192 0001:00091C7F

Line numbers for Unit2(Unit2.pas) segment .text

    36 0001:00091E24    37 0001:00091E43    38 0001:00091E51    39 0001:00091E5F
    40 0001:00091E6E    43 0001:00091E82    44 0001:00091EAC    45 0001:00091EE7
    46 0001:00091F22    41 0001:00091F30    48 0001:00091F43    49 0001:00091F51
    50 0001:00091F8D    51 0001:00091FE6    54 0001:00092060    55 0001:0009206C
    56 0001:00092080    58 0001:0009208C    60 0001:0009209A    61 0001:000920A4
    63 0001:000920DF

Line numbers for conto(C:\fls\dev\02MIOCC\conto.dpr) segment .text

    11 0001:00092338    12 0001:00092348    13 0001:00092354    14 0001:00092365
    15 0001:00092379    16 0001:00092391    17 0001:000923A9    18 0001:000923C1
    19 0001:000923CD

Program entry point at 0001:00092338
